

Microchip MPLAB XC8 Assembler V2.46 build 20240104201356 
                                                                                               Sat May 04 13:16:10 2024

Microchip MPLAB XC8 C Compiler v2.46 (Free license) build 20240104201356 Og1 
     1                           	processor	18F47K42
     2                           	fnconf	rparam,??,?,0
     3                           	pagewidth 120
     4                           	opt	flic
     5                           	psect	smallconst,global,reloc=2,class=SMALLCONST,delta=1,noexec
     6                           	psect	nvBANK0,global,class=BANK0,space=1,delta=1,lowdata,noexec
     7                           	psect	cinit,global,reloc=2,class=CODE,delta=1
     8                           	psect	bssCOMRAM,global,class=COMRAM,space=1,delta=1,lowdata,noexec
     9                           	psect	bssBANK0,global,class=BANK0,space=1,delta=1,lowdata,noexec
    10                           	psect	bssBANK1,global,class=BANK1,space=1,delta=1,lowdata,noexec
    11                           	psect	bssBANK2,global,class=BANK2,space=1,delta=1,lowdata,noexec
    12                           	psect	cstackBANK0,global,class=BANK0,space=1,delta=1,lowdata,noexec
    13                           	psect	cstackCOMRAM,global,class=COMRAM,space=1,delta=1,lowdata,noexec
    14                           	psect	text0,global,reloc=2,class=CODE,delta=1
    15                           	psect	text1,global,reloc=2,class=CODE,delta=1,group=3
    16                           	psect	text2,global,reloc=2,class=CODE,delta=1,group=1
    17                           	psect	text3,global,reloc=2,class=CODE,delta=1,group=1
    18                           	psect	text4,global,reloc=2,class=CODE,delta=1,group=3
    19                           	psect	text5,global,reloc=2,class=CODE,delta=1
    20                           	psect	text6,global,reloc=2,class=CODE,delta=1
    21                           	psect	text7,global,reloc=2,class=CODE,delta=1
    22                           	psect	text8,global,reloc=2,class=CODE,delta=1
    23                           	psect	text9,global,reloc=2,class=CODE,delta=1
    24                           	psect	text10,global,reloc=2,class=CODE,delta=1
    25                           	psect	text11,global,reloc=2,class=CODE,delta=1
    26                           	psect	text12,global,reloc=2,class=CODE,delta=1
    27                           	psect	text13,global,reloc=2,class=CODE,delta=1
    28                           	psect	text14,global,reloc=2,class=CODE,delta=1
    29                           	psect	text15,global,reloc=2,class=CODE,delta=1
    30                           	psect	text16,global,reloc=2,class=CODE,delta=1
    31                           	psect	text17,global,reloc=2,class=CODE,delta=1
    32                           	psect	text18,global,reloc=2,class=CODE,delta=1
    33                           	psect	text19,global,reloc=2,class=CODE,delta=1
    34                           	psect	text20,global,reloc=2,class=CODE,delta=1
    35                           	psect	text21,global,reloc=2,class=CODE,delta=1
    36                           	psect	text22,global,reloc=2,class=CODE,delta=1
    37                           	psect	text23,global,reloc=2,class=CODE,delta=1
    38                           	psect	text24,global,reloc=2,class=CODE,delta=1
    39                           	psect	text25,global,reloc=2,class=CODE,delta=1
    40                           	psect	text26,global,reloc=2,class=CODE,delta=1
    41                           	psect	text27,global,reloc=2,class=CODE,delta=1
    42                           	psect	text28,global,reloc=2,class=CODE,delta=1
    43                           	psect	text29,global,reloc=2,class=CODE,delta=1
    44                           	psect	text30,global,reloc=2,class=CODE,delta=1
    45                           	psect	text31,global,reloc=2,class=CODE,delta=1
    46                           	psect	text32,global,reloc=2,class=CODE,delta=1,group=3
    47                           	psect	text33,global,reloc=2,class=CODE,delta=1
    48                           	psect	text34,global,reloc=2,class=CODE,delta=1
    49                           	psect	text35,global,reloc=2,class=CODE,delta=1
    50                           	psect	text36,global,reloc=2,class=CODE,delta=1
    51                           	psect	ivt0x8,global,reloc=2,class=CODE,delta=1,noexec,keep,optim=
    52                           	psect	intsave_regs,global,class=BIGRAM,space=1,delta=1,noexec
    53                           	psect	rparam,global,class=COMRAM,space=1,delta=1,noexec
    54                           	psect	config,global,abs,ovrld,class=CONFIG,space=4,delta=1,noexec
    55   000000                     
    56                           ; Generated 12/10/2023 GMT
    57                           ; 
    58                           ; Copyright © 2023, Microchip Technology Inc. and its subsidiaries ("Microchip")
    59                           ; All rights reserved.
    60                           ; 
    61                           ; This software is developed by Microchip Technology Inc. and its subsidiaries ("Microch
      +                          ip").
    62                           ; 
    63                           ; Redistribution and use in source and binary forms, with or without modification, are
    64                           ; permitted provided that the following conditions are met:
    65                           ; 
    66                           ;     1. Redistributions of source code must retain the above copyright notice, this lis
      +                          t of
    67                           ;        conditions and the following disclaimer.
    68                           ; 
    69                           ;     2. Redistributions in binary form must reproduce the above copyright notice, this 
      +                          list
    70                           ;        of conditions and the following disclaimer in the documentation and/or other
    71                           ;        materials provided with the distribution. Publication is not required when
    72                           ;        this file is used in an embedded application.
    73                           ; 
    74                           ;     3. Microchip's name may not be used to endorse or promote products derived from th
      +                          is
    75                           ;        software without specific prior written permission.
    76                           ; 
    77                           ; THIS SOFTWARE IS PROVIDED BY MICROCHIP "AS IS" AND ANY EXPRESS OR IMPLIED WARRANTIES,
    78                           ; INCLUDING, BUT NOT LIMITED TO, THE IMPLIED WARRANTIES OF MERCHANTABILITY AND FITNESS F
      +                          OR
    79                           ; PURPOSE ARE DISCLAIMED.  IN NO EVENT SHALL MICROCHIP BE LIABLE FOR ANY DIRECT, INDIREC
      +                          T,
    80                           ; INCIDENTAL, SPECIAL, EXEMPLARY, OR CONSEQUENTIAL DAMAGES (INCLUDING BUT NOT LIMITED TO
    81                           ; PROCUREMENT OF SUBSTITUTE GOODS OR SERVICES; LOSS OF USE, DATA OR PROFITS; OR BUSINESS
    82                           ; INTERRUPTION) HOWSOEVER CAUSED AND ON ANY THEORY OF LIABILITY, WHETHER IN CONTRACT, ST
      +                          RICT
    83                           ; LIABILITY, OR TORT (INCLUDING NEGLIGENCE OR OTHERWISE) ARISING IN ANY WAY OUT OF THE U
      +                          SE OF
    84                           ; THIS SOFTWARE, EVEN IF ADVISED OF THE POSSIBILITY OF SUCH DAMAGE.
    85                           ; 
    86                           ; 
    87                           ; Code-generator required, PIC18F47K42 Definitions
    88                           ; 
    89                           ; SFR Addresses
    90   000000                     
    91 ;; Function _INT0_DefaultInterruptHandler is unused but had its address taken
    92   000000                     
    93 ;; Function _INT1_DefaultInterruptHandler is unused but had its address taken
    94   000000                     
    95 ;; Function _INT2_DefaultInterruptHandler is unused but had its address taken
    96   000000                     
    97 ;; Function _UART2_Deinitialize is unused but had its address taken
    98   000000                     
    99 ;; Function _UART2_TransmitEnable is unused but had its address taken
   100   000000                     
   101 ;; Function _UART2_TransmitDisable is unused but had its address taken
   102   000000                     
   103 ;; Function _UART2_AutoBaudSet is unused but had its address taken
   104   000000                     
   105 ;; Function _UART2_AutoBaudQuery is unused but had its address taken
   106   000000                     
   107 ;; Function _UART2_IsTxDone is unused but had its address taken
   108   000000                     
   109 ;; Function _UART2_ErrorGet is unused but had its address taken
   110   000000                     
   111 ;; Function _UART2_DefaultParityErrorCallback is unused but had its address taken
   112   000000                     
   113 ;; Function _UART2_TxCompleteCallbackRegister is unused but had its address taken
   114   000000                     
   115                           	psect	smallconst
   116   002000                     __psmallconst:
   117                           	callstack 0
   118   002000  00                 	db	0
   119   002001                     _UART2:
   120                           	callstack 0
   121   002001  32                 	db	low _UART2_Initialize
   122   002002  26                 	db	high _UART2_Initialize
   123   002003  00                 	db	low (_UART2_Initialize shr (0+16))
   124   002004  00                 	db	0
   125   002005  00                 	db	0
   126   002006  00                 	db	0
   127   002007  40                 	db	low _UART2_Read
   128   002008  2B                 	db	high _UART2_Read
   129   002009  00                 	db	low (_UART2_Read shr (0+16))
   130   00200A  26                 	db	low _UART2_Write
   131   00200B  29                 	db	high _UART2_Write
   132   00200C  00                 	db	low (_UART2_Write shr (0+16))
   133   00200D  CA                 	db	low _UART2_IsRxReady
   134   00200E  2C                 	db	high _UART2_IsRxReady
   135   00200F  00                 	db	low (_UART2_IsRxReady shr (0+16))
   136   002010  28                 	db	low _UART2_IsTxReady
   137   002011  2C                 	db	high _UART2_IsTxReady
   138   002012  00                 	db	low (_UART2_IsTxReady shr (0+16))
   139   002013  00                 	db	0
   140   002014  00                 	db	0
   141   002015  00                 	db	0
   142   002016  00                 	db	0
   143   002017  00                 	db	0
   144   002018  00                 	db	0
   145   002019  00                 	db	0
   146   00201A  00                 	db	0
   147   00201B  00                 	db	0
   148   00201C  00                 	db	0
   149   00201D  00                 	db	0
   150   00201E  00                 	db	0
   151   00201F  00                 	db	0
   152   002020  00                 	db	0
   153   002021  00                 	db	0
   154   002022  00                 	db	0
   155   002023  00                 	db	0
   156   002024  00                 	db	0
   157   002025  00                 	db	0
   158   002026  00                 	db	0
   159   002027  00                 	db	0
   160   002028  00                 	db	0
   161   002029  00                 	db	0
   162   00202A  00                 	db	0
   163   00202B  00                 	db	0
   164   00202C  00                 	db	0
   165   00202D  00                 	db	0
   166   00202E  00                 	db	0
   167   00202F  00                 	db	0
   168   002030  00                 	db	0
   169   002031  00                 	db	0
   170   002032  00                 	db	0
   171   002033  00                 	db	0
   172   002034  00                 	db	0
   173   002035  00                 	db	0
   174   002036  00                 	db	0
   175   002037  76                 	db	low _UART2_RxCompleteCallbackRegister
   176   002038  2B                 	db	high _UART2_RxCompleteCallbackRegister
   177   002039  00                 	db	low (_UART2_RxCompleteCallbackRegister shr (0+16))
   178   00203A  00                 	db	0
   179   00203B  00                 	db	0
   180   00203C  00                 	db	0
   181   00203D  E2                 	db	low _UART2_FramingErrorCallbackRegister
   182   00203E  2B                 	db	high _UART2_FramingErrorCallbackRegister
   183   00203F  00                 	db	low (_UART2_FramingErrorCallbackRegister shr (0+16))
   184   002040  BE                 	db	low _UART2_OverrunErrorCallbackRegister
   185   002041  2B                 	db	high _UART2_OverrunErrorCallbackRegister
   186   002042  00                 	db	low (_UART2_OverrunErrorCallbackRegister shr (0+16))
   187   002043  9A                 	db	low _UART2_ParityErrorCallbackRegister
   188   002044  2B                 	db	high _UART2_ParityErrorCallbackRegister
   189   002045  00                 	db	low (_UART2_ParityErrorCallbackRegister shr (0+16))
   190   002046  00                 	db	0
   191   002047  00                 	db	0
   192   002048  00                 	db	0
   193   002049                     __end_of_UART2:
   194                           	callstack 0
   195   000000                     _OSCTUNE	set	14814
   196   000000                     _OSCFRQ	set	14815
   197   000000                     _PIR6bits	set	14758
   198   000000                     _PIR7bits	set	14759
   199   002049                     STR_1:
   200   002049  49                 	db	73	;'I'
   201   00204A  6E                 	db	110	;'n'
   202   00204B  20                 	db	32
   203   00204C  74                 	db	116	;'t'
   204   00204D  68                 	db	104	;'h'
   205   00204E  65                 	db	101	;'e'
   206   00204F  20                 	db	32
   207   002050  74                 	db	116	;'t'
   208   002051  65                 	db	101	;'e'
   209   002052  72                 	db	114	;'r'
   210   002053  6D                 	db	109	;'m'
   211   002054  69                 	db	105	;'i'
   212   002055  6E                 	db	110	;'n'
   213   002056  61                 	db	97	;'a'
   214   002057  6C                 	db	108	;'l'
   215   002058  2C                 	db	44
   216   002059  20                 	db	32
   217   00205A  73                 	db	115	;'s'
   218   00205B  65                 	db	101	;'e'
   219   00205C  6E                 	db	110	;'n'
   220   00205D  64                 	db	100	;'d'
   221   00205E  20                 	db	32
   222   00205F  27                 	db	39
   223   002060  41                 	db	65	;'A'
   224   002061  27                 	db	39
   225   002062  20                 	db	32
   226   002063  74                 	db	116	;'t'
   227   002064  6F                 	db	111	;'o'
   228   002065  20                 	db	32
   229   002066  74                 	db	116	;'t'
   230   002067  75                 	db	117	;'u'
   231   002068  72                 	db	114	;'r'
   232   002069  6E                 	db	110	;'n'
   233   00206A  20                 	db	32
   234   00206B  74                 	db	116	;'t'
   235   00206C  68                 	db	104	;'h'
   236   00206D  65                 	db	101	;'e'
   237   00206E  20                 	db	32
   238   00206F  4C                 	db	76	;'L'
   239   002070  45                 	db	69	;'E'
   240   002071  44                 	db	68	;'D'
   241   002072  20                 	db	32
   242   002073  6F                 	db	111	;'o'
   243   002074  6E                 	db	110	;'n'
   244   002075  2C                 	db	44
   245   002076  20                 	db	32
   246   002077  61                 	db	97	;'a'
   247   002078  6E                 	db	110	;'n'
   248   002079  64                 	db	100	;'d'
   249   00207A  20                 	db	32
   250   00207B  27                 	db	39
   251   00207C  42                 	db	66	;'B'
   252   00207D  27                 	db	39
   253   00207E  20                 	db	32
   254   00207F  74                 	db	116	;'t'
   255   002080  6F                 	db	111	;'o'
   256   002081  20                 	db	32
   257   002082  74                 	db	116	;'t'
   258   002083  75                 	db	117	;'u'
   259   002084  72                 	db	114	;'r'
   260   002085  6E                 	db	110	;'n'
   261   002086  20                 	db	32
   262   002087  69                 	db	105	;'i'
   263   002088  74                 	db	116	;'t'
   264   002089  20                 	db	32
   265   00208A  6F                 	db	111	;'o'
   266   00208B  66                 	db	102	;'f'
   267   00208C  66                 	db	102	;'f'
   268   00208D  2E                 	db	46
   269   00208E  0D                 	db	13
   270   00208F  0A                 	db	10
   271   002090  00                 	db	0
   272   002091                     STR_2:
   273   002091  4E                 	db	78	;'N'
   274   002092  6F                 	db	111	;'o'
   275   002093  74                 	db	116	;'t'
   276   002094  65                 	db	101	;'e'
   277   002095  3A                 	db	58	;':'
   278   002096  20                 	db	32
   279   002097  63                 	db	99	;'c'
   280   002098  6F                 	db	111	;'o'
   281   002099  6D                 	db	109	;'m'
   282   00209A  6D                 	db	109	;'m'
   283   00209B  61                 	db	97	;'a'
   284   00209C  6E                 	db	110	;'n'
   285   00209D  64                 	db	100	;'d'
   286   00209E  73                 	db	115	;'s'
   287   00209F  20                 	db	32
   288   0020A0  27                 	db	39
   289   0020A1  41                 	db	65	;'A'
   290   0020A2  27                 	db	39
   291   0020A3  20                 	db	32
   292   0020A4  61                 	db	97	;'a'
   293   0020A5  6E                 	db	110	;'n'
   294   0020A6  64                 	db	100	;'d'
   295   0020A7  20                 	db	32
   296   0020A8  27                 	db	39
   297   0020A9  42                 	db	66	;'B'
   298   0020AA  27                 	db	39
   299   0020AB  20                 	db	32
   300   0020AC  61                 	db	97	;'a'
   301   0020AD  72                 	db	114	;'r'
   302   0020AE  65                 	db	101	;'e'
   303   0020AF  20                 	db	32
   304   0020B0  63                 	db	99	;'c'
   305   0020B1  61                 	db	97	;'a'
   306   0020B2  73                 	db	115	;'s'
   307   0020B3  65                 	db	101	;'e'
   308   0020B4  20                 	db	32
   309   0020B5  73                 	db	115	;'s'
   310   0020B6  65                 	db	101	;'e'
   311   0020B7  6E                 	db	110	;'n'
   312   0020B8  73                 	db	115	;'s'
   313   0020B9  69                 	db	105	;'i'
   314   0020BA  74                 	db	116	;'t'
   315   0020BB  69                 	db	105	;'i'
   316   0020BC  76                 	db	118	;'v'
   317   0020BD  65                 	db	101	;'e'
   318   0020BE  2E                 	db	46
   319   0020BF  0D                 	db	13
   320   0020C0  0A                 	db	10
   321   0020C1  00                 	db	0
   322   0020C2                     STR_7:
   323   0020C2  49                 	db	73	;'I'
   324   0020C3  6E                 	db	110	;'n'
   325   0020C4  63                 	db	99	;'c'
   326   0020C5  6F                 	db	111	;'o'
   327   0020C6  72                 	db	114	;'r'
   328   0020C7  72                 	db	114	;'r'
   329   0020C8  65                 	db	101	;'e'
   330   0020C9  63                 	db	99	;'c'
   331   0020CA  74                 	db	116	;'t'
   332   0020CB  20                 	db	32
   333   0020CC  63                 	db	99	;'c'
   334   0020CD  6F                 	db	111	;'o'
   335   0020CE  6D                 	db	109	;'m'
   336   0020CF  6D                 	db	109	;'m'
   337   0020D0  61                 	db	97	;'a'
   338   0020D1  6E                 	db	110	;'n'
   339   0020D2  64                 	db	100	;'d'
   340   0020D3  2E                 	db	46
   341   0020D4  0D                 	db	13
   342   0020D5  0A                 	db	10
   343   0020D6  00                 	db	0
   344   0020D7                     STR_6:
   345   0020D7  4F                 	db	79	;'O'
   346   0020D8  4B                 	db	75	;'K'
   347   0020D9  2C                 	db	44
   348   0020DA  20                 	db	32
   349   0020DB  4C                 	db	76	;'L'
   350   0020DC  45                 	db	69	;'E'
   351   0020DD  44                 	db	68	;'D'
   352   0020DE  20                 	db	32
   353   0020DF  4F                 	db	79	;'O'
   354   0020E0  46                 	db	70	;'F'
   355   0020E1  46                 	db	70	;'F'
   356   0020E2  2E                 	db	46
   357   0020E3  0D                 	db	13
   358   0020E4  0A                 	db	10
   359   0020E5  00                 	db	0
   360   0020E6                     STR_4:
   361   0020E6  4F                 	db	79	;'O'
   362   0020E7  4B                 	db	75	;'K'
   363   0020E8  2C                 	db	44
   364   0020E9  20                 	db	32
   365   0020EA  4C                 	db	76	;'L'
   366   0020EB  45                 	db	69	;'E'
   367   0020EC  44                 	db	68	;'D'
   368   0020ED  20                 	db	32
   369   0020EE  4F                 	db	79	;'O'
   370   0020EF  4E                 	db	78	;'N'
   371   0020F0  2E                 	db	46
   372   0020F1  0D                 	db	13
   373   0020F2  0A                 	db	10
   374   0020F3  00                 	db	0
   375   0020F4                     STR_3:
   376   0020F4  41                 	db	65	;'A'
   377   0020F5  00                 	db	0
   378   0020F6                     STR_5:
   379   0020F6  42                 	db	66	;'B'
   380   0020F7  00                 	db	0
   381   0020F8  00                 	db	0	; dummy byte at the end
   382   000000                     
   383                           	psect	nvBANK0
   384   00009F                     __pnvBANK0:
   385                           	callstack 0
   386   00009F                     _UART2_RxInterruptHandler:
   387                           	callstack 0
   388   00009F                     	ds	3
   389   0000A2                     _UART2_TxInterruptHandler:
   390                           	callstack 0
   391   0000A2                     	ds	3
   392   000000                     _U2ERRIRbits	set	15841
   393   000000                     _U2UIRbits	set	15840
   394   000000                     _U2CON0bits	set	15834
   395   000000                     _U2CON1bits	set	15835
   396   000000                     _LATBbits	set	16315
   397   000000                     _PIE6bits	set	14742
   398   000000                     _PIR1bits	set	14753
   399   000000                     _INTCON0bits	set	16338
   400   000000                     _PIR5bits	set	14757
   401   000000                     _OSCCON1	set	14809
   402   000000                     _OSCCON3	set	14811
   403   000000                     _OSCEN	set	14813
   404   000000                     _RD0PPS	set	14872
   405   000000                     _ANSELA	set	14912
   406   000000                     _LATA	set	16314
   407   000000                     _TRISA	set	16322
   408   000000                     _LATE	set	16318
   409   000000                     _LATD	set	16317
   410   000000                     _LATC	set	16316
   411   000000                     _LATB	set	16315
   412   000000                     _PORTB	set	16331
   413   000000                     _TRISE	set	16326
   414   000000                     _TRISD	set	16325
   415   000000                     _TRISC	set	16324
   416   000000                     _TRISB	set	16323
   417   000000                     _IOCAF	set	14919
   418   000000                     _IOCAN	set	14918
   419   000000                     _IOCAP	set	14917
   420   000000                     _INLVLA	set	14916
   421   000000                     _SLRCONA	set	14915
   422   000000                     _ODCONA	set	14914
   423   000000                     _WPUA	set	14913
   424   000000                     _ANSELB	set	14928
   425   000000                     _IOCBF	set	14935
   426   000000                     _IOCBN	set	14934
   427   000000                     _IOCBP	set	14933
   428   000000                     _RB1I2C	set	14938
   429   000000                     _INLVLB	set	14932
   430   000000                     _SLRCONB	set	14931
   431   000000                     _ODCONB	set	14930
   432   000000                     _WPUB	set	14929
   433   000000                     _ANSELC	set	14944
   434   000000                     _IOCCF	set	14951
   435   000000                     _IOCCN	set	14950
   436   000000                     _IOCCP	set	14949
   437   000000                     _RC3I2C	set	14954
   438   000000                     _INLVLC	set	14948
   439   000000                     _SLRCONC	set	14947
   440   000000                     _ODCONC	set	14946
   441   000000                     _WPUC	set	14945
   442   000000                     _ANSELD	set	14960
   443   000000                     _RD0I2C	set	14970
   444   000000                     _INLVLD	set	14964
   445   000000                     _SLRCOND	set	14963
   446   000000                     _ODCOND	set	14962
   447   000000                     _WPUD	set	14961
   448   000000                     _ANSELE	set	14976
   449   000000                     _IOCEF	set	14983
   450   000000                     _IOCEN	set	14982
   451   000000                     _IOCEP	set	14981
   452   000000                     _U2RXPPS	set	15080
   453   000000                     _INLVLE	set	14980
   454   000000                     _SLRCONE	set	14979
   455   000000                     _ODCONE	set	14978
   456   000000                     _WPUE	set	14977
   457   000000                     _RB2I2C	set	14939
   458   000000                     _RC4I2C	set	14955
   459   000000                     _RD1I2C	set	14971
   460   000000                     _U2RXB	set	15824
   461   000000                     _U2TXB	set	15826
   462   000000                     _U2P1L	set	15828
   463   000000                     _U2P2L	set	15830
   464   000000                     _U2P3L	set	15832
   465   000000                     _U2CON0	set	15834
   466   000000                     _U2ERRIE	set	15842
   467   000000                     _U2ERRIR	set	15841
   468   000000                     _U2UIR	set	15840
   469   000000                     _U2FIFO	set	15839
   470   000000                     _U2BRGH	set	15838
   471   000000                     _U2BRGL	set	15837
   472   000000                     _U2CON2	set	15836
   473   000000                     _U2CON1	set	15835
   474                           
   475                           ; #config settings
   476                           
   477                           	psect	cinit
   478   002986                     __pcinit:
   479                           	callstack 0
   480   002986                     start_initialization:
   481                           	callstack 0
   482   002986                     __initialization:
   483                           	callstack 0
   484                           
   485                           ; Clear objects allocated to BANK2 (256 bytes)
   486   002986  EE00  F200         	lfsr	0,__pbssBANK2
   487   00298A  EE10 F100          	lfsr	1,256
   488   00298E                     clear_0:
   489   00298E  6AEE               	clrf	postinc0,c
   490   002990  50E5               	movf	postdec1,w,c
   491   002992  50E1               	movf	fsr1l,w,c
   492   002994  E1FC               	bnz	clear_0
   493   002996  50E2               	movf	fsr1h,w,c
   494   002998  E1FA               	bnz	clear_0
   495                           
   496                           ; Clear objects allocated to BANK1 (256 bytes)
   497   00299A  EE00  F100         	lfsr	0,__pbssBANK1
   498   00299E  EE10 F100          	lfsr	1,256
   499   0029A2                     clear_1:
   500   0029A2  6AEE               	clrf	postinc0,c
   501   0029A4  50E5               	movf	postdec1,w,c
   502   0029A6  50E1               	movf	fsr1l,w,c
   503   0029A8  E1FC               	bnz	clear_1
   504   0029AA  50E2               	movf	fsr1h,w,c
   505   0029AC  E1FA               	bnz	clear_1
   506                           
   507                           ; Clear objects allocated to BANK0 (40 bytes)
   508   0029AE  EE00  F060         	lfsr	0,__pbssBANK0
   509   0029B2  0E28               	movlw	40
   510   0029B4                     clear_2:
   511   0029B4  6AEE               	clrf	postinc0,c
   512   0029B6  06E8               	decf	wreg,f,c
   513   0029B8  E1FD               	bnz	clear_2
   514                           
   515                           ; Clear objects allocated to COMRAM (39 bytes)
   516   0029BA  EE00  F001         	lfsr	0,__pbssCOMRAM
   517   0029BE  0E27               	movlw	39
   518   0029C0                     clear_3:
   519   0029C0  6AEE               	clrf	postinc0,c
   520   0029C2  06E8               	decf	wreg,f,c
   521   0029C4  E1FD               	bnz	clear_3
   522                           
   523                           ;
   524                           ; Setup IVTBASE
   525                           ;
   526   0029C6  0E08               	movlw	(ivt0x8_base shr 0)& (0+255)
   527   0029C8  6ED5               	movwf	213,c
   528   0029CA  0E00               	movlw	(ivt0x8_base shr (0+8))& (0+255)
   529   0029CC  6ED6               	movwf	214,c
   530   0029CE  0E00               	movlw	(ivt0x8_base shr (0+16))& (0+255)
   531   0029D0  6ED7               	movwf	215,c
   532   0029D2                     end_of_initialization:
   533                           	callstack 0
   534   0029D2                     __end_of__initialization:
   535                           	callstack 0
   536   0029D2  0100               	movlb	0
   537   0029D4  EF2B  F014         	goto	_main	;jump to C main() function
   538                           
   539                           	psect	bssCOMRAM
   540   000001                     __pbssCOMRAM:
   541                           	callstack 0
   542   000001                     _UART2_RxCompleteInterruptHandler:
   543                           	callstack 0
   544   000001                     	ds	3
   545   000004                     _UART2_TxCompleteInterruptHandler:
   546                           	callstack 0
   547   000004                     	ds	3
   548   000007                     _UART2_ParityErrorHandler:
   549                           	callstack 0
   550   000007                     	ds	3
   551   00000A                     _UART2_OverrunErrorHandler:
   552                           	callstack 0
   553   00000A                     	ds	3
   554   00000D                     _UART2_FramingErrorHandler:
   555                           	callstack 0
   556   00000D                     	ds	3
   557   000010                     _INT2_InterruptHandler:
   558                           	callstack 0
   559   000010                     	ds	3
   560   000013                     _INT1_InterruptHandler:
   561                           	callstack 0
   562   000013                     	ds	3
   563   000016                     _INT0_InterruptHandler:
   564                           	callstack 0
   565   000016                     	ds	3
   566   000019                     _width:
   567                           	callstack 0
   568   000019                     	ds	2
   569   00001B                     _prec:
   570                           	callstack 0
   571   00001B                     	ds	2
   572   00001D                     _uart2RxLastError:
   573                           	callstack 0
   574   00001D                     	ds	2
   575   00001F                     _flags:
   576                           	callstack 0
   577   00001F                     	ds	1
   578   000020                     _read_msg:
   579                           	callstack 0
   580   000020                     	ds	1
   581   000021                     _index:
   582                           	callstack 0
   583   000021                     	ds	1
   584   000022                     _uart2RxCount:
   585                           	callstack 0
   586   000022                     	ds	1
   587   000023                     _uart2RxTail:
   588                           	callstack 0
   589   000023                     	ds	1
   590   000024                     _uart2RxHead:
   591                           	callstack 0
   592   000024                     	ds	1
   593   000025                     _uart2TxBufferRemaining:
   594                           	callstack 0
   595   000025                     	ds	1
   596   000026                     _uart2TxTail:
   597                           	callstack 0
   598   000026                     	ds	1
   599   000027                     _uart2TxHead:
   600                           	callstack 0
   601   000027                     	ds	1
   602                           
   603                           	psect	bssBANK0
   604   000060                     __pbssBANK0:
   605                           	callstack 0
   606   000060                     	ds	32
   607   000080                     _command:
   608                           	callstack 0
   609   000080                     	ds	8
   610                           
   611                           	psect	bssBANK1
   612   000100                     __pbssBANK1:
   613                           	callstack 0
   614   000100                     _uart2RxBuffer:
   615                           	callstack 0
   616   000100                     	ds	128
   617   000180                     _uart2TxBuffer:
   618                           	callstack 0
   619   000180                     	ds	128
   620                           
   621                           	psect	bssBANK2
   622   000200                     __pbssBANK2:
   623                           	callstack 0
   624   000200                     _uart2RxStatusBuffer:
   625                           	callstack 0
   626   000200                     	ds	256
   627                           
   628                           	psect	cstackBANK0
   629   000088                     __pcstackBANK0:
   630                           	callstack 0
   631   000088                     UART2_Write@tempTxHead:
   632                           	callstack 0
   633   000088                     INT0_SetInterruptHandler@InterruptHandler:
   634                           	callstack 0
   635   000088                     INT1_SetInterruptHandler@InterruptHandler:
   636                           	callstack 0
   637   000088                     INT2_SetInterruptHandler@InterruptHandler:
   638                           	callstack 0
   639   000088                     UART2_FramingErrorCallbackRegister@callbackHandler:
   640                           	callstack 0
   641   000088                     UART2_OverrunErrorCallbackRegister@callbackHandler:
   642                           	callstack 0
   643   000088                     UART2_ParityErrorCallbackRegister@callbackHandler:
   644                           	callstack 0
   645   000088                     UART2_RxCompleteCallbackRegister@callbackHandler:
   646                           	callstack 0
   647                           
   648                           ; 3 bytes @ 0x0
   649   000088                     	ds	1
   650   000089                     UART2_Write@txData:
   651                           	callstack 0
   652                           
   653                           ; 1 bytes @ 0x1
   654   000089                     	ds	1
   655   00008A                     putch@txData:
   656                           	callstack 0
   657                           
   658                           ; 1 bytes @ 0x2
   659   00008A                     	ds	1
   660   00008B                     fputc@c:
   661                           	callstack 0
   662                           
   663                           ; 2 bytes @ 0x3
   664   00008B                     	ds	2
   665   00008D                     fputc@fp:
   666                           	callstack 0
   667                           
   668                           ; 2 bytes @ 0x5
   669   00008D                     	ds	2
   670   00008F                     ??_fputc:
   671                           
   672                           ; 1 bytes @ 0x7
   673   00008F                     	ds	5
   674   000094                     vfpfcnvrt@fp:
   675                           	callstack 0
   676                           
   677                           ; 2 bytes @ 0xC
   678   000094                     	ds	2
   679   000096                     vfpfcnvrt@fmt:
   680                           	callstack 0
   681                           
   682                           ; 1 bytes @ 0xE
   683   000096                     	ds	1
   684   000097                     vfpfcnvrt@ap:
   685                           	callstack 0
   686                           
   687                           ; 1 bytes @ 0xF
   688   000097                     	ds	1
   689   000098                     ?_vfprintf:
   690                           	callstack 0
   691   000098                     vfprintf@fp:
   692                           	callstack 0
   693                           
   694                           ; 2 bytes @ 0x10
   695   000098                     	ds	2
   696   00009A                     vfprintf@fmt:
   697                           	callstack 0
   698                           
   699                           ; 1 bytes @ 0x12
   700   00009A                     	ds	1
   701   00009B                     vfprintf@ap:
   702                           	callstack 0
   703                           
   704                           ; 1 bytes @ 0x13
   705   00009B                     	ds	1
   706   00009C                     vfprintf@cfmt:
   707                           	callstack 0
   708                           
   709                           ; 1 bytes @ 0x14
   710   00009C                     	ds	1
   711   00009D                     ?_printf:
   712                           	callstack 0
   713   00009D                     printf@fmt:
   714                           	callstack 0
   715                           
   716                           ; 1 bytes @ 0x15
   717   00009D                     	ds	1
   718   00009E                     printf@ap:
   719                           	callstack 0
   720                           
   721                           ; 1 bytes @ 0x16
   722   00009E                     	ds	1
   723   00009F                     
   724                           ; 1 bytes @ 0x17
   725                           
   726                           	psect	cstackCOMRAM
   727   000028                     __pcstackCOMRAM:
   728                           	callstack 0
   729   000028                     ?_strcmp:
   730                           	callstack 0
   731   000028                     UART2_Read@tempRxTail:
   732                           	callstack 0
   733   000028                     UART2_TransmitISR@tempTxTail:
   734                           	callstack 0
   735   000028                     strcmp@l:
   736                           	callstack 0
   737   000028                     i2UART2_Write@tempTxHead:
   738                           	callstack 0
   739                           
   740                           ; 1 bytes @ 0x0
   741   000028                     	ds	1
   742   000029                     UART2_Read@readValue:
   743                           	callstack 0
   744   000029                     strcmp@r:
   745                           	callstack 0
   746   000029                     i2UART2_Write@txData:
   747                           	callstack 0
   748                           
   749                           ; 1 bytes @ 0x1
   750   000029                     	ds	1
   751   00002A                     ??_strcmp:
   752   00002A                     i2putch@txData:
   753                           	callstack 0
   754                           
   755                           ; 1 bytes @ 0x2
   756   00002A                     	ds	1
   757   00002B                     i2fputc@c:
   758                           	callstack 0
   759                           
   760                           ; 2 bytes @ 0x3
   761   00002B                     	ds	2
   762   00002D                     i2fputc@fp:
   763                           	callstack 0
   764                           
   765                           ; 2 bytes @ 0x5
   766   00002D                     	ds	2
   767   00002F                     ??i2_fputc:
   768                           
   769                           ; 1 bytes @ 0x7
   770   00002F                     	ds	5
   771   000034                     i2vfpfcnvrt@fp:
   772                           	callstack 0
   773                           
   774                           ; 2 bytes @ 0xC
   775   000034                     	ds	2
   776   000036                     i2vfpfcnvrt@fmt:
   777                           	callstack 0
   778                           
   779                           ; 1 bytes @ 0xE
   780   000036                     	ds	1
   781   000037                     i2vfpfcnvrt@ap:
   782                           	callstack 0
   783                           
   784                           ; 1 bytes @ 0xF
   785   000037                     	ds	1
   786   000038                     ?i2_vfprintf:
   787                           	callstack 0
   788   000038                     i2vfprintf@fp:
   789                           	callstack 0
   790                           
   791                           ; 2 bytes @ 0x10
   792   000038                     	ds	2
   793   00003A                     i2vfprintf@fmt:
   794                           	callstack 0
   795                           
   796                           ; 1 bytes @ 0x12
   797   00003A                     	ds	1
   798   00003B                     i2vfprintf@ap:
   799                           	callstack 0
   800                           
   801                           ; 1 bytes @ 0x13
   802   00003B                     	ds	1
   803   00003C                     i2vfprintf@cfmt:
   804                           	callstack 0
   805                           
   806                           ; 1 bytes @ 0x14
   807   00003C                     	ds	1
   808   00003D                     ?i2_printf:
   809                           	callstack 0
   810   00003D                     i2printf@fmt:
   811                           	callstack 0
   812                           
   813                           ; 1 bytes @ 0x15
   814   00003D                     	ds	1
   815   00003E                     i2printf@ap:
   816                           	callstack 0
   817                           
   818                           ; 1 bytes @ 0x16
   819   00003E                     	ds	1
   820   00003F                     UART_executeCommand@command:
   821                           	callstack 0
   822                           
   823                           ; 1 bytes @ 0x17
   824   00003F                     	ds	1
   825   000040                     UART2_ReceiveISR@regValue:
   826                           	callstack 0
   827                           
   828                           ; 1 bytes @ 0x18
   829   000040                     	ds	1
   830   000041                     UART2_ReceiveISR@tempRxHead:
   831                           	callstack 0
   832                           
   833                           ; 1 bytes @ 0x19
   834   000041                     	ds	1
   835   000042                     ??_INTERRUPT_InterruptManager:
   836                           
   837                           ; 1 bytes @ 0x1A
   838   000042                     	ds	6
   839                           
   840 ;;
   841 ;;Main: autosize = 0, tempsize = 0, incstack = 0, save=0
   842 ;;
   843 ;; *************** function _main *****************
   844 ;; Defined at:
   845 ;;		line 46 in file "main.c"
   846 ;; Parameters:    Size  Location     Type
   847 ;;		None
   848 ;; Auto vars:     Size  Location     Type
   849 ;;		None
   850 ;; Return value:  Size  Location     Type
   851 ;;                  2  532[None  ] int 
   852 ;; Registers used:
   853 ;;		wreg, fsr1l, fsr1h, fsr2l, fsr2h, status,2, status,0, pcl, pclath, pclatu, tosl, tblptrl, tblptrh, tblptru, cstack
   854 ;; Tracked objects:
   855 ;;		On entry : 0/0
   856 ;;		On exit  : 0/0
   857 ;;		Unchanged: 0/0
   858 ;; Data sizes:     COMRAM   BANK0   BANK1   BANK2   BANK3   BANK4   BANK5   BANK6   BANK7   BANK8   BANK9  BANK10  BANK1
      +1  BANK12  BANK13  BANK14  BANK15  BANK16  BANK17  BANK18  BANK19  BANK20  BANK21  BANK22  BANK23  BANK24  BANK25  BANK2
      +6  BANK27  BANK28  BANK29  BANK30  BANK31
   859 ;;      Params:         0       0       0       0       0       0       0       0       0       0       0       0       
      +0       0       0       0       0       0       0       0       0       0       0       0       0       0       0       
      +0       0       0       0       0       0
   860 ;;      Locals:         0       0       0       0       0       0       0       0       0       0       0       0       
      +0       0       0       0       0       0       0       0       0       0       0       0       0       0       0       
      +0       0       0       0       0       0
   861 ;;      Temps:          0       0       0       0       0       0       0       0       0       0       0       0       
      +0       0       0       0       0       0       0       0       0       0       0       0       0       0       0       
      +0       0       0       0       0       0
   862 ;;      Totals:         0       0       0       0       0       0       0       0       0       0       0       0       
      +0       0       0       0       0       0       0       0       0       0       0       0       0       0       0       
      +0       0       0       0       0       0
   863 ;;Total ram usage:        0 bytes
   864 ;; Hardware stack levels required when called: 16
   865 ;; This function calls:
   866 ;;		_SYSTEM_Initialize
   867 ;;		_UART2_Initialize
   868 ;;		_UART2_RxCompleteCallbackRegister
   869 ;;		_printf
   870 ;; This function is called by:
   871 ;;		Startup code after reset
   872 ;; This function uses a non-reentrant model
   873 ;;
   874                           
   875                           	psect	text0
   876   002856                     __ptext0:
   877                           	callstack 0
   878   002856                     _main:
   879                           	callstack 15
   880   002856                     
   881                           ;main.c: 48:     ANSELB = 0;
   882   002856  0E00               	movlw	0
   883   002858  013A               	movlb	58	; () banked
   884   00285A  6F50               	movwf	80,b	;volatile
   885                           
   886                           ;main.c: 49:     TRISB = 0;
   887   00285C  0E00               	movlw	0
   888   00285E  6EC3               	movwf	195,c	;volatile
   889                           
   890                           ;main.c: 50:     PORTB = 0;
   891   002860  0E00               	movlw	0
   892   002862  6ECB               	movwf	203,c	;volatile
   893   002864                     
   894                           ; BSR set to: 58
   895                           ;main.c: 51:     SYSTEM_Initialize();
   896   002864  EC70  F016         	call	_SYSTEM_Initialize	;wreg free
   897   002868                     
   898                           ;main.c: 52:     (INTCON0bits.GIE = 1);
   899   002868  8ED2               	bsf	210,7,c	;volatile
   900   00286A                     
   901                           ;main.c: 53:     UART2_Initialize();
   902   00286A  EC19  F013         	call	_UART2_Initialize	;wreg free
   903   00286E                     
   904                           ;main.c: 54:     UART2.RxCompleteCallbackRegister(&UART_ProcessCommand);
   905   00286E  0E1C               	movlw	low _UART_ProcessCommand
   906   002870  0100               	movlb	0	; () banked
   907   002872  6F88               	movwf	UART2_RxCompleteCallbackRegister@callbackHandler& (0+255),b
   908   002874  0E22               	movlw	high _UART_ProcessCommand
   909   002876  6F89               	movwf	(UART2_RxCompleteCallbackRegister@callbackHandler+1)& (0+255),b
   910   002878  0E00               	movlw	low (_UART_ProcessCommand shr (0+16))
   911   00287A  6F8A               	movwf	(UART2_RxCompleteCallbackRegister@callbackHandler+2)& (0+255),b
   912   00287C  0E37               	movlw	low (_UART2+54)
   913   00287E  6EF6               	movwf	tblptrl,c
   914   002880                     	if	1	;There is more than 1 active tblptr byte
   915   002880  0E20               	movlw	high __smallconst
   916   002882  6EF7               	movwf	tblptrh,c
   917   002884                     	endif
   918   002884                     	if	0	;tblptru may be non-zero
   919   002884                     	endif
   920   002884                     	if	1	;Program memory is > 0xFFFF, there are 3 active tblptr bytes
   921   002884  0E00               	movlw	low (__smallconst shr (0+16))
   922   002886  6EF8               	movwf	tblptru,c
   923   002888                     	endif
   924   002888  D802               	call	u1738
   925   00288A  EF54  F014         	goto	u1739
   926   00288E                     u1738:
   927   00288E  0005               	push	
   928   002890  6EFA               	movwf	pclath,c
   929   002892  0009               	tblrd		*+
   930   002894  50F5               	movf	tablat,w,c
   931   002896  6EFD               	movwf	tosl,c
   932   002898  0009               	tblrd		*+
   933   00289A  50F5               	movf	tablat,w,c
   934   00289C  6EFE               	movwf	tosh,c
   935   00289E  0009               	tblrd		*+
   936   0028A0  50F5               	movf	tablat,w,c
   937   0028A2  6EFF               	movwf	tosu,c
   938   0028A4  50FA               	movf	pclath,w,c
   939   0028A6  0012               	return		;indir
   940   0028A8                     u1739:
   941   0028A8                     
   942                           ;main.c: 64:     printf("In the terminal, send 'A' to turn the LED on, and 'B' to turn i
      +                          t off.\r\n");
   943   0028A8  0E49               	movlw	low STR_1
   944   0028AA  0100               	movlb	0	; () banked
   945   0028AC  6F9D               	movwf	printf@fmt& (0+255),b
   946   0028AE  EC33  F016         	call	_printf	;wreg free
   947   0028B2                     
   948                           ;main.c: 65:     printf("Note: commands 'A' and 'B' are case sensitive.\r\n");
   949   0028B2  0E91               	movlw	low STR_2
   950   0028B4  0100               	movlb	0	; () banked
   951   0028B6  6F9D               	movwf	printf@fmt& (0+255),b
   952   0028B8  EC33  F016         	call	_printf	;wreg free
   953   0028BC                     l533:
   954   0028BC  EF5E  F014         	goto	l533
   955   0028C0  EF0D  F000         	goto	start
   956   0028C4                     __end_of_main:
   957                           	callstack 0
   958                           
   959 ;; *************** function _printf *****************
   960 ;; Defined at:
   961 ;;		line 5 in file "C:\Program Files\Microchip\xc8\v2.46\pic\sources\c99\common\printf.c"
   962 ;; Parameters:    Size  Location     Type
   963 ;;  fmt             1   21[BANK0 ] PTR const unsigned char 
   964 ;;		 -> STR_7(21), STR_6(15), STR_4(14), STR_2(49), 
   965 ;;		 -> STR_1(72), 
   966 ;; Auto vars:     Size  Location     Type
   967 ;;  ret             2    0        int 
   968 ;;  ap              1   22[BANK0 ] PTR void [1]
   969 ;;		 -> ?_printf(2), 
   970 ;; Return value:  Size  Location     Type
   971 ;;                  2   21[BANK0 ] int 
   972 ;; Registers used:
   973 ;;		wreg, fsr1l, fsr1h, fsr2l, fsr2h, status,2, status,0, tblptrl, tblptrh, tblptru, cstack
   974 ;; Tracked objects:
   975 ;;		On entry : 0/0
   976 ;;		On exit  : 0/0
   977 ;;		Unchanged: 0/0
   978 ;; Data sizes:     COMRAM   BANK0   BANK1   BANK2   BANK3   BANK4   BANK5   BANK6   BANK7   BANK8   BANK9  BANK10  BANK1
      +1  BANK12  BANK13  BANK14  BANK15  BANK16  BANK17  BANK18  BANK19  BANK20  BANK21  BANK22  BANK23  BANK24  BANK25  BANK2
      +6  BANK27  BANK28  BANK29  BANK30  BANK31
   979 ;;      Params:         0       1       0       0       0       0       0       0       0       0       0       0       
      +0       0       0       0       0       0       0       0       0       0       0       0       0       0       0       
      +0       0       0       0       0       0
   980 ;;      Locals:         0       1       0       0       0       0       0       0       0       0       0       0       
      +0       0       0       0       0       0       0       0       0       0       0       0       0       0       0       
      +0       0       0       0       0       0
   981 ;;      Temps:          0       0       0       0       0       0       0       0       0       0       0       0       
      +0       0       0       0       0       0       0       0       0       0       0       0       0       0       0       
      +0       0       0       0       0       0
   982 ;;      Totals:         0       2       0       0       0       0       0       0       0       0       0       0       
      +0       0       0       0       0       0       0       0       0       0       0       0       0       0       0       
      +0       0       0       0       0       0
   983 ;;Total ram usage:        2 bytes
   984 ;; Hardware stack levels used: 1
   985 ;; Hardware stack levels required when called: 15
   986 ;; This function calls:
   987 ;;		_vfprintf
   988 ;; This function is called by:
   989 ;;		_main
   990 ;; This function uses a non-reentrant model
   991 ;;
   992                           
   993                           	psect	text1
   994   002C66                     __ptext1:
   995                           	callstack 0
   996   002C66                     _printf:
   997                           	callstack 15
   998   002C66  0E9E               	movlw	low (?_printf+1)
   999   002C68  0100               	movlb	0	; () banked
  1000   002C6A  6F9E               	movwf	printf@ap& (0+255),b
  1001   002C6C                     
  1002                           ; BSR set to: 0
  1003   002C6C  0E00               	movlw	0
  1004   002C6E  6F98               	movwf	vfprintf@fp& (0+255),b
  1005   002C70  0E00               	movlw	0
  1006   002C72  6F99               	movwf	(vfprintf@fp+1)& (0+255),b
  1007   002C74  C09D  F09A         	movff	printf@fmt,vfprintf@fmt
  1008   002C78  0E9E               	movlw	low printf@ap
  1009   002C7A  6F9B               	movwf	vfprintf@ap& (0+255),b
  1010   002C7C  EC14  F015         	call	_vfprintf	;wreg free
  1011   002C80  0012               	return		;funcret
  1012   002C82                     __end_of_printf:
  1013                           	callstack 0
  1014                           
  1015 ;; *************** function _vfprintf *****************
  1016 ;; Defined at:
  1017 ;;		line 1817 in file "C:\Program Files\Microchip\xc8\v2.46\pic\sources\c99\common\doprnt.c"
  1018 ;; Parameters:    Size  Location     Type
  1019 ;;  fp              2   16[BANK0 ] PTR struct _IO_FILE
  1020 ;;		 -> NULL(0), 
  1021 ;;  fmt             1   18[BANK0 ] PTR const unsigned char 
  1022 ;;		 -> STR_7(21), STR_6(15), STR_4(14), STR_2(49), 
  1023 ;;		 -> STR_1(72), 
  1024 ;;  ap              1   19[BANK0 ] PTR PTR void 
  1025 ;;		 -> printf@ap(1), 
  1026 ;; Auto vars:     Size  Location     Type
  1027 ;;  cfmt            1   20[BANK0 ] PTR unsigned char 
  1028 ;;		 -> STR_7(21), STR_6(15), STR_4(14), STR_2(49), 
  1029 ;;		 -> STR_1(72), 
  1030 ;; Return value:  Size  Location     Type
  1031 ;;                  2   16[BANK0 ] int 
  1032 ;; Registers used:
  1033 ;;		wreg, fsr1l, fsr1h, fsr2l, fsr2h, status,2, status,0, tblptrl, tblptrh, tblptru, cstack
  1034 ;; Tracked objects:
  1035 ;;		On entry : 0/0
  1036 ;;		On exit  : 0/0
  1037 ;;		Unchanged: 0/0
  1038 ;; Data sizes:     COMRAM   BANK0   BANK1   BANK2   BANK3   BANK4   BANK5   BANK6   BANK7   BANK8   BANK9  BANK10  BANK1
      +1  BANK12  BANK13  BANK14  BANK15  BANK16  BANK17  BANK18  BANK19  BANK20  BANK21  BANK22  BANK23  BANK24  BANK25  BANK2
      +6  BANK27  BANK28  BANK29  BANK30  BANK31
  1039 ;;      Params:         0       4       0       0       0       0       0       0       0       0       0       0       
      +0       0       0       0       0       0       0       0       0       0       0       0       0       0       0       
      +0       0       0       0       0       0
  1040 ;;      Locals:         0       1       0       0       0       0       0       0       0       0       0       0       
      +0       0       0       0       0       0       0       0       0       0       0       0       0       0       0       
      +0       0       0       0       0       0
  1041 ;;      Temps:          0       0       0       0       0       0       0       0       0       0       0       0       
      +0       0       0       0       0       0       0       0       0       0       0       0       0       0       0       
      +0       0       0       0       0       0
  1042 ;;      Totals:         0       5       0       0       0       0       0       0       0       0       0       0       
      +0       0       0       0       0       0       0       0       0       0       0       0       0       0       0       
      +0       0       0       0       0       0
  1043 ;;Total ram usage:        5 bytes
  1044 ;; Hardware stack levels used: 1
  1045 ;; Hardware stack levels required when called: 14
  1046 ;; This function calls:
  1047 ;;		_vfpfcnvrt
  1048 ;; This function is called by:
  1049 ;;		_printf
  1050 ;; This function uses a non-reentrant model
  1051 ;;
  1052                           
  1053                           	psect	text2
  1054   002A28                     __ptext2:
  1055                           	callstack 0
  1056   002A28                     _vfprintf:
  1057                           	callstack 15
  1058   002A28                     
  1059                           ;C:\Program Files\Microchip\xc8\v2.46\pic\sources\c99\common\doprnt.c: 1817: int vfprint
      +                          f(FILE *fp, const char *fmt, va_list ap);C:\Program Files\Microchip\xc8\v2.46\pic\source
      +                          s\c99\common\doprnt.c: 1818: {;C:\Program Files\Microchip\xc8\v2.46\pic\sources\c99\comm
      +                          on\doprnt.c: 1820:     char *cfmt;;C:\Program Files\Microchip\xc8\v2.46\pic\sources\c99\
      +                          common\doprnt.c: 1822:     cfmt = (char *)fmt;
  1060   002A28  C09A  F09C         	movff	vfprintf@fmt,vfprintf@cfmt
  1061                           
  1062                           ;C:\Program Files\Microchip\xc8\v2.46\pic\sources\c99\common\doprnt.c: 1826:     while (
      +                          *cfmt) {
  1063   002A2C  EF23  F015         	goto	l2486
  1064   002A30                     l2484:
  1065                           
  1066                           ;C:\Program Files\Microchip\xc8\v2.46\pic\sources\c99\common\doprnt.c: 1830:    vfpfcnvr
      +                          t(fp, &cfmt, ap);
  1067   002A30  C098  F094         	movff	vfprintf@fp,vfpfcnvrt@fp
  1068   002A34  C099  F095         	movff	vfprintf@fp+1,vfpfcnvrt@fp+1
  1069   002A38  0E9C               	movlw	low vfprintf@cfmt
  1070   002A3A  0100               	movlb	0	; () banked
  1071   002A3C  6F96               	movwf	vfpfcnvrt@fmt& (0+255),b
  1072   002A3E  C09B  F097         	movff	vfprintf@ap,vfpfcnvrt@ap
  1073   002A42  EC76  F013         	call	_vfpfcnvrt	;wreg free
  1074   002A46                     l2486:
  1075                           
  1076                           ;C:\Program Files\Microchip\xc8\v2.46\pic\sources\c99\common\doprnt.c: 1826:     while (
      +                          *cfmt) {
  1077   002A46  0060  F273  FFF6   	movff	vfprintf@cfmt,tblptrl
  1078   002A4C                     	if	1	;There is more than 1 active tblptr byte
  1079   002A4C  0E20               	movlw	high __smallconst
  1080   002A4E  6EF7               	movwf	tblptrh,c
  1081   002A50                     	endif
  1082   002A50                     	if	0	;tblptru may be non-zero
  1083   002A50                     	endif
  1084   002A50                     	if	1	;Program memory is > 0xFFFF, there are 3 active tblptr bytes
  1085   002A50  0E00               	movlw	low (__smallconst shr (0+16))
  1086   002A52  6EF8               	movwf	tblptru,c
  1087   002A54                     	endif
  1088   002A54  0008               	tblrd		*
  1089   002A56  50F5               	movf	tablat,w,c
  1090   002A58  0900               	iorlw	0
  1091   002A5A  A4D8               	btfss	status,2,c
  1092   002A5C  EF32  F015         	goto	u1561
  1093   002A60  EF34  F015         	goto	u1560
  1094   002A64                     u1561:
  1095   002A64  EF18  F015         	goto	l2484
  1096   002A68                     u1560:
  1097   002A68                     
  1098                           ;C:\Program Files\Microchip\xc8\v2.46\pic\sources\c99\common\doprnt.c: 1835:  return 0;
  1099   002A68  0E00               	movlw	0
  1100   002A6A  0100               	movlb	0	; () banked
  1101   002A6C  6F99               	movwf	(?_vfprintf+1)& (0+255),b
  1102   002A6E  0E00               	movlw	0
  1103   002A70  6F98               	movwf	?_vfprintf& (0+255),b
  1104   002A72                     
  1105                           ; BSR set to: 0
  1106   002A72  0012               	return		;funcret
  1107   002A74                     __end_of_vfprintf:
  1108                           	callstack 0
  1109                           
  1110 ;; *************** function _vfpfcnvrt *****************
  1111 ;; Defined at:
  1112 ;;		line 1177 in file "C:\Program Files\Microchip\xc8\v2.46\pic\sources\c99\common\doprnt.c"
  1113 ;; Parameters:    Size  Location     Type
  1114 ;;  fp              2   12[BANK0 ] PTR struct _IO_FILE
  1115 ;;		 -> NULL(0), 
  1116 ;;  fmt             1   14[BANK0 ] PTR PTR unsigned char 
  1117 ;;		 -> vfprintf@cfmt(1), 
  1118 ;;  ap              1   15[BANK0 ] PTR PTR void 
  1119 ;;		 -> printf@ap(1), 
  1120 ;; Auto vars:     Size  Location     Type
  1121 ;;  cp              3    0        PTR unsigned char 
  1122 ;;  done            1    0        _Bool 
  1123 ;;  c               1    0        unsigned char 
  1124 ;; Return value:  Size  Location     Type
  1125 ;;                  1    wreg      void 
  1126 ;; Registers used:
  1127 ;;		wreg, fsr1l, fsr1h, fsr2l, fsr2h, status,2, status,0, tblptrl, tblptrh, tblptru, cstack
  1128 ;; Tracked objects:
  1129 ;;		On entry : 0/0
  1130 ;;		On exit  : 0/0
  1131 ;;		Unchanged: 0/0
  1132 ;; Data sizes:     COMRAM   BANK0   BANK1   BANK2   BANK3   BANK4   BANK5   BANK6   BANK7   BANK8   BANK9  BANK10  BANK1
      +1  BANK12  BANK13  BANK14  BANK15  BANK16  BANK17  BANK18  BANK19  BANK20  BANK21  BANK22  BANK23  BANK24  BANK25  BANK2
      +6  BANK27  BANK28  BANK29  BANK30  BANK31
  1133 ;;      Params:         0       4       0       0       0       0       0       0       0       0       0       0       
      +0       0       0       0       0       0       0       0       0       0       0       0       0       0       0       
      +0       0       0       0       0       0
  1134 ;;      Locals:         0       0       0       0       0       0       0       0       0       0       0       0       
      +0       0       0       0       0       0       0       0       0       0       0       0       0       0       0       
      +0       0       0       0       0       0
  1135 ;;      Temps:          0       0       0       0       0       0       0       0       0       0       0       0       
      +0       0       0       0       0       0       0       0       0       0       0       0       0       0       0       
      +0       0       0       0       0       0
  1136 ;;      Totals:         0       4       0       0       0       0       0       0       0       0       0       0       
      +0       0       0       0       0       0       0       0       0       0       0       0       0       0       0       
      +0       0       0       0       0       0
  1137 ;;Total ram usage:        4 bytes
  1138 ;; Hardware stack levels used: 1
  1139 ;; Hardware stack levels required when called: 13
  1140 ;; This function calls:
  1141 ;;		_fputc
  1142 ;; This function is called by:
  1143 ;;		_vfprintf
  1144 ;; This function uses a non-reentrant model
  1145 ;;
  1146                           
  1147                           	psect	text3
  1148   0026EC                     __ptext3:
  1149                           	callstack 0
  1150   0026EC                     _vfpfcnvrt:
  1151                           	callstack 15
  1152   0026EC                     
  1153                           ;C:\Program Files\Microchip\xc8\v2.46\pic\sources\c99\common\doprnt.c: 1177: vfpfcnvrt(F
      +                          ILE *fp, char *fmt[], va_list ap);C:\Program Files\Microchip\xc8\v2.46\pic\sources\c99\c
      +                          ommon\doprnt.c: 1178: {;C:\Program Files\Microchip\xc8\v2.46\pic\sources\c99\common\dopr
      +                          nt.c: 1179:     char c, *cp;;C:\Program Files\Microchip\xc8\v2.46\pic\sources\c99\common
      +                          \doprnt.c: 1180:     _Bool done;;C:\Program Files\Microchip\xc8\v2.46\pic\sources\c99\co
      +                          mmon\doprnt.c: 1201:     if ((*fmt)[0] == '%') {
  1154   0026EC  0100               	movlb	0	; () banked
  1155   0026EE  5196               	movf	vfpfcnvrt@fmt& (0+255),w,b
  1156   0026F0  6ED9               	movwf	fsr2l,c
  1157   0026F2  6ADA               	clrf	fsr2h,c
  1158   0026F4  006F FF7F FFF6     	movff	indf2,tblptrl
  1159   0026FA                     	if	1	;There is more than 1 active tblptr byte
  1160   0026FA  0E20               	movlw	high __smallconst
  1161   0026FC  6EF7               	movwf	tblptrh,c
  1162   0026FE                     	endif
  1163   0026FE                     	if	0	;tblptru may be non-zero
  1164   0026FE                     	endif
  1165   0026FE                     	if	1	;Program memory is > 0xFFFF, there are 3 active tblptr bytes
  1166   0026FE  0E00               	movlw	low (__smallconst shr (0+16))
  1167   002700  6EF8               	movwf	tblptru,c
  1168   002702                     	endif
  1169   002702  0008               	tblrd		*
  1170   002704  50F5               	movf	tablat,w,c
  1171   002706  0A25               	xorlw	37
  1172   002708  A4D8               	btfss	status,2,c
  1173   00270A  EF89  F013         	goto	u1481
  1174   00270E  EF8B  F013         	goto	u1480
  1175   002712                     u1481:
  1176   002712  EF9E  F013         	goto	l2356
  1177   002716                     u1480:
  1178   002716                     
  1179                           ; BSR set to: 0
  1180                           ;C:\Program Files\Microchip\xc8\v2.46\pic\sources\c99\common\doprnt.c: 1202:         ++*
      +                          fmt;
  1181   002716  5196               	movf	vfpfcnvrt@fmt& (0+255),w,b
  1182   002718  6ED9               	movwf	fsr2l,c
  1183   00271A  6ADA               	clrf	fsr2h,c
  1184   00271C  2ADF               	incf	indf2,f,c
  1185   00271E                     
  1186                           ; BSR set to: 0
  1187                           ;C:\Program Files\Microchip\xc8\v2.46\pic\sources\c99\common\doprnt.c: 1204:         fla
      +                          gs = width = 0;
  1188   00271E  0E00               	movlw	0
  1189   002720  6E1A               	movwf	(_width+1)^0,c
  1190   002722  0E00               	movlw	0
  1191   002724  6E19               	movwf	_width^0,c
  1192   002726  C019  F01F         	movff	_width,_flags
  1193   00272A                     
  1194                           ; BSR set to: 0
  1195                           ;C:\Program Files\Microchip\xc8\v2.46\pic\sources\c99\common\doprnt.c: 1205:         pre
      +                          c = -1;
  1196   00272A  681B               	setf	_prec^0,c
  1197   00272C  681C               	setf	(_prec+1)^0,c
  1198   00272E                     l2352:
  1199                           
  1200                           ;C:\Program Files\Microchip\xc8\v2.46\pic\sources\c99\common\doprnt.c: 1806:         ++*
      +                          fmt;
  1201   00272E  0100               	movlb	0	; () banked
  1202   002730  5196               	movf	vfpfcnvrt@fmt& (0+255),w,b
  1203   002732  6ED9               	movwf	fsr2l,c
  1204   002734  6ADA               	clrf	fsr2h,c
  1205   002736  2ADF               	incf	indf2,f,c
  1206   002738  EFB4  F013         	goto	l1258
  1207   00273C                     l2356:
  1208                           
  1209                           ; BSR set to: 0
  1210                           ;C:\Program Files\Microchip\xc8\v2.46\pic\sources\c99\common\doprnt.c: 1811:     fputc((
      +                          int)(*fmt)[0], fp);
  1211   00273C  5196               	movf	vfpfcnvrt@fmt& (0+255),w,b
  1212   00273E  6ED9               	movwf	fsr2l,c
  1213   002740  6ADA               	clrf	fsr2h,c
  1214   002742  006F FF7F FFF6     	movff	indf2,tblptrl
  1215   002748                     	if	1	;There is more than 1 active tblptr byte
  1216   002748  0E20               	movlw	high __smallconst
  1217   00274A  6EF7               	movwf	tblptrh,c
  1218   00274C                     	endif
  1219   00274C                     	if	0	;tblptru may be non-zero
  1220   00274C                     	endif
  1221   00274C                     	if	1	;Program memory is > 0xFFFF, there are 3 active tblptr bytes
  1222   00274C  0E00               	movlw	low (__smallconst shr (0+16))
  1223   00274E  6EF8               	movwf	tblptru,c
  1224   002750                     	endif
  1225   002750  0008               	tblrd		*
  1226   002752  50F5               	movf	tablat,w,c
  1227   002754  6F8B               	movwf	fputc@c& (0+255),b
  1228   002756  6B8C               	clrf	(fputc@c+1)& (0+255),b
  1229   002758  C094  F08D         	movff	vfpfcnvrt@fp,fputc@fp
  1230   00275C  C095  F08E         	movff	vfpfcnvrt@fp+1,fputc@fp+1
  1231   002760  EC7C  F011         	call	_fputc	;wreg free
  1232   002764  EF97  F013         	goto	l2352
  1233   002768                     l1258:
  1234                           
  1235                           ; BSR set to: 0
  1236   002768  0012               	return		;funcret
  1237   00276A                     __end_of_vfpfcnvrt:
  1238                           	callstack 0
  1239                           
  1240 ;; *************** function _fputc *****************
  1241 ;; Defined at:
  1242 ;;		line 8 in file "C:\Program Files\Microchip\xc8\v2.46\pic\sources\c99\common\nf_fputc.c"
  1243 ;; Parameters:    Size  Location     Type
  1244 ;;  c               2    3[BANK0 ] int 
  1245 ;;  fp              2    5[BANK0 ] PTR struct _IO_FILE
  1246 ;;		 -> NULL(0), 
  1247 ;; Auto vars:     Size  Location     Type
  1248 ;;		None
  1249 ;; Return value:  Size  Location     Type
  1250 ;;                  2    3[BANK0 ] int 
  1251 ;; Registers used:
  1252 ;;		wreg, fsr1l, fsr1h, fsr2l, fsr2h, status,2, status,0, cstack
  1253 ;; Tracked objects:
  1254 ;;		On entry : 0/0
  1255 ;;		On exit  : 0/0
  1256 ;;		Unchanged: 0/0
  1257 ;; Data sizes:     COMRAM   BANK0   BANK1   BANK2   BANK3   BANK4   BANK5   BANK6   BANK7   BANK8   BANK9  BANK10  BANK1
      +1  BANK12  BANK13  BANK14  BANK15  BANK16  BANK17  BANK18  BANK19  BANK20  BANK21  BANK22  BANK23  BANK24  BANK25  BANK2
      +6  BANK27  BANK28  BANK29  BANK30  BANK31
  1258 ;;      Params:         0       4       0       0       0       0       0       0       0       0       0       0       
      +0       0       0       0       0       0       0       0       0       0       0       0       0       0       0       
      +0       0       0       0       0       0
  1259 ;;      Locals:         0       0       0       0       0       0       0       0       0       0       0       0       
      +0       0       0       0       0       0       0       0       0       0       0       0       0       0       0       
      +0       0       0       0       0       0
  1260 ;;      Temps:          0       5       0       0       0       0       0       0       0       0       0       0       
      +0       0       0       0       0       0       0       0       0       0       0       0       0       0       0       
      +0       0       0       0       0       0
  1261 ;;      Totals:         0       9       0       0       0       0       0       0       0       0       0       0       
      +0       0       0       0       0       0       0       0       0       0       0       0       0       0       0       
      +0       0       0       0       0       0
  1262 ;;Total ram usage:        9 bytes
  1263 ;; Hardware stack levels used: 1
  1264 ;; Hardware stack levels required when called: 12
  1265 ;; This function calls:
  1266 ;;		_putch
  1267 ;; This function is called by:
  1268 ;;		_vfpfcnvrt
  1269 ;; This function uses a non-reentrant model
  1270 ;;
  1271                           
  1272                           	psect	text4
  1273   0022F8                     __ptext4:
  1274                           	callstack 0
  1275   0022F8                     _fputc:
  1276                           	callstack 15
  1277   0022F8  0100               	movlb	0	; () banked
  1278   0022FA  518D               	movf	fputc@fp& (0+255),w,b
  1279   0022FC  118E               	iorwf	(fputc@fp+1)& (0+255),w,b
  1280   0022FE  B4D8               	btfsc	status,2,c
  1281   002300  EF84  F011         	goto	u1391
  1282   002304  EF86  F011         	goto	u1390
  1283   002308                     u1391:
  1284   002308  EF8F  F011         	goto	l2300
  1285   00230C                     u1390:
  1286   00230C                     
  1287                           ; BSR set to: 0
  1288   00230C  518D               	movf	fputc@fp& (0+255),w,b
  1289   00230E  118E               	iorwf	(fputc@fp+1)& (0+255),w,b
  1290   002310  A4D8               	btfss	status,2,c
  1291   002312  EF8D  F011         	goto	u1401
  1292   002316  EF8F  F011         	goto	u1400
  1293   00231A                     u1401:
  1294   00231A  EF94  F011         	goto	l2302
  1295   00231E                     u1400:
  1296   00231E                     l2300:
  1297                           
  1298                           ; BSR set to: 0
  1299   00231E  518B               	movf	fputc@c& (0+255),w,b
  1300   002320  EC03  F016         	call	_putch
  1301   002324  EFE8  F011         	goto	l1276
  1302   002328                     l2302:
  1303                           
  1304                           ; BSR set to: 0
  1305   002328  EE20 F00A          	lfsr	2,10
  1306   00232C  518D               	movf	fputc@fp& (0+255),w,b
  1307   00232E  26D9               	addwf	fsr2l,f,c
  1308   002330  518E               	movf	(fputc@fp+1)& (0+255),w,b
  1309   002332  22DA               	addwfc	fsr2h,f,c
  1310   002334  50DE               	movf	postinc2,w,c
  1311   002336  10DE               	iorwf	postinc2,w,c
  1312   002338  B4D8               	btfsc	status,2,c
  1313   00233A  EFA1  F011         	goto	u1411
  1314   00233E  EFA3  F011         	goto	u1410
  1315   002342                     u1411:
  1316   002342  EFBE  F011         	goto	l2306
  1317   002346                     u1410:
  1318   002346                     
  1319                           ; BSR set to: 0
  1320   002346  EE20 F00A          	lfsr	2,10
  1321   00234A  518D               	movf	fputc@fp& (0+255),w,b
  1322   00234C  26D9               	addwf	fsr2l,f,c
  1323   00234E  518E               	movf	(fputc@fp+1)& (0+255),w,b
  1324   002350  22DA               	addwfc	fsr2h,f,c
  1325   002352  EE10 F003          	lfsr	1,3
  1326   002356  518D               	movf	fputc@fp& (0+255),w,b
  1327   002358  26E1               	addwf	fsr1l,f,c
  1328   00235A  518E               	movf	(fputc@fp+1)& (0+255),w,b
  1329   00235C  22E2               	addwfc	fsr1h,f,c
  1330   00235E  50DE               	movf	postinc2,w,c
  1331   002360  5CE6               	subwf	postinc1,w,c
  1332   002362  50E6               	movf	postinc1,w,c
  1333   002364  0A80               	xorlw	128
  1334   002366  6F93               	movwf	(??_fputc+4)& (0+255),b
  1335   002368  50DE               	movf	postinc2,w,c
  1336   00236A  0A80               	xorlw	128
  1337   00236C  5993               	subwfb	(??_fputc+4)& (0+255),w,b
  1338   00236E  B0D8               	btfsc	status,0,c
  1339   002370  EFBC  F011         	goto	u1421
  1340   002374  EFBE  F011         	goto	u1420
  1341   002378                     u1421:
  1342   002378  EFE8  F011         	goto	l1276
  1343   00237C                     u1420:
  1344   00237C                     l2306:
  1345                           
  1346                           ; BSR set to: 0
  1347   00237C  EE20 F003          	lfsr	2,3
  1348   002380  518D               	movf	fputc@fp& (0+255),w,b
  1349   002382  26D9               	addwf	fsr2l,f,c
  1350   002384  518E               	movf	(fputc@fp+1)& (0+255),w,b
  1351   002386  22DA               	addwfc	fsr2h,f,c
  1352   002388  006F FF78  F08F    	movff	postinc2,??_fputc
  1353   00238E  006F FF74  F090    	movff	postdec2,??_fputc+1
  1354   002394  0060  F237  FFD9   	movff	fputc@fp,fsr2l
  1355   00239A  0060  F23B  FFDA   	movff	fputc@fp+1,fsr2h
  1356   0023A0  006F FF78  F091    	movff	postinc2,??_fputc+2
  1357   0023A6  006F FF74  F092    	movff	postdec2,??_fputc+3
  1358   0023AC  518F               	movf	??_fputc& (0+255),w,b
  1359   0023AE  2591               	addwf	(??_fputc+2)& (0+255),w,b
  1360   0023B0  6ED9               	movwf	fsr2l,c
  1361   0023B2  5190               	movf	(??_fputc+1)& (0+255),w,b
  1362   0023B4  2192               	addwfc	(??_fputc+3)& (0+255),w,b
  1363   0023B6  6EDA               	movwf	fsr2h,c
  1364   0023B8  0060  F22F  FFDF   	movff	fputc@c,indf2
  1365   0023BE  EE20 F003          	lfsr	2,3
  1366   0023C2  518D               	movf	fputc@fp& (0+255),w,b
  1367   0023C4  26D9               	addwf	fsr2l,f,c
  1368   0023C6  518E               	movf	(fputc@fp+1)& (0+255),w,b
  1369   0023C8  22DA               	addwfc	fsr2h,f,c
  1370   0023CA  2ADE               	incf	postinc2,f,c
  1371   0023CC  0E00               	movlw	0
  1372   0023CE  22DD               	addwfc	postdec2,f,c
  1373   0023D0                     l1276:
  1374   0023D0  0012               	return		;funcret
  1375   0023D2                     __end_of_fputc:
  1376                           	callstack 0
  1377                           
  1378 ;; *************** function _putch *****************
  1379 ;; Defined at:
  1380 ;;		line 419 in file "mcc_generated_files/uart/src/uart2.c"
  1381 ;; Parameters:    Size  Location     Type
  1382 ;;  txData          1    wreg     unsigned char 
  1383 ;; Auto vars:     Size  Location     Type
  1384 ;;  txData          1    2[BANK0 ] unsigned char 
  1385 ;; Return value:  Size  Location     Type
  1386 ;;                  1    wreg      void 
  1387 ;; Registers used:
  1388 ;;		wreg, fsr2l, fsr2h, status,2, status,0, cstack
  1389 ;; Tracked objects:
  1390 ;;		On entry : 0/0
  1391 ;;		On exit  : 0/0
  1392 ;;		Unchanged: 0/0
  1393 ;; Data sizes:     COMRAM   BANK0   BANK1   BANK2   BANK3   BANK4   BANK5   BANK6   BANK7   BANK8   BANK9  BANK10  BANK1
      +1  BANK12  BANK13  BANK14  BANK15  BANK16  BANK17  BANK18  BANK19  BANK20  BANK21  BANK22  BANK23  BANK24  BANK25  BANK2
      +6  BANK27  BANK28  BANK29  BANK30  BANK31
  1394 ;;      Params:         0       0       0       0       0       0       0       0       0       0       0       0       
      +0       0       0       0       0       0       0       0       0       0       0       0       0       0       0       
      +0       0       0       0       0       0
  1395 ;;      Locals:         0       1       0       0       0       0       0       0       0       0       0       0       
      +0       0       0       0       0       0       0       0       0       0       0       0       0       0       0       
      +0       0       0       0       0       0
  1396 ;;      Temps:          0       0       0       0       0       0       0       0       0       0       0       0       
      +0       0       0       0       0       0       0       0       0       0       0       0       0       0       0       
      +0       0       0       0       0       0
  1397 ;;      Totals:         0       1       0       0       0       0       0       0       0       0       0       0       
      +0       0       0       0       0       0       0       0       0       0       0       0       0       0       0       
      +0       0       0       0       0       0
  1398 ;;Total ram usage:        1 bytes
  1399 ;; Hardware stack levels used: 1
  1400 ;; Hardware stack levels required when called: 11
  1401 ;; This function calls:
  1402 ;;		_UART2_IsTxReady
  1403 ;;		_UART2_Write
  1404 ;; This function is called by:
  1405 ;;		_fputc
  1406 ;; This function uses a non-reentrant model
  1407 ;;
  1408                           
  1409                           	psect	text5
  1410   002C06                     __ptext5:
  1411                           	callstack 0
  1412   002C06                     _putch:
  1413                           	callstack 15
  1414                           
  1415                           ;incstack = 0
  1416                           ;putch@txData stored from wreg
  1417   002C06  0100               	movlb	0	; () banked
  1418   002C08  6F8A               	movwf	putch@txData& (0+255),b
  1419   002C0A                     l2280:
  1420   002C0A  EC14  F016         	call	_UART2_IsTxReady	;wreg free
  1421   002C0E  0900               	iorlw	0
  1422   002C10  B4D8               	btfsc	status,2,c
  1423   002C12  EF0D  F016         	goto	u1371
  1424   002C16  EF0F  F016         	goto	u1370
  1425   002C1A                     u1371:
  1426   002C1A  EF05  F016         	goto	l2280
  1427   002C1E                     u1370:
  1428   002C1E                     
  1429                           ;mcc_generated_files/uart/src/uart2.c: 422:     return UART2_Write(txData);;	Return valu
      +                          e of _putch is never used
  1430   002C1E  0100               	movlb	0	; () banked
  1431   002C20  518A               	movf	putch@txData& (0+255),w,b
  1432   002C22  EC93  F014         	call	_UART2_Write
  1433   002C26  0012               	return		;funcret
  1434   002C28                     __end_of_putch:
  1435                           	callstack 0
  1436                           
  1437 ;; *************** function _UART2_Write *****************
  1438 ;; Defined at:
  1439 ;;		line 366 in file "mcc_generated_files/uart/src/uart2.c"
  1440 ;; Parameters:    Size  Location     Type
  1441 ;;  txData          1    wreg     unsigned char 
  1442 ;; Auto vars:     Size  Location     Type
  1443 ;;  txData          1    1[BANK0 ] unsigned char 
  1444 ;;  tempTxHead      1    0[BANK0 ] unsigned char 
  1445 ;; Return value:  Size  Location     Type
  1446 ;;                  1    wreg      void 
  1447 ;; Registers used:
  1448 ;;		wreg, fsr2l, fsr2h, status,2, status,0
  1449 ;; Tracked objects:
  1450 ;;		On entry : 0/0
  1451 ;;		On exit  : 0/0
  1452 ;;		Unchanged: 0/0
  1453 ;; Data sizes:     COMRAM   BANK0   BANK1   BANK2   BANK3   BANK4   BANK5   BANK6   BANK7   BANK8   BANK9  BANK10  BANK1
      +1  BANK12  BANK13  BANK14  BANK15  BANK16  BANK17  BANK18  BANK19  BANK20  BANK21  BANK22  BANK23  BANK24  BANK25  BANK2
      +6  BANK27  BANK28  BANK29  BANK30  BANK31
  1454 ;;      Params:         0       0       0       0       0       0       0       0       0       0       0       0       
      +0       0       0       0       0       0       0       0       0       0       0       0       0       0       0       
      +0       0       0       0       0       0
  1455 ;;      Locals:         0       2       0       0       0       0       0       0       0       0       0       0       
      +0       0       0       0       0       0       0       0       0       0       0       0       0       0       0       
      +0       0       0       0       0       0
  1456 ;;      Temps:          0       0       0       0       0       0       0       0       0       0       0       0       
      +0       0       0       0       0       0       0       0       0       0       0       0       0       0       0       
      +0       0       0       0       0       0
  1457 ;;      Totals:         0       2       0       0       0       0       0       0       0       0       0       0       
      +0       0       0       0       0       0       0       0       0       0       0       0       0       0       0       
      +0       0       0       0       0       0
  1458 ;;Total ram usage:        2 bytes
  1459 ;; Hardware stack levels used: 1
  1460 ;; Hardware stack levels required when called: 10
  1461 ;; This function calls:
  1462 ;;		Nothing
  1463 ;; This function is called by:
  1464 ;;		_putch
  1465 ;; This function uses a non-reentrant model
  1466 ;;
  1467                           
  1468                           	psect	text6
  1469   002926                     __ptext6:
  1470                           	callstack 0
  1471   002926                     _UART2_Write:
  1472                           	callstack 0
  1473   000000                     
  1474                           ;Skip over the trampoline to the duplicate function for level 2
  1475   002926  AED3               	btfss	211,7,c
  1476   002928  EF98  F014         	goto	_UART2_Write$intlevel0
  1477   00292C  EFEC  F014         	goto	i2_UART2_Write
  1478   002930                     _UART2_Write$intlevel0:
  1479                           	callstack 15
  1480                           
  1481                           ;incstack = 0
  1482                           ;UART2_Write@txData stored from wreg
  1483   002930  0100               	movlb	0	; () banked
  1484   002932  6F89               	movwf	UART2_Write@txData& (0+255),b
  1485   002934                     
  1486                           ;mcc_generated_files/uart/src/uart2.c: 366: void UART2_Write(uint8_t txData);mcc_generat
      +                          ed_files/uart/src/uart2.c: 367: {;mcc_generated_files/uart/src/uart2.c: 368:     uint8_t
      +                           tempTxHead;;mcc_generated_files/uart/src/uart2.c: 370:     if(0 == PIE6bits.U2TXIE)
  1487   002934  0139               	movlb	57	; () banked
  1488   002936  B796               	btfsc	150,3,b	;volatile
  1489   002938  EFA0  F014         	goto	u1341
  1490   00293C  EFA2  F014         	goto	u1340
  1491   002940                     u1341:
  1492   002940  EFA7  F014         	goto	l2248
  1493   002944                     u1340:
  1494   002944                     
  1495                           ; BSR set to: 57
  1496                           ;mcc_generated_files/uart/src/uart2.c: 371:     {;mcc_generated_files/uart/src/uart2.c: 
      +                          372:         U2TXB = txData;
  1497   002944  0060  F227  FDD2   	movff	UART2_Write@txData,15826	;volatile
  1498                           
  1499                           ;mcc_generated_files/uart/src/uart2.c: 373:     }
  1500   00294A  EFC1  F014         	goto	l446
  1501   00294E                     l2248:
  1502                           
  1503                           ; BSR set to: 57
  1504   00294E  5025               	movf	_uart2TxBufferRemaining^0,w,c	;volatile
  1505   002950  B4D8               	btfsc	status,2,c
  1506   002952  EFAD  F014         	goto	u1351
  1507   002956  EFAF  F014         	goto	u1350
  1508   00295A                     u1351:
  1509   00295A  EFC1  F014         	goto	l446
  1510   00295E                     u1350:
  1511   00295E                     
  1512                           ; BSR set to: 57
  1513                           ;mcc_generated_files/uart/src/uart2.c: 375:     {;mcc_generated_files/uart/src/uart2.c: 
      +                          376:        uart2TxBuffer[uart2TxHead] = txData;
  1514   00295E  0E80               	movlw	low _uart2TxBuffer
  1515   002960  2427               	addwf	_uart2TxHead^0,w,c	;volatile
  1516   002962  6ED9               	movwf	fsr2l,c
  1517   002964  6ADA               	clrf	fsr2h,c
  1518   002966  0E01               	movlw	high _uart2TxBuffer
  1519   002968  22DA               	addwfc	fsr2h,f,c
  1520   00296A  0060  F227  FFDF   	movff	UART2_Write@txData,indf2
  1521   002970                     
  1522                           ; BSR set to: 57
  1523                           ;mcc_generated_files/uart/src/uart2.c: 377:        tempTxHead = (uart2TxHead + 1) & ((12
      +                          8) - 1);
  1524   002970  2827               	incf	_uart2TxHead^0,w,c	;volatile
  1525   002972  0B7F               	andlw	127
  1526   002974  0100               	movlb	0	; () banked
  1527   002976  6F88               	movwf	UART2_Write@tempTxHead& (0+255),b
  1528   002978                     
  1529                           ; BSR set to: 0
  1530                           ;mcc_generated_files/uart/src/uart2.c: 379:        uart2TxHead = tempTxHead;
  1531   002978  C088  F027         	movff	UART2_Write@tempTxHead,_uart2TxHead	;volatile
  1532   00297C                     
  1533                           ; BSR set to: 0
  1534                           ;mcc_generated_files/uart/src/uart2.c: 380:        PIE6bits.U2TXIE = 0;
  1535   00297C  0139               	movlb	57	; () banked
  1536   00297E  9796               	bcf	150,3,b	;volatile
  1537   002980                     
  1538                           ; BSR set to: 57
  1539                           ;mcc_generated_files/uart/src/uart2.c: 381:        uart2TxBufferRemaining--;
  1540   002980  0625               	decf	_uart2TxBufferRemaining^0,f,c	;volatile
  1541   002982                     l446:
  1542                           
  1543                           ; BSR set to: 57
  1544                           ;mcc_generated_files/uart/src/uart2.c: 387:     PIE6bits.U2TXIE = 1;
  1545   002982  8796               	bsf	150,3,b	;volatile
  1546   002984                     
  1547                           ; BSR set to: 57
  1548   002984  0012               	return		;funcret
  1549   002986                     __end_of_UART2_Write:
  1550                           	callstack 0
  1551                           
  1552 ;; *************** function _UART2_IsTxReady *****************
  1553 ;; Defined at:
  1554 ;;		line 287 in file "mcc_generated_files/uart/src/uart2.c"
  1555 ;; Parameters:    Size  Location     Type
  1556 ;;		None
  1557 ;; Auto vars:     Size  Location     Type
  1558 ;;		None
  1559 ;; Return value:  Size  Location     Type
  1560 ;;                  1    wreg      _Bool 
  1561 ;; Registers used:
  1562 ;;		wreg, status,2
  1563 ;; Tracked objects:
  1564 ;;		On entry : 0/0
  1565 ;;		On exit  : 0/0
  1566 ;;		Unchanged: 0/0
  1567 ;; Data sizes:     COMRAM   BANK0   BANK1   BANK2   BANK3   BANK4   BANK5   BANK6   BANK7   BANK8   BANK9  BANK10  BANK1
      +1  BANK12  BANK13  BANK14  BANK15  BANK16  BANK17  BANK18  BANK19  BANK20  BANK21  BANK22  BANK23  BANK24  BANK25  BANK2
      +6  BANK27  BANK28  BANK29  BANK30  BANK31
  1568 ;;      Params:         0       0       0       0       0       0       0       0       0       0       0       0       
      +0       0       0       0       0       0       0       0       0       0       0       0       0       0       0       
      +0       0       0       0       0       0
  1569 ;;      Locals:         0       0       0       0       0       0       0       0       0       0       0       0       
      +0       0       0       0       0       0       0       0       0       0       0       0       0       0       0       
      +0       0       0       0       0       0
  1570 ;;      Temps:          0       0       0       0       0       0       0       0       0       0       0       0       
      +0       0       0       0       0       0       0       0       0       0       0       0       0       0       0       
      +0       0       0       0       0       0
  1571 ;;      Totals:         0       0       0       0       0       0       0       0       0       0       0       0       
      +0       0       0       0       0       0       0       0       0       0       0       0       0       0       0       
      +0       0       0       0       0       0
  1572 ;;Total ram usage:        0 bytes
  1573 ;; Hardware stack levels used: 1
  1574 ;; Hardware stack levels required when called: 10
  1575 ;; This function calls:
  1576 ;;		Nothing
  1577 ;; This function is called by:
  1578 ;;		_putch
  1579 ;; This function uses a non-reentrant model
  1580 ;;
  1581                           
  1582                           	psect	text7
  1583   002C28                     __ptext7:
  1584                           	callstack 0
  1585   002C28                     _UART2_IsTxReady:
  1586                           	callstack 0
  1587                           
  1588                           ; BSR set to: 57
  1589                           ;Skip over the trampoline to the duplicate function for level 2
  1590   002C28  AED3               	btfss	211,7,c
  1591   002C2A  EF19  F016         	goto	_UART2_IsTxReady$intlevel0
  1592   002C2E  EF5A  F016         	goto	i2_UART2_IsTxReady
  1593   002C32                     _UART2_IsTxReady$intlevel0:
  1594                           	callstack 15
  1595   002C32                     
  1596                           ;mcc_generated_files/uart/src/uart2.c: 289:     return (uart2TxBufferRemaining ? 1 : 0);
  1597   002C32  5025               	movf	_uart2TxBufferRemaining^0,w,c	;volatile
  1598   002C34  A4D8               	btfss	status,2,c
  1599   002C36  EF1F  F016         	goto	u1321
  1600   002C3A  EF22  F016         	goto	u1320
  1601   002C3E                     u1321:
  1602   002C3E  0E01               	movlw	1
  1603   002C40  EF23  F016         	goto	u1330
  1604   002C44                     u1320:
  1605   002C44  0E00               	movlw	0
  1606   002C46                     u1330:
  1607   002C46  0012               	return		;funcret
  1608   002C48                     __end_of_UART2_IsTxReady:
  1609                           	callstack 0
  1610                           
  1611 ;; *************** function _UART2_RxCompleteCallbackRegister *****************
  1612 ;; Defined at:
  1613 ;;		line 467 in file "mcc_generated_files/uart/src/uart2.c"
  1614 ;; Parameters:    Size  Location     Type
  1615 ;;  callbackHand    3    0[BANK0 ] PTR FTN()void 
  1616 ;;		 -> UART_ProcessCommand(1), 
  1617 ;; Auto vars:     Size  Location     Type
  1618 ;;		None
  1619 ;; Return value:  Size  Location     Type
  1620 ;;                  1    wreg      void 
  1621 ;; Registers used:
  1622 ;;		wreg, status,2, status,0
  1623 ;; Tracked objects:
  1624 ;;		On entry : 0/0
  1625 ;;		On exit  : 0/0
  1626 ;;		Unchanged: 0/0
  1627 ;; Data sizes:     COMRAM   BANK0   BANK1   BANK2   BANK3   BANK4   BANK5   BANK6   BANK7   BANK8   BANK9  BANK10  BANK1
      +1  BANK12  BANK13  BANK14  BANK15  BANK16  BANK17  BANK18  BANK19  BANK20  BANK21  BANK22  BANK23  BANK24  BANK25  BANK2
      +6  BANK27  BANK28  BANK29  BANK30  BANK31
  1628 ;;      Params:         0       3       0       0       0       0       0       0       0       0       0       0       
      +0       0       0       0       0       0       0       0       0       0       0       0       0       0       0       
      +0       0       0       0       0       0
  1629 ;;      Locals:         0       0       0       0       0       0       0       0       0       0       0       0       
      +0       0       0       0       0       0       0       0       0       0       0       0       0       0       0       
      +0       0       0       0       0       0
  1630 ;;      Temps:          0       0       0       0       0       0       0       0       0       0       0       0       
      +0       0       0       0       0       0       0       0       0       0       0       0       0       0       0       
      +0       0       0       0       0       0
  1631 ;;      Totals:         0       3       0       0       0       0       0       0       0       0       0       0       
      +0       0       0       0       0       0       0       0       0       0       0       0       0       0       0       
      +0       0       0       0       0       0
  1632 ;;Total ram usage:        3 bytes
  1633 ;; Hardware stack levels used: 1
  1634 ;; Hardware stack levels required when called: 10
  1635 ;; This function calls:
  1636 ;;		Nothing
  1637 ;; This function is called by:
  1638 ;;		_main
  1639 ;; This function uses a non-reentrant model
  1640 ;;
  1641                           
  1642                           	psect	text8
  1643   002B76                     __ptext8:
  1644                           	callstack 0
  1645   002B76                     _UART2_RxCompleteCallbackRegister:
  1646                           	callstack 20
  1647   002B76                     
  1648                           ;mcc_generated_files/uart/src/uart2.c: 467: void UART2_RxCompleteCallbackRegister(void (
      +                          * callbackHandler)(void));mcc_generated_files/uart/src/uart2.c: 468: {;mcc_generated_fil
      +                          es/uart/src/uart2.c: 469:     if(((void*)0) != callbackHandler)
  1649   002B76  0100               	movlb	0	; () banked
  1650   002B78  5188               	movf	UART2_RxCompleteCallbackRegister@callbackHandler& (0+255),w,b
  1651   002B7A  1189               	iorwf	(UART2_RxCompleteCallbackRegister@callbackHandler+1)& (0+255),w,b
  1652   002B7C  118A               	iorwf	(UART2_RxCompleteCallbackRegister@callbackHandler+2)& (0+255),w,b
  1653   002B7E  B4D8               	btfsc	status,2,c
  1654   002B80  EFC4  F015         	goto	u1661
  1655   002B84  EFC6  F015         	goto	u1660
  1656   002B88                     u1661:
  1657   002B88  EFCC  F015         	goto	l492
  1658   002B8C                     u1660:
  1659   002B8C                     
  1660                           ; BSR set to: 0
  1661                           ;mcc_generated_files/uart/src/uart2.c: 470:     {;mcc_generated_files/uart/src/uart2.c: 
      +                          471:        UART2_RxCompleteInterruptHandler = callbackHandler;
  1662   002B8C  C088  F001         	movff	UART2_RxCompleteCallbackRegister@callbackHandler,_UART2_RxCompleteInterruptHandle
      +                          r
  1663   002B90  C089  F002         	movff	UART2_RxCompleteCallbackRegister@callbackHandler+1,_UART2_RxCompleteInterruptHand
      +                          ler+1
  1664   002B94  C08A  F003         	movff	UART2_RxCompleteCallbackRegister@callbackHandler+2,_UART2_RxCompleteInterruptHand
      +                          ler+2
  1665   002B98                     l492:
  1666                           
  1667                           ; BSR set to: 0
  1668   002B98  0012               	return		;funcret
  1669   002B9A                     __end_of_UART2_RxCompleteCallbackRegister:
  1670                           	callstack 0
  1671                           
  1672 ;; *************** function _SYSTEM_Initialize *****************
  1673 ;; Defined at:
  1674 ;;		line 40 in file "mcc_generated_files/system/src/system.c"
  1675 ;; Parameters:    Size  Location     Type
  1676 ;;		None
  1677 ;; Auto vars:     Size  Location     Type
  1678 ;;		None
  1679 ;; Return value:  Size  Location     Type
  1680 ;;                  1    wreg      void 
  1681 ;; Registers used:
  1682 ;;		wreg, status,2, status,0, cstack
  1683 ;; Tracked objects:
  1684 ;;		On entry : 0/0
  1685 ;;		On exit  : 0/0
  1686 ;;		Unchanged: 0/0
  1687 ;; Data sizes:     COMRAM   BANK0   BANK1   BANK2   BANK3   BANK4   BANK5   BANK6   BANK7   BANK8   BANK9  BANK10  BANK1
      +1  BANK12  BANK13  BANK14  BANK15  BANK16  BANK17  BANK18  BANK19  BANK20  BANK21  BANK22  BANK23  BANK24  BANK25  BANK2
      +6  BANK27  BANK28  BANK29  BANK30  BANK31
  1688 ;;      Params:         0       0       0       0       0       0       0       0       0       0       0       0       
      +0       0       0       0       0       0       0       0       0       0       0       0       0       0       0       
      +0       0       0       0       0       0
  1689 ;;      Locals:         0       0       0       0       0       0       0       0       0       0       0       0       
      +0       0       0       0       0       0       0       0       0       0       0       0       0       0       0       
      +0       0       0       0       0       0
  1690 ;;      Temps:          0       0       0       0       0       0       0       0       0       0       0       0       
      +0       0       0       0       0       0       0       0       0       0       0       0       0       0       0       
      +0       0       0       0       0       0
  1691 ;;      Totals:         0       0       0       0       0       0       0       0       0       0       0       0       
      +0       0       0       0       0       0       0       0       0       0       0       0       0       0       0       
      +0       0       0       0       0       0
  1692 ;;Total ram usage:        0 bytes
  1693 ;; Hardware stack levels used: 1
  1694 ;; Hardware stack levels required when called: 12
  1695 ;; This function calls:
  1696 ;;		_CLOCK_Initialize
  1697 ;;		_INTERRUPT_Initialize
  1698 ;;		_PIN_MANAGER_Initialize
  1699 ;;		_UART2_Initialize
  1700 ;; This function is called by:
  1701 ;;		_main
  1702 ;; This function uses a non-reentrant model
  1703 ;;
  1704                           
  1705                           	psect	text9
  1706   002CE0                     __ptext9:
  1707                           	callstack 0
  1708   002CE0                     _SYSTEM_Initialize:
  1709                           	callstack 18
  1710   002CE0                     
  1711                           ;mcc_generated_files/system/src/system.c: 42:     CLOCK_Initialize();
  1712   002CE0  EC4E  F016         	call	_CLOCK_Initialize	;wreg free
  1713                           
  1714                           ;mcc_generated_files/system/src/system.c: 43:     PIN_MANAGER_Initialize();
  1715   002CE4  EC55  F012         	call	_PIN_MANAGER_Initialize	;wreg free
  1716   002CE8                     
  1717                           ;mcc_generated_files/system/src/system.c: 44:     UART2_Initialize();
  1718   002CE8  EC19  F013         	call	_UART2_Initialize	;wreg free
  1719   002CEC                     
  1720                           ;mcc_generated_files/system/src/system.c: 45:     INTERRUPT_Initialize();
  1721   002CEC  EC3A  F015         	call	_INTERRUPT_Initialize	;wreg free
  1722   002CF0  0012               	return		;funcret
  1723   002CF2                     __end_of_SYSTEM_Initialize:
  1724                           	callstack 0
  1725                           
  1726 ;; *************** function _UART2_Initialize *****************
  1727 ;; Defined at:
  1728 ;;		line 118 in file "mcc_generated_files/uart/src/uart2.c"
  1729 ;; Parameters:    Size  Location     Type
  1730 ;;		None
  1731 ;; Auto vars:     Size  Location     Type
  1732 ;;		None
  1733 ;; Return value:  Size  Location     Type
  1734 ;;                  1    wreg      void 
  1735 ;; Registers used:
  1736 ;;		wreg, status,2, status,0, cstack
  1737 ;; Tracked objects:
  1738 ;;		On entry : 0/0
  1739 ;;		On exit  : 0/0
  1740 ;;		Unchanged: 0/0
  1741 ;; Data sizes:     COMRAM   BANK0   BANK1   BANK2   BANK3   BANK4   BANK5   BANK6   BANK7   BANK8   BANK9  BANK10  BANK1
      +1  BANK12  BANK13  BANK14  BANK15  BANK16  BANK17  BANK18  BANK19  BANK20  BANK21  BANK22  BANK23  BANK24  BANK25  BANK2
      +6  BANK27  BANK28  BANK29  BANK30  BANK31
  1742 ;;      Params:         0       0       0       0       0       0       0       0       0       0       0       0       
      +0       0       0       0       0       0       0       0       0       0       0       0       0       0       0       
      +0       0       0       0       0       0
  1743 ;;      Locals:         0       0       0       0       0       0       0       0       0       0       0       0       
      +0       0       0       0       0       0       0       0       0       0       0       0       0       0       0       
      +0       0       0       0       0       0
  1744 ;;      Temps:          0       0       0       0       0       0       0       0       0       0       0       0       
      +0       0       0       0       0       0       0       0       0       0       0       0       0       0       0       
      +0       0       0       0       0       0
  1745 ;;      Totals:         0       0       0       0       0       0       0       0       0       0       0       0       
      +0       0       0       0       0       0       0       0       0       0       0       0       0       0       0       
      +0       0       0       0       0       0
  1746 ;;Total ram usage:        0 bytes
  1747 ;; Hardware stack levels used: 1
  1748 ;; Hardware stack levels required when called: 11
  1749 ;; This function calls:
  1750 ;;		_UART2_FramingErrorCallbackRegister
  1751 ;;		_UART2_OverrunErrorCallbackRegister
  1752 ;;		_UART2_ParityErrorCallbackRegister
  1753 ;; This function is called by:
  1754 ;;		_SYSTEM_Initialize
  1755 ;;		_main
  1756 ;; This function uses a non-reentrant model
  1757 ;;
  1758                           
  1759                           	psect	text10
  1760   002632                     __ptext10:
  1761                           	callstack 0
  1762   002632                     _UART2_Initialize:
  1763                           	callstack 19
  1764   002632                     
  1765                           ;mcc_generated_files/uart/src/uart2.c: 120:     PIE6bits.U2RXIE = 0;
  1766   002632  0139               	movlb	57	; () banked
  1767   002634  9596               	bcf	150,2,b	;volatile
  1768   002636                     
  1769                           ; BSR set to: 57
  1770                           ;mcc_generated_files/uart/src/uart2.c: 121:     UART2_RxInterruptHandler = UART2_Receive
      +                          ISR;
  1771   002636  0EFA               	movlw	low _UART2_ReceiveISR
  1772   002638  0100               	movlb	0	; () banked
  1773   00263A  6F9F               	movwf	_UART2_RxInterruptHandler& (0+255),b
  1774   00263C  0E20               	movlw	high _UART2_ReceiveISR
  1775   00263E  6FA0               	movwf	(_UART2_RxInterruptHandler+1)& (0+255),b
  1776   002640  0E00               	movlw	low (_UART2_ReceiveISR shr (0+16))
  1777   002642  6FA1               	movwf	(_UART2_RxInterruptHandler+2)& (0+255),b
  1778   002644                     
  1779                           ; BSR set to: 0
  1780                           ;mcc_generated_files/uart/src/uart2.c: 122:     PIE6bits.U2TXIE = 0;
  1781   002644  0139               	movlb	57	; () banked
  1782   002646  9796               	bcf	150,3,b	;volatile
  1783                           
  1784                           ;mcc_generated_files/uart/src/uart2.c: 123:     UART2_TxInterruptHandler = UART2_Transmi
      +                          tISR;
  1785   002648  0E08               	movlw	low _UART2_TransmitISR
  1786   00264A  0100               	movlb	0	; () banked
  1787   00264C  6FA2               	movwf	_UART2_TxInterruptHandler& (0+255),b
  1788   00264E  0E2B               	movlw	high _UART2_TransmitISR
  1789   002650  6FA3               	movwf	(_UART2_TxInterruptHandler+1)& (0+255),b
  1790   002652  0E00               	movlw	low (_UART2_TransmitISR shr (0+16))
  1791   002654  6FA4               	movwf	(_UART2_TxInterruptHandler+2)& (0+255),b
  1792   002656                     
  1793                           ; BSR set to: 0
  1794                           ;mcc_generated_files/uart/src/uart2.c: 128:     U2RXB = 0x0;
  1795   002656  0E00               	movlw	0
  1796   002658  013D               	movlb	61	; () banked
  1797   00265A  6FD0               	movwf	208,b	;volatile
  1798   00265C                     
  1799                           ; BSR set to: 61
  1800                           ;mcc_generated_files/uart/src/uart2.c: 130:     U2TXB = 0x0;
  1801   00265C  0E00               	movlw	0
  1802   00265E  6FD2               	movwf	210,b	;volatile
  1803   002660                     
  1804                           ; BSR set to: 61
  1805                           ;mcc_generated_files/uart/src/uart2.c: 132:     U2P1L = 0x0;
  1806   002660  0E00               	movlw	0
  1807   002662  6FD4               	movwf	212,b	;volatile
  1808   002664                     
  1809                           ; BSR set to: 61
  1810                           ;mcc_generated_files/uart/src/uart2.c: 134:     U2P2L = 0x0;
  1811   002664  0E00               	movlw	0
  1812   002666  6FD6               	movwf	214,b	;volatile
  1813   002668                     
  1814                           ; BSR set to: 61
  1815                           ;mcc_generated_files/uart/src/uart2.c: 136:     U2P3L = 0x0;
  1816   002668  0E00               	movlw	0
  1817   00266A  6FD8               	movwf	216,b	;volatile
  1818   00266C                     
  1819                           ; BSR set to: 61
  1820                           ;mcc_generated_files/uart/src/uart2.c: 138:     U2CON0 = 0xB0;
  1821   00266C  0EB0               	movlw	176
  1822   00266E  6FDA               	movwf	218,b	;volatile
  1823   002670                     
  1824                           ; BSR set to: 61
  1825                           ;mcc_generated_files/uart/src/uart2.c: 140:     U2CON1 = 0x80;
  1826   002670  0E80               	movlw	128
  1827   002672  6FDB               	movwf	219,b	;volatile
  1828   002674                     
  1829                           ; BSR set to: 61
  1830                           ;mcc_generated_files/uart/src/uart2.c: 142:     U2CON2 = 0x0;
  1831   002674  0E00               	movlw	0
  1832   002676  6FDC               	movwf	220,b	;volatile
  1833   002678                     
  1834                           ; BSR set to: 61
  1835                           ;mcc_generated_files/uart/src/uart2.c: 144:     U2BRGL = 0x19;
  1836   002678  0E19               	movlw	25
  1837   00267A  6FDD               	movwf	221,b	;volatile
  1838   00267C                     
  1839                           ; BSR set to: 61
  1840                           ;mcc_generated_files/uart/src/uart2.c: 146:     U2BRGH = 0x0;
  1841   00267C  0E00               	movlw	0
  1842   00267E  6FDE               	movwf	222,b	;volatile
  1843   002680                     
  1844                           ; BSR set to: 61
  1845                           ;mcc_generated_files/uart/src/uart2.c: 148:     U2FIFO = 0x2E;
  1846   002680  0E2E               	movlw	46
  1847   002682  6FDF               	movwf	223,b	;volatile
  1848   002684                     
  1849                           ; BSR set to: 61
  1850                           ;mcc_generated_files/uart/src/uart2.c: 150:     U2UIR = 0x0;
  1851   002684  0E00               	movlw	0
  1852   002686  6FE0               	movwf	224,b	;volatile
  1853   002688                     
  1854                           ; BSR set to: 61
  1855                           ;mcc_generated_files/uart/src/uart2.c: 152:     U2ERRIR = 0x80;
  1856   002688  0E80               	movlw	128
  1857   00268A  6FE1               	movwf	225,b	;volatile
  1858   00268C                     
  1859                           ; BSR set to: 61
  1860                           ;mcc_generated_files/uart/src/uart2.c: 154:     U2ERRIE = 0x0;
  1861   00268C  0E00               	movlw	0
  1862   00268E  6FE2               	movwf	226,b	;volatile
  1863   002690                     
  1864                           ; BSR set to: 61
  1865                           ;mcc_generated_files/uart/src/uart2.c: 156:     UART2_FramingErrorCallbackRegister(UART2
      +                          _DefaultFramingErrorCallback);
  1866   002690  0E1E               	movlw	low _UART2_DefaultFramingErrorCallback
  1867   002692  0100               	movlb	0	; () banked
  1868   002694  6F88               	movwf	UART2_FramingErrorCallbackRegister@callbackHandler& (0+255),b
  1869   002696  0E2D               	movlw	high _UART2_DefaultFramingErrorCallback
  1870   002698  6F89               	movwf	(UART2_FramingErrorCallbackRegister@callbackHandler+1)& (0+255),b
  1871   00269A  0E00               	movlw	low (_UART2_DefaultFramingErrorCallback shr (0+16))
  1872   00269C  6F8A               	movwf	(UART2_FramingErrorCallbackRegister@callbackHandler+2)& (0+255),b
  1873   00269E  ECF1  F015         	call	_UART2_FramingErrorCallbackRegister	;wreg free
  1874   0026A2                     
  1875                           ;mcc_generated_files/uart/src/uart2.c: 157:     UART2_OverrunErrorCallbackRegister(UART2
      +                          _DefaultOverrunErrorCallback);
  1876   0026A2  0E1C               	movlw	low _UART2_DefaultOverrunErrorCallback
  1877   0026A4  0100               	movlb	0	; () banked
  1878   0026A6  6F88               	movwf	UART2_OverrunErrorCallbackRegister@callbackHandler& (0+255),b
  1879   0026A8  0E2D               	movlw	high _UART2_DefaultOverrunErrorCallback
  1880   0026AA  6F89               	movwf	(UART2_OverrunErrorCallbackRegister@callbackHandler+1)& (0+255),b
  1881   0026AC  0E00               	movlw	low (_UART2_DefaultOverrunErrorCallback shr (0+16))
  1882   0026AE  6F8A               	movwf	(UART2_OverrunErrorCallbackRegister@callbackHandler+2)& (0+255),b
  1883   0026B0  ECDF  F015         	call	_UART2_OverrunErrorCallbackRegister	;wreg free
  1884   0026B4                     
  1885                           ;mcc_generated_files/uart/src/uart2.c: 158:     UART2_ParityErrorCallbackRegister(UART2_
      +                          DefaultParityErrorCallback);
  1886   0026B4  0E00               	movlw	0
  1887   0026B6  0100               	movlb	0	; () banked
  1888   0026B8  6F88               	movwf	UART2_ParityErrorCallbackRegister@callbackHandler& (0+255),b
  1889   0026BA  0E00               	movlw	0
  1890   0026BC  6F89               	movwf	(UART2_ParityErrorCallbackRegister@callbackHandler+1)& (0+255),b
  1891   0026BE  0E00               	movlw	0
  1892   0026C0  6F8A               	movwf	(UART2_ParityErrorCallbackRegister@callbackHandler+2)& (0+255),b
  1893   0026C2  ECCD  F015         	call	_UART2_ParityErrorCallbackRegister	;wreg free
  1894   0026C6                     
  1895                           ;mcc_generated_files/uart/src/uart2.c: 160:     uart2RxLastError.status = 0;
  1896   0026C6  0E00               	movlw	0
  1897   0026C8  6E1E               	movwf	(_uart2RxLastError+1)^0,c	;volatile
  1898   0026CA  0E00               	movlw	0
  1899   0026CC  6E1D               	movwf	_uart2RxLastError^0,c	;volatile
  1900   0026CE                     
  1901                           ;mcc_generated_files/uart/src/uart2.c: 161:     uart2TxHead = 0;
  1902   0026CE  0E00               	movlw	0
  1903   0026D0  6E27               	movwf	_uart2TxHead^0,c	;volatile
  1904   0026D2                     
  1905                           ;mcc_generated_files/uart/src/uart2.c: 162:     uart2TxTail = 0;
  1906   0026D2  0E00               	movlw	0
  1907   0026D4  6E26               	movwf	_uart2TxTail^0,c	;volatile
  1908   0026D6                     
  1909                           ;mcc_generated_files/uart/src/uart2.c: 163:     uart2TxBufferRemaining = sizeof(uart2TxB
      +                          uffer);
  1910   0026D6  0E80               	movlw	128
  1911   0026D8  6E25               	movwf	_uart2TxBufferRemaining^0,c	;volatile
  1912   0026DA                     
  1913                           ;mcc_generated_files/uart/src/uart2.c: 164:     uart2RxHead = 0;
  1914   0026DA  0E00               	movlw	0
  1915   0026DC  6E24               	movwf	_uart2RxHead^0,c	;volatile
  1916   0026DE                     
  1917                           ;mcc_generated_files/uart/src/uart2.c: 165:     uart2RxTail = 0;
  1918   0026DE  0E00               	movlw	0
  1919   0026E0  6E23               	movwf	_uart2RxTail^0,c	;volatile
  1920   0026E2                     
  1921                           ;mcc_generated_files/uart/src/uart2.c: 166:     uart2RxCount = 0;
  1922   0026E2  0E00               	movlw	0
  1923   0026E4  6E22               	movwf	_uart2RxCount^0,c	;volatile
  1924   0026E6                     
  1925                           ;mcc_generated_files/uart/src/uart2.c: 167:     PIE6bits.U2RXIE = 1;
  1926   0026E6  0139               	movlb	57	; () banked
  1927   0026E8  8596               	bsf	150,2,b	;volatile
  1928   0026EA                     
  1929                           ; BSR set to: 57
  1930   0026EA  0012               	return		;funcret
  1931   0026EC                     __end_of_UART2_Initialize:
  1932                           	callstack 0
  1933                           
  1934 ;; *************** function _UART2_ParityErrorCallbackRegister *****************
  1935 ;; Defined at:
  1936 ;;		line 460 in file "mcc_generated_files/uart/src/uart2.c"
  1937 ;; Parameters:    Size  Location     Type
  1938 ;;  callbackHand    3    0[BANK0 ] PTR FTN()void 
  1939 ;;		 -> UART2_DefaultParityErrorCallback(1), 
  1940 ;; Auto vars:     Size  Location     Type
  1941 ;;		None
  1942 ;; Return value:  Size  Location     Type
  1943 ;;                  1    wreg      void 
  1944 ;; Registers used:
  1945 ;;		wreg, status,2, status,0
  1946 ;; Tracked objects:
  1947 ;;		On entry : 0/0
  1948 ;;		On exit  : 0/0
  1949 ;;		Unchanged: 0/0
  1950 ;; Data sizes:     COMRAM   BANK0   BANK1   BANK2   BANK3   BANK4   BANK5   BANK6   BANK7   BANK8   BANK9  BANK10  BANK1
      +1  BANK12  BANK13  BANK14  BANK15  BANK16  BANK17  BANK18  BANK19  BANK20  BANK21  BANK22  BANK23  BANK24  BANK25  BANK2
      +6  BANK27  BANK28  BANK29  BANK30  BANK31
  1951 ;;      Params:         0       3       0       0       0       0       0       0       0       0       0       0       
      +0       0       0       0       0       0       0       0       0       0       0       0       0       0       0       
      +0       0       0       0       0       0
  1952 ;;      Locals:         0       0       0       0       0       0       0       0       0       0       0       0       
      +0       0       0       0       0       0       0       0       0       0       0       0       0       0       0       
      +0       0       0       0       0       0
  1953 ;;      Temps:          0       0       0       0       0       0       0       0       0       0       0       0       
      +0       0       0       0       0       0       0       0       0       0       0       0       0       0       0       
      +0       0       0       0       0       0
  1954 ;;      Totals:         0       3       0       0       0       0       0       0       0       0       0       0       
      +0       0       0       0       0       0       0       0       0       0       0       0       0       0       0       
      +0       0       0       0       0       0
  1955 ;;Total ram usage:        3 bytes
  1956 ;; Hardware stack levels used: 1
  1957 ;; Hardware stack levels required when called: 10
  1958 ;; This function calls:
  1959 ;;		Nothing
  1960 ;; This function is called by:
  1961 ;;		_UART2_Initialize
  1962 ;; This function uses a non-reentrant model
  1963 ;;
  1964                           
  1965                           	psect	text11
  1966   002B9A                     __ptext11:
  1967                           	callstack 0
  1968   002B9A                     _UART2_ParityErrorCallbackRegister:
  1969                           	callstack 19
  1970   002B9A                     
  1971                           ;mcc_generated_files/uart/src/uart2.c: 460: void UART2_ParityErrorCallbackRegister(void 
      +                          (* callbackHandler)(void));mcc_generated_files/uart/src/uart2.c: 461: {;mcc_generated_fi
      +                          les/uart/src/uart2.c: 462:     if(((void*)0) != callbackHandler)
  1972   002B9A  0100               	movlb	0	; () banked
  1973   002B9C  5188               	movf	UART2_ParityErrorCallbackRegister@callbackHandler& (0+255),w,b
  1974   002B9E  1189               	iorwf	(UART2_ParityErrorCallbackRegister@callbackHandler+1)& (0+255),w,b
  1975   002BA0  118A               	iorwf	(UART2_ParityErrorCallbackRegister@callbackHandler+2)& (0+255),w,b
  1976   002BA2  B4D8               	btfsc	status,2,c
  1977   002BA4  EFD6  F015         	goto	u1451
  1978   002BA8  EFD8  F015         	goto	u1450
  1979   002BAC                     u1451:
  1980   002BAC  EFDE  F015         	goto	l488
  1981   002BB0                     u1450:
  1982   002BB0                     
  1983                           ; BSR set to: 0
  1984                           ;mcc_generated_files/uart/src/uart2.c: 463:     {;mcc_generated_files/uart/src/uart2.c: 
      +                          464:         UART2_ParityErrorHandler = callbackHandler;
  1985   002BB0  C088  F007         	movff	UART2_ParityErrorCallbackRegister@callbackHandler,_UART2_ParityErrorHandler
  1986   002BB4  C089  F008         	movff	UART2_ParityErrorCallbackRegister@callbackHandler+1,_UART2_ParityErrorHandler+1
  1987   002BB8  C08A  F009         	movff	UART2_ParityErrorCallbackRegister@callbackHandler+2,_UART2_ParityErrorHandler+2
  1988   002BBC                     l488:
  1989                           
  1990                           ; BSR set to: 0
  1991   002BBC  0012               	return		;funcret
  1992   002BBE                     __end_of_UART2_ParityErrorCallbackRegister:
  1993                           	callstack 0
  1994                           
  1995 ;; *************** function _UART2_OverrunErrorCallbackRegister *****************
  1996 ;; Defined at:
  1997 ;;		line 452 in file "mcc_generated_files/uart/src/uart2.c"
  1998 ;; Parameters:    Size  Location     Type
  1999 ;;  callbackHand    3    0[BANK0 ] PTR FTN()void 
  2000 ;;		 -> UART2_DefaultOverrunErrorCallback(1), 
  2001 ;; Auto vars:     Size  Location     Type
  2002 ;;		None
  2003 ;; Return value:  Size  Location     Type
  2004 ;;                  1    wreg      void 
  2005 ;; Registers used:
  2006 ;;		wreg, status,2, status,0
  2007 ;; Tracked objects:
  2008 ;;		On entry : 0/0
  2009 ;;		On exit  : 0/0
  2010 ;;		Unchanged: 0/0
  2011 ;; Data sizes:     COMRAM   BANK0   BANK1   BANK2   BANK3   BANK4   BANK5   BANK6   BANK7   BANK8   BANK9  BANK10  BANK1
      +1  BANK12  BANK13  BANK14  BANK15  BANK16  BANK17  BANK18  BANK19  BANK20  BANK21  BANK22  BANK23  BANK24  BANK25  BANK2
      +6  BANK27  BANK28  BANK29  BANK30  BANK31
  2012 ;;      Params:         0       3       0       0       0       0       0       0       0       0       0       0       
      +0       0       0       0       0       0       0       0       0       0       0       0       0       0       0       
      +0       0       0       0       0       0
  2013 ;;      Locals:         0       0       0       0       0       0       0       0       0       0       0       0       
      +0       0       0       0       0       0       0       0       0       0       0       0       0       0       0       
      +0       0       0       0       0       0
  2014 ;;      Temps:          0       0       0       0       0       0       0       0       0       0       0       0       
      +0       0       0       0       0       0       0       0       0       0       0       0       0       0       0       
      +0       0       0       0       0       0
  2015 ;;      Totals:         0       3       0       0       0       0       0       0       0       0       0       0       
      +0       0       0       0       0       0       0       0       0       0       0       0       0       0       0       
      +0       0       0       0       0       0
  2016 ;;Total ram usage:        3 bytes
  2017 ;; Hardware stack levels used: 1
  2018 ;; Hardware stack levels required when called: 10
  2019 ;; This function calls:
  2020 ;;		Nothing
  2021 ;; This function is called by:
  2022 ;;		_UART2_Initialize
  2023 ;; This function uses a non-reentrant model
  2024 ;;
  2025                           
  2026                           	psect	text12
  2027   002BBE                     __ptext12:
  2028                           	callstack 0
  2029   002BBE                     _UART2_OverrunErrorCallbackRegister:
  2030                           	callstack 19
  2031   002BBE                     
  2032                           ;mcc_generated_files/uart/src/uart2.c: 452: void UART2_OverrunErrorCallbackRegister(void
      +                           (* callbackHandler)(void));mcc_generated_files/uart/src/uart2.c: 453: {;mcc_generated_f
      +                          iles/uart/src/uart2.c: 454:     if(((void*)0) != callbackHandler)
  2033   002BBE  0100               	movlb	0	; () banked
  2034   002BC0  5188               	movf	UART2_OverrunErrorCallbackRegister@callbackHandler& (0+255),w,b
  2035   002BC2  1189               	iorwf	(UART2_OverrunErrorCallbackRegister@callbackHandler+1)& (0+255),w,b
  2036   002BC4  118A               	iorwf	(UART2_OverrunErrorCallbackRegister@callbackHandler+2)& (0+255),w,b
  2037   002BC6  B4D8               	btfsc	status,2,c
  2038   002BC8  EFE8  F015         	goto	u1441
  2039   002BCC  EFEA  F015         	goto	u1440
  2040   002BD0                     u1441:
  2041   002BD0  EFF0  F015         	goto	l484
  2042   002BD4                     u1440:
  2043   002BD4                     
  2044                           ; BSR set to: 0
  2045                           ;mcc_generated_files/uart/src/uart2.c: 455:     {;mcc_generated_files/uart/src/uart2.c: 
      +                          456:         UART2_OverrunErrorHandler = callbackHandler;
  2046   002BD4  C088  F00A         	movff	UART2_OverrunErrorCallbackRegister@callbackHandler,_UART2_OverrunErrorHandler
  2047   002BD8  C089  F00B         	movff	UART2_OverrunErrorCallbackRegister@callbackHandler+1,_UART2_OverrunErrorHandler+1
  2048   002BDC  C08A  F00C         	movff	UART2_OverrunErrorCallbackRegister@callbackHandler+2,_UART2_OverrunErrorHandler+2
  2049   002BE0                     l484:
  2050                           
  2051                           ; BSR set to: 0
  2052   002BE0  0012               	return		;funcret
  2053   002BE2                     __end_of_UART2_OverrunErrorCallbackRegister:
  2054                           	callstack 0
  2055                           
  2056 ;; *************** function _UART2_FramingErrorCallbackRegister *****************
  2057 ;; Defined at:
  2058 ;;		line 444 in file "mcc_generated_files/uart/src/uart2.c"
  2059 ;; Parameters:    Size  Location     Type
  2060 ;;  callbackHand    3    0[BANK0 ] PTR FTN()void 
  2061 ;;		 -> UART2_DefaultFramingErrorCallback(1), 
  2062 ;; Auto vars:     Size  Location     Type
  2063 ;;		None
  2064 ;; Return value:  Size  Location     Type
  2065 ;;                  1    wreg      void 
  2066 ;; Registers used:
  2067 ;;		wreg, status,2, status,0
  2068 ;; Tracked objects:
  2069 ;;		On entry : 0/0
  2070 ;;		On exit  : 0/0
  2071 ;;		Unchanged: 0/0
  2072 ;; Data sizes:     COMRAM   BANK0   BANK1   BANK2   BANK3   BANK4   BANK5   BANK6   BANK7   BANK8   BANK9  BANK10  BANK1
      +1  BANK12  BANK13  BANK14  BANK15  BANK16  BANK17  BANK18  BANK19  BANK20  BANK21  BANK22  BANK23  BANK24  BANK25  BANK2
      +6  BANK27  BANK28  BANK29  BANK30  BANK31
  2073 ;;      Params:         0       3       0       0       0       0       0       0       0       0       0       0       
      +0       0       0       0       0       0       0       0       0       0       0       0       0       0       0       
      +0       0       0       0       0       0
  2074 ;;      Locals:         0       0       0       0       0       0       0       0       0       0       0       0       
      +0       0       0       0       0       0       0       0       0       0       0       0       0       0       0       
      +0       0       0       0       0       0
  2075 ;;      Temps:          0       0       0       0       0       0       0       0       0       0       0       0       
      +0       0       0       0       0       0       0       0       0       0       0       0       0       0       0       
      +0       0       0       0       0       0
  2076 ;;      Totals:         0       3       0       0       0       0       0       0       0       0       0       0       
      +0       0       0       0       0       0       0       0       0       0       0       0       0       0       0       
      +0       0       0       0       0       0
  2077 ;;Total ram usage:        3 bytes
  2078 ;; Hardware stack levels used: 1
  2079 ;; Hardware stack levels required when called: 10
  2080 ;; This function calls:
  2081 ;;		Nothing
  2082 ;; This function is called by:
  2083 ;;		_UART2_Initialize
  2084 ;; This function uses a non-reentrant model
  2085 ;;
  2086                           
  2087                           	psect	text13
  2088   002BE2                     __ptext13:
  2089                           	callstack 0
  2090   002BE2                     _UART2_FramingErrorCallbackRegister:
  2091                           	callstack 19
  2092   002BE2                     
  2093                           ;mcc_generated_files/uart/src/uart2.c: 444: void UART2_FramingErrorCallbackRegister(void
      +                           (* callbackHandler)(void));mcc_generated_files/uart/src/uart2.c: 445: {;mcc_generated_f
      +                          iles/uart/src/uart2.c: 446:     if(((void*)0) != callbackHandler)
  2094   002BE2  0100               	movlb	0	; () banked
  2095   002BE4  5188               	movf	UART2_FramingErrorCallbackRegister@callbackHandler& (0+255),w,b
  2096   002BE6  1189               	iorwf	(UART2_FramingErrorCallbackRegister@callbackHandler+1)& (0+255),w,b
  2097   002BE8  118A               	iorwf	(UART2_FramingErrorCallbackRegister@callbackHandler+2)& (0+255),w,b
  2098   002BEA  B4D8               	btfsc	status,2,c
  2099   002BEC  EFFA  F015         	goto	u1431
  2100   002BF0  EFFC  F015         	goto	u1430
  2101   002BF4                     u1431:
  2102   002BF4  EF02  F016         	goto	l480
  2103   002BF8                     u1430:
  2104   002BF8                     
  2105                           ; BSR set to: 0
  2106                           ;mcc_generated_files/uart/src/uart2.c: 447:     {;mcc_generated_files/uart/src/uart2.c: 
      +                          448:         UART2_FramingErrorHandler = callbackHandler;
  2107   002BF8  C088  F00D         	movff	UART2_FramingErrorCallbackRegister@callbackHandler,_UART2_FramingErrorHandler
  2108   002BFC  C089  F00E         	movff	UART2_FramingErrorCallbackRegister@callbackHandler+1,_UART2_FramingErrorHandler+1
  2109   002C00  C08A  F00F         	movff	UART2_FramingErrorCallbackRegister@callbackHandler+2,_UART2_FramingErrorHandler+2
  2110   002C04                     l480:
  2111                           
  2112                           ; BSR set to: 0
  2113   002C04  0012               	return		;funcret
  2114   002C06                     __end_of_UART2_FramingErrorCallbackRegister:
  2115                           	callstack 0
  2116                           
  2117 ;; *************** function _PIN_MANAGER_Initialize *****************
  2118 ;; Defined at:
  2119 ;;		line 38 in file "mcc_generated_files/system/src/pins.c"
  2120 ;; Parameters:    Size  Location     Type
  2121 ;;		None
  2122 ;; Auto vars:     Size  Location     Type
  2123 ;;		None
  2124 ;; Return value:  Size  Location     Type
  2125 ;;                  1    wreg      void 
  2126 ;; Registers used:
  2127 ;;		wreg, status,2
  2128 ;; Tracked objects:
  2129 ;;		On entry : 0/0
  2130 ;;		On exit  : 0/0
  2131 ;;		Unchanged: 0/0
  2132 ;; Data sizes:     COMRAM   BANK0   BANK1   BANK2   BANK3   BANK4   BANK5   BANK6   BANK7   BANK8   BANK9  BANK10  BANK1
      +1  BANK12  BANK13  BANK14  BANK15  BANK16  BANK17  BANK18  BANK19  BANK20  BANK21  BANK22  BANK23  BANK24  BANK25  BANK2
      +6  BANK27  BANK28  BANK29  BANK30  BANK31
  2133 ;;      Params:         0       0       0       0       0       0       0       0       0       0       0       0       
      +0       0       0       0       0       0       0       0       0       0       0       0       0       0       0       
      +0       0       0       0       0       0
  2134 ;;      Locals:         0       0       0       0       0       0       0       0       0       0       0       0       
      +0       0       0       0       0       0       0       0       0       0       0       0       0       0       0       
      +0       0       0       0       0       0
  2135 ;;      Temps:          0       0       0       0       0       0       0       0       0       0       0       0       
      +0       0       0       0       0       0       0       0       0       0       0       0       0       0       0       
      +0       0       0       0       0       0
  2136 ;;      Totals:         0       0       0       0       0       0       0       0       0       0       0       0       
      +0       0       0       0       0       0       0       0       0       0       0       0       0       0       0       
      +0       0       0       0       0       0
  2137 ;;Total ram usage:        0 bytes
  2138 ;; Hardware stack levels used: 1
  2139 ;; Hardware stack levels required when called: 10
  2140 ;; This function calls:
  2141 ;;		Nothing
  2142 ;; This function is called by:
  2143 ;;		_SYSTEM_Initialize
  2144 ;; This function uses a non-reentrant model
  2145 ;;
  2146                           
  2147                           	psect	text14
  2148   0024AA                     __ptext14:
  2149                           	callstack 0
  2150   0024AA                     _PIN_MANAGER_Initialize:
  2151                           	callstack 19
  2152   0024AA                     
  2153                           ;mcc_generated_files/system/src/pins.c: 43:     LATA = 0x0;
  2154   0024AA  0E00               	movlw	0
  2155   0024AC  6EBA               	movwf	186,c	;volatile
  2156                           
  2157                           ;mcc_generated_files/system/src/pins.c: 44:     LATB = 0x0;
  2158   0024AE  0E00               	movlw	0
  2159   0024B0  6EBB               	movwf	187,c	;volatile
  2160                           
  2161                           ;mcc_generated_files/system/src/pins.c: 45:     LATC = 0x0;
  2162   0024B2  0E00               	movlw	0
  2163   0024B4  6EBC               	movwf	188,c	;volatile
  2164                           
  2165                           ;mcc_generated_files/system/src/pins.c: 46:     LATD = 0x0;
  2166   0024B6  0E00               	movlw	0
  2167   0024B8  6EBD               	movwf	189,c	;volatile
  2168                           
  2169                           ;mcc_generated_files/system/src/pins.c: 47:     LATE = 0x0;
  2170   0024BA  0E00               	movlw	0
  2171   0024BC  6EBE               	movwf	190,c	;volatile
  2172   0024BE                     
  2173                           ;mcc_generated_files/system/src/pins.c: 52:     TRISA = 0xFF;
  2174   0024BE  68C2               	setf	194,c	;volatile
  2175                           
  2176                           ;mcc_generated_files/system/src/pins.c: 53:     TRISB = 0xFD;
  2177   0024C0  0EFD               	movlw	253
  2178   0024C2  6EC3               	movwf	195,c	;volatile
  2179   0024C4                     
  2180                           ;mcc_generated_files/system/src/pins.c: 54:     TRISC = 0xFF;
  2181   0024C4  68C4               	setf	196,c	;volatile
  2182                           
  2183                           ;mcc_generated_files/system/src/pins.c: 55:     TRISD = 0xFE;
  2184   0024C6  0EFE               	movlw	254
  2185   0024C8  6EC5               	movwf	197,c	;volatile
  2186                           
  2187                           ;mcc_generated_files/system/src/pins.c: 56:     TRISE = 0x7;
  2188   0024CA  0E07               	movlw	7
  2189   0024CC  6EC6               	movwf	198,c	;volatile
  2190   0024CE                     
  2191                           ;mcc_generated_files/system/src/pins.c: 61:     ANSELA = 0xFF;
  2192   0024CE  013A               	movlb	58	; () banked
  2193   0024D0  6940               	setf	64,b	;volatile
  2194                           
  2195                           ;mcc_generated_files/system/src/pins.c: 62:     ANSELB = 0xFD;
  2196   0024D2  0EFD               	movlw	253
  2197   0024D4  6F50               	movwf	80,b	;volatile
  2198   0024D6                     
  2199                           ; BSR set to: 58
  2200                           ;mcc_generated_files/system/src/pins.c: 63:     ANSELC = 0xFF;
  2201   0024D6  6960               	setf	96,b	;volatile
  2202                           
  2203                           ;mcc_generated_files/system/src/pins.c: 64:     ANSELD = 0xFC;
  2204   0024D8  0EFC               	movlw	252
  2205   0024DA  6F70               	movwf	112,b	;volatile
  2206                           
  2207                           ;mcc_generated_files/system/src/pins.c: 65:     ANSELE = 0x7;
  2208   0024DC  0E07               	movlw	7
  2209   0024DE  6F80               	movwf	128,b	;volatile
  2210                           
  2211                           ;mcc_generated_files/system/src/pins.c: 70:     WPUA = 0x0;
  2212   0024E0  0E00               	movlw	0
  2213   0024E2  6F41               	movwf	65,b	;volatile
  2214                           
  2215                           ;mcc_generated_files/system/src/pins.c: 71:     WPUB = 0x0;
  2216   0024E4  0E00               	movlw	0
  2217   0024E6  6F51               	movwf	81,b	;volatile
  2218                           
  2219                           ;mcc_generated_files/system/src/pins.c: 72:     WPUC = 0x0;
  2220   0024E8  0E00               	movlw	0
  2221   0024EA  6F61               	movwf	97,b	;volatile
  2222                           
  2223                           ;mcc_generated_files/system/src/pins.c: 73:     WPUD = 0x0;
  2224   0024EC  0E00               	movlw	0
  2225   0024EE  6F71               	movwf	113,b	;volatile
  2226                           
  2227                           ;mcc_generated_files/system/src/pins.c: 74:     WPUE = 0x0;
  2228   0024F0  0E00               	movlw	0
  2229   0024F2  6F81               	movwf	129,b	;volatile
  2230                           
  2231                           ;mcc_generated_files/system/src/pins.c: 79:     ODCONA = 0x0;
  2232   0024F4  0E00               	movlw	0
  2233   0024F6  6F42               	movwf	66,b	;volatile
  2234                           
  2235                           ;mcc_generated_files/system/src/pins.c: 80:     ODCONB = 0x0;
  2236   0024F8  0E00               	movlw	0
  2237   0024FA  6F52               	movwf	82,b	;volatile
  2238                           
  2239                           ;mcc_generated_files/system/src/pins.c: 81:     ODCONC = 0x0;
  2240   0024FC  0E00               	movlw	0
  2241   0024FE  6F62               	movwf	98,b	;volatile
  2242                           
  2243                           ;mcc_generated_files/system/src/pins.c: 82:     ODCOND = 0x0;
  2244   002500  0E00               	movlw	0
  2245   002502  6F72               	movwf	114,b	;volatile
  2246                           
  2247                           ;mcc_generated_files/system/src/pins.c: 83:     ODCONE = 0x0;
  2248   002504  0E00               	movlw	0
  2249   002506  6F82               	movwf	130,b	;volatile
  2250   002508                     
  2251                           ; BSR set to: 58
  2252                           ;mcc_generated_files/system/src/pins.c: 88:     SLRCONA = 0xFF;
  2253   002508  6943               	setf	67,b	;volatile
  2254   00250A                     
  2255                           ; BSR set to: 58
  2256                           ;mcc_generated_files/system/src/pins.c: 89:     SLRCONB = 0xFF;
  2257   00250A  6953               	setf	83,b	;volatile
  2258   00250C                     
  2259                           ; BSR set to: 58
  2260                           ;mcc_generated_files/system/src/pins.c: 90:     SLRCONC = 0xFF;
  2261   00250C  6963               	setf	99,b	;volatile
  2262   00250E                     
  2263                           ; BSR set to: 58
  2264                           ;mcc_generated_files/system/src/pins.c: 91:     SLRCOND = 0xFF;
  2265   00250E  6973               	setf	115,b	;volatile
  2266                           
  2267                           ;mcc_generated_files/system/src/pins.c: 92:     SLRCONE = 0x7;
  2268   002510  0E07               	movlw	7
  2269   002512  6F83               	movwf	131,b	;volatile
  2270   002514                     
  2271                           ; BSR set to: 58
  2272                           ;mcc_generated_files/system/src/pins.c: 97:     INLVLA = 0xFF;
  2273   002514  6944               	setf	68,b	;volatile
  2274   002516                     
  2275                           ; BSR set to: 58
  2276                           ;mcc_generated_files/system/src/pins.c: 98:     INLVLB = 0xFF;
  2277   002516  6954               	setf	84,b	;volatile
  2278   002518                     
  2279                           ; BSR set to: 58
  2280                           ;mcc_generated_files/system/src/pins.c: 99:     INLVLC = 0xFF;
  2281   002518  6964               	setf	100,b	;volatile
  2282   00251A                     
  2283                           ; BSR set to: 58
  2284                           ;mcc_generated_files/system/src/pins.c: 100:     INLVLD = 0xFF;
  2285   00251A  6974               	setf	116,b	;volatile
  2286                           
  2287                           ;mcc_generated_files/system/src/pins.c: 101:     INLVLE = 0xF;
  2288   00251C  0E0F               	movlw	15
  2289   00251E  6F84               	movwf	132,b	;volatile
  2290                           
  2291                           ;mcc_generated_files/system/src/pins.c: 106:     RB1I2C = 0x0;
  2292   002520  0E00               	movlw	0
  2293   002522  6F5A               	movwf	90,b	;volatile
  2294                           
  2295                           ;mcc_generated_files/system/src/pins.c: 107:     RB2I2C = 0x0;
  2296   002524  0E00               	movlw	0
  2297   002526  6F5B               	movwf	91,b	;volatile
  2298                           
  2299                           ;mcc_generated_files/system/src/pins.c: 108:     RC3I2C = 0x0;
  2300   002528  0E00               	movlw	0
  2301   00252A  6F6A               	movwf	106,b	;volatile
  2302                           
  2303                           ;mcc_generated_files/system/src/pins.c: 109:     RC4I2C = 0x0;
  2304   00252C  0E00               	movlw	0
  2305   00252E  6F6B               	movwf	107,b	;volatile
  2306                           
  2307                           ;mcc_generated_files/system/src/pins.c: 110:     RD0I2C = 0x0;
  2308   002530  0E00               	movlw	0
  2309   002532  6F7A               	movwf	122,b	;volatile
  2310                           
  2311                           ;mcc_generated_files/system/src/pins.c: 111:     RD1I2C = 0x0;
  2312   002534  0E00               	movlw	0
  2313   002536  6F7B               	movwf	123,b	;volatile
  2314                           
  2315                           ;mcc_generated_files/system/src/pins.c: 115:     U2RXPPS = 0x19;
  2316   002538  0E19               	movlw	25
  2317   00253A  6FE8               	movwf	232,b	;volatile
  2318                           
  2319                           ;mcc_generated_files/system/src/pins.c: 116:     RD0PPS = 0x16;
  2320   00253C  0E16               	movlw	22
  2321   00253E  6F18               	movwf	24,b	;volatile
  2322                           
  2323                           ;mcc_generated_files/system/src/pins.c: 121:     IOCAP = 0x0;
  2324   002540  0E00               	movlw	0
  2325   002542  6F45               	movwf	69,b	;volatile
  2326                           
  2327                           ;mcc_generated_files/system/src/pins.c: 122:     IOCAN = 0x0;
  2328   002544  0E00               	movlw	0
  2329   002546  6F46               	movwf	70,b	;volatile
  2330                           
  2331                           ;mcc_generated_files/system/src/pins.c: 123:     IOCAF = 0x0;
  2332   002548  0E00               	movlw	0
  2333   00254A  6F47               	movwf	71,b	;volatile
  2334                           
  2335                           ;mcc_generated_files/system/src/pins.c: 124:     IOCBP = 0x0;
  2336   00254C  0E00               	movlw	0
  2337   00254E  6F55               	movwf	85,b	;volatile
  2338                           
  2339                           ;mcc_generated_files/system/src/pins.c: 125:     IOCBN = 0x0;
  2340   002550  0E00               	movlw	0
  2341   002552  6F56               	movwf	86,b	;volatile
  2342                           
  2343                           ;mcc_generated_files/system/src/pins.c: 126:     IOCBF = 0x0;
  2344   002554  0E00               	movlw	0
  2345   002556  6F57               	movwf	87,b	;volatile
  2346                           
  2347                           ;mcc_generated_files/system/src/pins.c: 127:     IOCCP = 0x0;
  2348   002558  0E00               	movlw	0
  2349   00255A  6F65               	movwf	101,b	;volatile
  2350                           
  2351                           ;mcc_generated_files/system/src/pins.c: 128:     IOCCN = 0x0;
  2352   00255C  0E00               	movlw	0
  2353   00255E  6F66               	movwf	102,b	;volatile
  2354                           
  2355                           ;mcc_generated_files/system/src/pins.c: 129:     IOCCF = 0x0;
  2356   002560  0E00               	movlw	0
  2357   002562  6F67               	movwf	103,b	;volatile
  2358                           
  2359                           ;mcc_generated_files/system/src/pins.c: 130:     IOCEP = 0x0;
  2360   002564  0E00               	movlw	0
  2361   002566  6F85               	movwf	133,b	;volatile
  2362                           
  2363                           ;mcc_generated_files/system/src/pins.c: 131:     IOCEN = 0x0;
  2364   002568  0E00               	movlw	0
  2365   00256A  6F86               	movwf	134,b	;volatile
  2366                           
  2367                           ;mcc_generated_files/system/src/pins.c: 132:     IOCEF = 0x0;
  2368   00256C  0E00               	movlw	0
  2369   00256E  6F87               	movwf	135,b	;volatile
  2370   002570                     
  2371                           ; BSR set to: 58
  2372   002570  0012               	return		;funcret
  2373   002572                     __end_of_PIN_MANAGER_Initialize:
  2374                           	callstack 0
  2375                           
  2376 ;; *************** function _INTERRUPT_Initialize *****************
  2377 ;; Defined at:
  2378 ;;		line 42 in file "mcc_generated_files/system/src/interrupt.c"
  2379 ;; Parameters:    Size  Location     Type
  2380 ;;		None
  2381 ;; Auto vars:     Size  Location     Type
  2382 ;;		None
  2383 ;; Return value:  Size  Location     Type
  2384 ;;                  1    wreg      void 
  2385 ;; Registers used:
  2386 ;;		wreg, status,2, status,0, cstack
  2387 ;; Tracked objects:
  2388 ;;		On entry : 0/0
  2389 ;;		On exit  : 0/0
  2390 ;;		Unchanged: 0/0
  2391 ;; Data sizes:     COMRAM   BANK0   BANK1   BANK2   BANK3   BANK4   BANK5   BANK6   BANK7   BANK8   BANK9  BANK10  BANK1
      +1  BANK12  BANK13  BANK14  BANK15  BANK16  BANK17  BANK18  BANK19  BANK20  BANK21  BANK22  BANK23  BANK24  BANK25  BANK2
      +6  BANK27  BANK28  BANK29  BANK30  BANK31
  2392 ;;      Params:         0       0       0       0       0       0       0       0       0       0       0       0       
      +0       0       0       0       0       0       0       0       0       0       0       0       0       0       0       
      +0       0       0       0       0       0
  2393 ;;      Locals:         0       0       0       0       0       0       0       0       0       0       0       0       
      +0       0       0       0       0       0       0       0       0       0       0       0       0       0       0       
      +0       0       0       0       0       0
  2394 ;;      Temps:          0       0       0       0       0       0       0       0       0       0       0       0       
      +0       0       0       0       0       0       0       0       0       0       0       0       0       0       0       
      +0       0       0       0       0       0
  2395 ;;      Totals:         0       0       0       0       0       0       0       0       0       0       0       0       
      +0       0       0       0       0       0       0       0       0       0       0       0       0       0       0       
      +0       0       0       0       0       0
  2396 ;;Total ram usage:        0 bytes
  2397 ;; Hardware stack levels used: 1
  2398 ;; Hardware stack levels required when called: 11
  2399 ;; This function calls:
  2400 ;;		_INT0_SetInterruptHandler
  2401 ;;		_INT1_SetInterruptHandler
  2402 ;;		_INT2_SetInterruptHandler
  2403 ;; This function is called by:
  2404 ;;		_SYSTEM_Initialize
  2405 ;; This function uses a non-reentrant model
  2406 ;;
  2407                           
  2408                           	psect	text15
  2409   002A74                     __ptext15:
  2410                           	callstack 0
  2411   002A74                     _INTERRUPT_Initialize:
  2412                           	callstack 18
  2413   002A74                     
  2414                           ;mcc_generated_files/system/src/interrupt.c: 45:     INTCON0bits.IPEN = 0;
  2415   002A74  9AD2               	bcf	210,5,c	;volatile
  2416                           
  2417                           ;mcc_generated_files/system/src/interrupt.c: 49:     (PIR1bits.INT0IF = 0);
  2418   002A76  0139               	movlb	57	; () banked
  2419   002A78  91A1               	bcf	161,0,b	;volatile
  2420                           
  2421                           ;mcc_generated_files/system/src/interrupt.c: 50:     (INTCON0bits.INT0EDG = 1);
  2422   002A7A  80D2               	bsf	210,0,c	;volatile
  2423   002A7C                     
  2424                           ; BSR set to: 57
  2425                           ;mcc_generated_files/system/src/interrupt.c: 52:     INT0_SetInterruptHandler(INT0_Defau
      +                          ltInterruptHandler);
  2426   002A7C  0E00               	movlw	0
  2427   002A7E  0100               	movlb	0	; () banked
  2428   002A80  6F88               	movwf	INT0_SetInterruptHandler@InterruptHandler& (0+255),b
  2429   002A82  0E00               	movlw	0
  2430   002A84  6F89               	movwf	(INT0_SetInterruptHandler@InterruptHandler+1)& (0+255),b
  2431   002A86  0E00               	movlw	0
  2432   002A88  6F8A               	movwf	(INT0_SetInterruptHandler@InterruptHandler+2)& (0+255),b
  2433   002A8A  EC87  F016         	call	_INT0_SetInterruptHandler	;wreg free
  2434   002A8E                     
  2435                           ;mcc_generated_files/system/src/interrupt.c: 57:     (PIR5bits.INT1IF = 0);
  2436   002A8E  0139               	movlb	57	; () banked
  2437   002A90  91A5               	bcf	165,0,b	;volatile
  2438   002A92                     
  2439                           ; BSR set to: 57
  2440                           ;mcc_generated_files/system/src/interrupt.c: 58:     (INTCON0bits.INT1EDG = 1);
  2441   002A92  82D2               	bsf	210,1,c	;volatile
  2442                           
  2443                           ;mcc_generated_files/system/src/interrupt.c: 60:     INT1_SetInterruptHandler(INT1_Defau
      +                          ltInterruptHandler);
  2444   002A94  0E00               	movlw	0
  2445   002A96  0100               	movlb	0	; () banked
  2446   002A98  6F88               	movwf	INT1_SetInterruptHandler@InterruptHandler& (0+255),b
  2447   002A9A  0E00               	movlw	0
  2448   002A9C  6F89               	movwf	(INT1_SetInterruptHandler@InterruptHandler+1)& (0+255),b
  2449   002A9E  0E00               	movlw	0
  2450   002AA0  6F8A               	movwf	(INT1_SetInterruptHandler@InterruptHandler+2)& (0+255),b
  2451   002AA2  EC80  F016         	call	_INT1_SetInterruptHandler	;wreg free
  2452   002AA6                     
  2453                           ;mcc_generated_files/system/src/interrupt.c: 65:     (PIR7bits.INT2IF = 0);
  2454   002AA6  0139               	movlb	57	; () banked
  2455   002AA8  9BA7               	bcf	167,5,b	;volatile
  2456   002AAA                     
  2457                           ; BSR set to: 57
  2458                           ;mcc_generated_files/system/src/interrupt.c: 66:     (INTCON0bits.INT2EDG = 1);
  2459   002AAA  84D2               	bsf	210,2,c	;volatile
  2460                           
  2461                           ;mcc_generated_files/system/src/interrupt.c: 68:     INT2_SetInterruptHandler(INT2_Defau
      +                          ltInterruptHandler);
  2462   002AAC  0E00               	movlw	0
  2463   002AAE  0100               	movlb	0	; () banked
  2464   002AB0  6F88               	movwf	INT2_SetInterruptHandler@InterruptHandler& (0+255),b
  2465   002AB2  0E00               	movlw	0
  2466   002AB4  6F89               	movwf	(INT2_SetInterruptHandler@InterruptHandler+1)& (0+255),b
  2467   002AB6  0E00               	movlw	0
  2468   002AB8  6F8A               	movwf	(INT2_SetInterruptHandler@InterruptHandler+2)& (0+255),b
  2469   002ABA  EC79  F016         	call	_INT2_SetInterruptHandler	;wreg free
  2470   002ABE  0012               	return		;funcret
  2471   002AC0                     __end_of_INTERRUPT_Initialize:
  2472                           	callstack 0
  2473                           
  2474 ;; *************** function _INT2_SetInterruptHandler *****************
  2475 ;; Defined at:
  2476 ;;		line 167 in file "mcc_generated_files/system/src/interrupt.c"
  2477 ;; Parameters:    Size  Location     Type
  2478 ;;  InterruptHan    3    0[BANK0 ] PTR FTN()void 
  2479 ;;		 -> INT2_DefaultInterruptHandler(1), 
  2480 ;; Auto vars:     Size  Location     Type
  2481 ;;		None
  2482 ;; Return value:  Size  Location     Type
  2483 ;;                  1    wreg      void 
  2484 ;; Registers used:
  2485 ;;		wreg, status,2, status,0
  2486 ;; Tracked objects:
  2487 ;;		On entry : 0/0
  2488 ;;		On exit  : 0/0
  2489 ;;		Unchanged: 0/0
  2490 ;; Data sizes:     COMRAM   BANK0   BANK1   BANK2   BANK3   BANK4   BANK5   BANK6   BANK7   BANK8   BANK9  BANK10  BANK1
      +1  BANK12  BANK13  BANK14  BANK15  BANK16  BANK17  BANK18  BANK19  BANK20  BANK21  BANK22  BANK23  BANK24  BANK25  BANK2
      +6  BANK27  BANK28  BANK29  BANK30  BANK31
  2491 ;;      Params:         0       3       0       0       0       0       0       0       0       0       0       0       
      +0       0       0       0       0       0       0       0       0       0       0       0       0       0       0       
      +0       0       0       0       0       0
  2492 ;;      Locals:         0       0       0       0       0       0       0       0       0       0       0       0       
      +0       0       0       0       0       0       0       0       0       0       0       0       0       0       0       
      +0       0       0       0       0       0
  2493 ;;      Temps:          0       0       0       0       0       0       0       0       0       0       0       0       
      +0       0       0       0       0       0       0       0       0       0       0       0       0       0       0       
      +0       0       0       0       0       0
  2494 ;;      Totals:         0       3       0       0       0       0       0       0       0       0       0       0       
      +0       0       0       0       0       0       0       0       0       0       0       0       0       0       0       
      +0       0       0       0       0       0
  2495 ;;Total ram usage:        3 bytes
  2496 ;; Hardware stack levels used: 1
  2497 ;; Hardware stack levels required when called: 10
  2498 ;; This function calls:
  2499 ;;		Nothing
  2500 ;; This function is called by:
  2501 ;;		_INTERRUPT_Initialize
  2502 ;; This function uses a non-reentrant model
  2503 ;;
  2504                           
  2505                           	psect	text16
  2506   002CF2                     __ptext16:
  2507                           	callstack 0
  2508   002CF2                     _INT2_SetInterruptHandler:
  2509                           	callstack 18
  2510   002CF2                     
  2511                           ;mcc_generated_files/system/src/interrupt.c: 168:     INT2_InterruptHandler = InterruptH
      +                          andler;
  2512   002CF2  C088  F010         	movff	INT2_SetInterruptHandler@InterruptHandler,_INT2_InterruptHandler
  2513   002CF6  C089  F011         	movff	INT2_SetInterruptHandler@InterruptHandler+1,_INT2_InterruptHandler+1
  2514   002CFA  C08A  F012         	movff	INT2_SetInterruptHandler@InterruptHandler+2,_INT2_InterruptHandler+2
  2515   002CFE  0012               	return		;funcret
  2516   002D00                     __end_of_INT2_SetInterruptHandler:
  2517                           	callstack 0
  2518                           
  2519 ;; *************** function _INT1_SetInterruptHandler *****************
  2520 ;; Defined at:
  2521 ;;		line 141 in file "mcc_generated_files/system/src/interrupt.c"
  2522 ;; Parameters:    Size  Location     Type
  2523 ;;  InterruptHan    3    0[BANK0 ] PTR FTN()void 
  2524 ;;		 -> INT1_DefaultInterruptHandler(1), 
  2525 ;; Auto vars:     Size  Location     Type
  2526 ;;		None
  2527 ;; Return value:  Size  Location     Type
  2528 ;;                  1    wreg      void 
  2529 ;; Registers used:
  2530 ;;		wreg, status,2, status,0
  2531 ;; Tracked objects:
  2532 ;;		On entry : 0/0
  2533 ;;		On exit  : 0/0
  2534 ;;		Unchanged: 0/0
  2535 ;; Data sizes:     COMRAM   BANK0   BANK1   BANK2   BANK3   BANK4   BANK5   BANK6   BANK7   BANK8   BANK9  BANK10  BANK1
      +1  BANK12  BANK13  BANK14  BANK15  BANK16  BANK17  BANK18  BANK19  BANK20  BANK21  BANK22  BANK23  BANK24  BANK25  BANK2
      +6  BANK27  BANK28  BANK29  BANK30  BANK31
  2536 ;;      Params:         0       3       0       0       0       0       0       0       0       0       0       0       
      +0       0       0       0       0       0       0       0       0       0       0       0       0       0       0       
      +0       0       0       0       0       0
  2537 ;;      Locals:         0       0       0       0       0       0       0       0       0       0       0       0       
      +0       0       0       0       0       0       0       0       0       0       0       0       0       0       0       
      +0       0       0       0       0       0
  2538 ;;      Temps:          0       0       0       0       0       0       0       0       0       0       0       0       
      +0       0       0       0       0       0       0       0       0       0       0       0       0       0       0       
      +0       0       0       0       0       0
  2539 ;;      Totals:         0       3       0       0       0       0       0       0       0       0       0       0       
      +0       0       0       0       0       0       0       0       0       0       0       0       0       0       0       
      +0       0       0       0       0       0
  2540 ;;Total ram usage:        3 bytes
  2541 ;; Hardware stack levels used: 1
  2542 ;; Hardware stack levels required when called: 10
  2543 ;; This function calls:
  2544 ;;		Nothing
  2545 ;; This function is called by:
  2546 ;;		_INTERRUPT_Initialize
  2547 ;; This function uses a non-reentrant model
  2548 ;;
  2549                           
  2550                           	psect	text17
  2551   002D00                     __ptext17:
  2552                           	callstack 0
  2553   002D00                     _INT1_SetInterruptHandler:
  2554                           	callstack 18
  2555   002D00                     
  2556                           ;mcc_generated_files/system/src/interrupt.c: 142:     INT1_InterruptHandler = InterruptH
      +                          andler;
  2557   002D00  C088  F013         	movff	INT1_SetInterruptHandler@InterruptHandler,_INT1_InterruptHandler
  2558   002D04  C089  F014         	movff	INT1_SetInterruptHandler@InterruptHandler+1,_INT1_InterruptHandler+1
  2559   002D08  C08A  F015         	movff	INT1_SetInterruptHandler@InterruptHandler+2,_INT1_InterruptHandler+2
  2560   002D0C  0012               	return		;funcret
  2561   002D0E                     __end_of_INT1_SetInterruptHandler:
  2562                           	callstack 0
  2563                           
  2564 ;; *************** function _INT0_SetInterruptHandler *****************
  2565 ;; Defined at:
  2566 ;;		line 115 in file "mcc_generated_files/system/src/interrupt.c"
  2567 ;; Parameters:    Size  Location     Type
  2568 ;;  InterruptHan    3    0[BANK0 ] PTR FTN()void 
  2569 ;;		 -> INT0_DefaultInterruptHandler(1), 
  2570 ;; Auto vars:     Size  Location     Type
  2571 ;;		None
  2572 ;; Return value:  Size  Location     Type
  2573 ;;                  1    wreg      void 
  2574 ;; Registers used:
  2575 ;;		wreg, status,2, status,0
  2576 ;; Tracked objects:
  2577 ;;		On entry : 0/0
  2578 ;;		On exit  : 0/0
  2579 ;;		Unchanged: 0/0
  2580 ;; Data sizes:     COMRAM   BANK0   BANK1   BANK2   BANK3   BANK4   BANK5   BANK6   BANK7   BANK8   BANK9  BANK10  BANK1
      +1  BANK12  BANK13  BANK14  BANK15  BANK16  BANK17  BANK18  BANK19  BANK20  BANK21  BANK22  BANK23  BANK24  BANK25  BANK2
      +6  BANK27  BANK28  BANK29  BANK30  BANK31
  2581 ;;      Params:         0       3       0       0       0       0       0       0       0       0       0       0       
      +0       0       0       0       0       0       0       0       0       0       0       0       0       0       0       
      +0       0       0       0       0       0
  2582 ;;      Locals:         0       0       0       0       0       0       0       0       0       0       0       0       
      +0       0       0       0       0       0       0       0       0       0       0       0       0       0       0       
      +0       0       0       0       0       0
  2583 ;;      Temps:          0       0       0       0       0       0       0       0       0       0       0       0       
      +0       0       0       0       0       0       0       0       0       0       0       0       0       0       0       
      +0       0       0       0       0       0
  2584 ;;      Totals:         0       3       0       0       0       0       0       0       0       0       0       0       
      +0       0       0       0       0       0       0       0       0       0       0       0       0       0       0       
      +0       0       0       0       0       0
  2585 ;;Total ram usage:        3 bytes
  2586 ;; Hardware stack levels used: 1
  2587 ;; Hardware stack levels required when called: 10
  2588 ;; This function calls:
  2589 ;;		Nothing
  2590 ;; This function is called by:
  2591 ;;		_INTERRUPT_Initialize
  2592 ;; This function uses a non-reentrant model
  2593 ;;
  2594                           
  2595                           	psect	text18
  2596   002D0E                     __ptext18:
  2597                           	callstack 0
  2598   002D0E                     _INT0_SetInterruptHandler:
  2599                           	callstack 18
  2600   002D0E                     
  2601                           ;mcc_generated_files/system/src/interrupt.c: 116:     INT0_InterruptHandler = InterruptH
      +                          andler;
  2602   002D0E  C088  F016         	movff	INT0_SetInterruptHandler@InterruptHandler,_INT0_InterruptHandler
  2603   002D12  C089  F017         	movff	INT0_SetInterruptHandler@InterruptHandler+1,_INT0_InterruptHandler+1
  2604   002D16  C08A  F018         	movff	INT0_SetInterruptHandler@InterruptHandler+2,_INT0_InterruptHandler+2
  2605   002D1A  0012               	return		;funcret
  2606   002D1C                     __end_of_INT0_SetInterruptHandler:
  2607                           	callstack 0
  2608                           
  2609 ;; *************** function _CLOCK_Initialize *****************
  2610 ;; Defined at:
  2611 ;;		line 37 in file "mcc_generated_files/system/src/clock.c"
  2612 ;; Parameters:    Size  Location     Type
  2613 ;;		None
  2614 ;; Auto vars:     Size  Location     Type
  2615 ;;		None
  2616 ;; Return value:  Size  Location     Type
  2617 ;;                  1    wreg      void 
  2618 ;; Registers used:
  2619 ;;		wreg, status,2
  2620 ;; Tracked objects:
  2621 ;;		On entry : 0/0
  2622 ;;		On exit  : 0/0
  2623 ;;		Unchanged: 0/0
  2624 ;; Data sizes:     COMRAM   BANK0   BANK1   BANK2   BANK3   BANK4   BANK5   BANK6   BANK7   BANK8   BANK9  BANK10  BANK1
      +1  BANK12  BANK13  BANK14  BANK15  BANK16  BANK17  BANK18  BANK19  BANK20  BANK21  BANK22  BANK23  BANK24  BANK25  BANK2
      +6  BANK27  BANK28  BANK29  BANK30  BANK31
  2625 ;;      Params:         0       0       0       0       0       0       0       0       0       0       0       0       
      +0       0       0       0       0       0       0       0       0       0       0       0       0       0       0       
      +0       0       0       0       0       0
  2626 ;;      Locals:         0       0       0       0       0       0       0       0       0       0       0       0       
      +0       0       0       0       0       0       0       0       0       0       0       0       0       0       0       
      +0       0       0       0       0       0
  2627 ;;      Temps:          0       0       0       0       0       0       0       0       0       0       0       0       
      +0       0       0       0       0       0       0       0       0       0       0       0       0       0       0       
      +0       0       0       0       0       0
  2628 ;;      Totals:         0       0       0       0       0       0       0       0       0       0       0       0       
      +0       0       0       0       0       0       0       0       0       0       0       0       0       0       0       
      +0       0       0       0       0       0
  2629 ;;Total ram usage:        0 bytes
  2630 ;; Hardware stack levels used: 1
  2631 ;; Hardware stack levels required when called: 10
  2632 ;; This function calls:
  2633 ;;		Nothing
  2634 ;; This function is called by:
  2635 ;;		_SYSTEM_Initialize
  2636 ;; This function uses a non-reentrant model
  2637 ;;
  2638                           
  2639                           	psect	text19
  2640   002C9C                     __ptext19:
  2641                           	callstack 0
  2642   002C9C                     _CLOCK_Initialize:
  2643                           	callstack 19
  2644   002C9C                     
  2645                           ;mcc_generated_files/system/src/clock.c: 41:     OSCCON1 = 0x60;
  2646   002C9C  0E60               	movlw	96
  2647   002C9E  0139               	movlb	57	; () banked
  2648   002CA0  6FD9               	movwf	217,b	;volatile
  2649                           
  2650                           ;mcc_generated_files/system/src/clock.c: 43:     OSCCON3 = 0x0;
  2651   002CA2  0E00               	movlw	0
  2652   002CA4  6FDB               	movwf	219,b	;volatile
  2653                           
  2654                           ;mcc_generated_files/system/src/clock.c: 45:     OSCEN = 0x0;
  2655   002CA6  0E00               	movlw	0
  2656   002CA8  6FDD               	movwf	221,b	;volatile
  2657                           
  2658                           ;mcc_generated_files/system/src/clock.c: 47:     OSCFRQ = 0x4;
  2659   002CAA  0E04               	movlw	4
  2660   002CAC  6FDF               	movwf	223,b	;volatile
  2661                           
  2662                           ;mcc_generated_files/system/src/clock.c: 49:     OSCTUNE = 0x0;
  2663   002CAE  0E00               	movlw	0
  2664   002CB0  6FDE               	movwf	222,b	;volatile
  2665   002CB2                     
  2666                           ; BSR set to: 57
  2667   002CB2  0012               	return		;funcret
  2668   002CB4                     __end_of_CLOCK_Initialize:
  2669                           	callstack 0
  2670                           
  2671 ;; *************** function _INTERRUPT_InterruptManager *****************
  2672 ;; Defined at:
  2673 ;;		line 80 in file "mcc_generated_files/system/src/interrupt.c"
  2674 ;; Parameters:    Size  Location     Type
  2675 ;;		None
  2676 ;; Auto vars:     Size  Location     Type
  2677 ;;		None
  2678 ;; Return value:  Size  Location     Type
  2679 ;;                  1    wreg      void 
  2680 ;; Registers used:
  2681 ;;		wreg, fsr1l, fsr1h, fsr2l, fsr2h, status,2, status,0, pcl, pclath, pclatu, tosl, tblptrl, tblptrh, tblptru, prodl, p
      +rodh, cstack
  2682 ;; Tracked objects:
  2683 ;;		On entry : 0/0
  2684 ;;		On exit  : 0/0
  2685 ;;		Unchanged: 0/0
  2686 ;; Data sizes:     COMRAM   BANK0   BANK1   BANK2   BANK3   BANK4   BANK5   BANK6   BANK7   BANK8   BANK9  BANK10  BANK1
      +1  BANK12  BANK13  BANK14  BANK15  BANK16  BANK17  BANK18  BANK19  BANK20  BANK21  BANK22  BANK23  BANK24  BANK25  BANK2
      +6  BANK27  BANK28  BANK29  BANK30  BANK31
  2687 ;;      Params:         0       0       0       0       0       0       0       0       0       0       0       0       
      +0       0       0       0       0       0       0       0       0       0       0       0       0       0       0       
      +0       0       0       0       0       0
  2688 ;;      Locals:         0       0       0       0       0       0       0       0       0       0       0       0       
      +0       0       0       0       0       0       0       0       0       0       0       0       0       0       0       
      +0       0       0       0       0       0
  2689 ;;      Temps:          6       0       0       0       0       0       0       0       0       0       0       0       
      +0       0       0       0       0       0       0       0       0       0       0       0       0       0       0       
      +0       0       0       0       0       0
  2690 ;;      Totals:         6       0       0       0       0       0       0       0       0       0       0       0       
      +0       0       0       0       0       0       0       0       0       0       0       0       0       0       0       
      +0       0       0       0       0       0
  2691 ;;Total ram usage:        6 bytes
  2692 ;; Hardware stack levels used: 1
  2693 ;; Hardware stack levels required when called: 9
  2694 ;; This function calls:
  2695 ;;		NULL
  2696 ;;		_UART2_ReceiveISR
  2697 ;;		_UART2_TransmitISR
  2698 ;; This function is called by:
  2699 ;;		Interrupt level 2
  2700 ;; This function uses a non-reentrant model
  2701 ;;
  2702                           
  2703                           	psect	text20
  2704   002572                     __ptext20:
  2705                           	callstack 0
  2706   002572                     _INTERRUPT_InterruptManager:
  2707                           	callstack 15
  2708                           
  2709                           ; BSR set to: 57
  2710                           ;incstack = 0
  2711   002572  006F FFE8  F042    	movff	pclath,??_INTERRUPT_InterruptManager
  2712   002578  006F FFEC  F043    	movff	pclatu,??_INTERRUPT_InterruptManager+1
  2713   00257E  006F FFD8  F044    	movff	tblptrl,??_INTERRUPT_InterruptManager+2
  2714   002584  006F FFDC  F045    	movff	tblptrh,??_INTERRUPT_InterruptManager+3
  2715   00258A  006F FFE0  F046    	movff	tblptru,??_INTERRUPT_InterruptManager+4
  2716   002590  006F FFD4  F047    	movff	tablat,??_INTERRUPT_InterruptManager+5
  2717   002596                     
  2718                           ;mcc_generated_files/system/src/interrupt.c: 83:     if(PIE6bits.U2TXIE == 1 && PIR6bits
      +                          .U2TXIF == 1)
  2719   002596  0139               	movlb	57	; () banked
  2720   002598  A796               	btfss	150,3,b	;volatile
  2721   00259A  EFD1  F012         	goto	i2u167_41
  2722   00259E  EFD3  F012         	goto	i2u167_40
  2723   0025A2                     i2u167_41:
  2724   0025A2  EFEA  F012         	goto	i2l48
  2725   0025A6                     i2u167_40:
  2726   0025A6                     
  2727                           ; BSR set to: 57
  2728   0025A6  A7A6               	btfss	166,3,b	;volatile
  2729   0025A8  EFD8  F012         	goto	i2u168_41
  2730   0025AC  EFDA  F012         	goto	i2u168_40
  2731   0025B0                     i2u168_41:
  2732   0025B0  EFEA  F012         	goto	i2l48
  2733   0025B4                     i2u168_40:
  2734   0025B4                     
  2735                           ; BSR set to: 57
  2736                           ;mcc_generated_files/system/src/interrupt.c: 84:     {;mcc_generated_files/system/src/in
      +                          terrupt.c: 85:         UART2_TxInterruptHandler();
  2737   0025B4  D802               	call	i2u169_48
  2738   0025B6  EFE8  F012         	goto	i2u169_49
  2739   0025BA                     i2u169_48:
  2740   0025BA  0005               	push	
  2741   0025BC  6EFA               	movwf	pclath,c
  2742   0025BE  0100               	movlb	0	; () banked
  2743   0025C0  51A2               	movf	_UART2_TxInterruptHandler& (0+255),w,b
  2744   0025C2  6EFD               	movwf	tosl,c
  2745   0025C4  51A3               	movf	(_UART2_TxInterruptHandler+1)& (0+255),w,b
  2746   0025C6  6EFE               	movwf	tosh,c
  2747   0025C8  51A4               	movf	(_UART2_TxInterruptHandler+2)& (0+255),w,b
  2748   0025CA  6EFF               	movwf	tosu,c
  2749   0025CC  50FA               	movf	pclath,w,c
  2750   0025CE  0012               	return		;indir
  2751   0025D0                     i2u169_49:
  2752                           
  2753                           ;mcc_generated_files/system/src/interrupt.c: 86:     }
  2754   0025D0  EF06  F013         	goto	i2l52
  2755   0025D4                     i2l48:
  2756                           
  2757                           ; BSR set to: 57
  2758   0025D4  A596               	btfss	150,2,b	;volatile
  2759   0025D6  EFEF  F012         	goto	i2u170_41
  2760   0025DA  EFF1  F012         	goto	i2u170_40
  2761   0025DE                     i2u170_41:
  2762   0025DE  EF06  F013         	goto	i2l52
  2763   0025E2                     i2u170_40:
  2764   0025E2                     
  2765                           ; BSR set to: 57
  2766   0025E2  A5A6               	btfss	166,2,b	;volatile
  2767   0025E4  EFF6  F012         	goto	i2u171_41
  2768   0025E8  EFF8  F012         	goto	i2u171_40
  2769   0025EC                     i2u171_41:
  2770   0025EC  EF06  F013         	goto	i2l52
  2771   0025F0                     i2u171_40:
  2772   0025F0                     
  2773                           ; BSR set to: 57
  2774                           ;mcc_generated_files/system/src/interrupt.c: 88:     {;mcc_generated_files/system/src/in
      +                          terrupt.c: 89:         UART2_RxInterruptHandler();
  2775   0025F0  D802               	call	i2u172_48
  2776   0025F2  EF06  F013         	goto	i2u172_49
  2777   0025F6                     i2u172_48:
  2778   0025F6  0005               	push	
  2779   0025F8  6EFA               	movwf	pclath,c
  2780   0025FA  0100               	movlb	0	; () banked
  2781   0025FC  519F               	movf	_UART2_RxInterruptHandler& (0+255),w,b
  2782   0025FE  6EFD               	movwf	tosl,c
  2783   002600  51A0               	movf	(_UART2_RxInterruptHandler+1)& (0+255),w,b
  2784   002602  6EFE               	movwf	tosh,c
  2785   002604  51A1               	movf	(_UART2_RxInterruptHandler+2)& (0+255),w,b
  2786   002606  6EFF               	movwf	tosu,c
  2787   002608  50FA               	movf	pclath,w,c
  2788   00260A  0012               	return		;indir
  2789   00260C                     i2u172_49:
  2790   00260C                     i2l52:
  2791   00260C  0060  F11F  FFF5   	movff	??_INTERRUPT_InterruptManager+5,tablat
  2792   002612  0060  F11B  FFF8   	movff	??_INTERRUPT_InterruptManager+4,tblptru
  2793   002618  0060  F117  FFF7   	movff	??_INTERRUPT_InterruptManager+3,tblptrh
  2794   00261E  0060  F113  FFF6   	movff	??_INTERRUPT_InterruptManager+2,tblptrl
  2795   002624  0060  F10F  FFFB   	movff	??_INTERRUPT_InterruptManager+1,pclatu
  2796   00262A  0060  F10B  FFFA   	movff	??_INTERRUPT_InterruptManager,pclath
  2797   002630  0011               	retfie		f
  2798   002632                     __end_of_INTERRUPT_InterruptManager:
  2799                           	callstack 0
  2800                           
  2801 ;; *************** function _UART2_TransmitISR *****************
  2802 ;; Defined at:
  2803 ;;		line 391 in file "mcc_generated_files/uart/src/uart2.c"
  2804 ;; Parameters:    Size  Location     Type
  2805 ;;		None
  2806 ;; Auto vars:     Size  Location     Type
  2807 ;;  tempTxTail      1    0[COMRAM] unsigned char 
  2808 ;; Return value:  Size  Location     Type
  2809 ;;                  1    wreg      void 
  2810 ;; Registers used:
  2811 ;;		wreg, fsr2l, fsr2h, status,2, status,0
  2812 ;; Tracked objects:
  2813 ;;		On entry : 0/0
  2814 ;;		On exit  : 0/0
  2815 ;;		Unchanged: 0/0
  2816 ;; Data sizes:     COMRAM   BANK0   BANK1   BANK2   BANK3   BANK4   BANK5   BANK6   BANK7   BANK8   BANK9  BANK10  BANK1
      +1  BANK12  BANK13  BANK14  BANK15  BANK16  BANK17  BANK18  BANK19  BANK20  BANK21  BANK22  BANK23  BANK24  BANK25  BANK2
      +6  BANK27  BANK28  BANK29  BANK30  BANK31
  2817 ;;      Params:         0       0       0       0       0       0       0       0       0       0       0       0       
      +0       0       0       0       0       0       0       0       0       0       0       0       0       0       0       
      +0       0       0       0       0       0
  2818 ;;      Locals:         1       0       0       0       0       0       0       0       0       0       0       0       
      +0       0       0       0       0       0       0       0       0       0       0       0       0       0       0       
      +0       0       0       0       0       0
  2819 ;;      Temps:          0       0       0       0       0       0       0       0       0       0       0       0       
      +0       0       0       0       0       0       0       0       0       0       0       0       0       0       0       
      +0       0       0       0       0       0
  2820 ;;      Totals:         1       0       0       0       0       0       0       0       0       0       0       0       
      +0       0       0       0       0       0       0       0       0       0       0       0       0       0       0       
      +0       0       0       0       0       0
  2821 ;;Total ram usage:        1 bytes
  2822 ;; Hardware stack levels used: 1
  2823 ;; This function calls:
  2824 ;;		Nothing
  2825 ;; This function is called by:
  2826 ;;		_UART2_Initialize
  2827 ;;		_INTERRUPT_InterruptManager
  2828 ;; This function uses a non-reentrant model
  2829 ;;
  2830                           
  2831                           	psect	text21
  2832   002B08                     __ptext21:
  2833                           	callstack 0
  2834   002B08                     _UART2_TransmitISR:
  2835                           	callstack 23
  2836   002B08                     
  2837                           ;mcc_generated_files/uart/src/uart2.c: 393:     uint8_t tempTxTail;;mcc_generated_files/
      +                          uart/src/uart2.c: 395:     if(sizeof(uart2TxBuffer) > uart2TxBufferRemaining)
  2838   002B08  0E80               	movlw	128
  2839   002B0A  6025               	cpfslt	_uart2TxBufferRemaining^0,c	;volatile
  2840   002B0C  EF8A  F015         	goto	i2u113_41
  2841   002B10  EF8C  F015         	goto	i2u113_40
  2842   002B14                     i2u113_41:
  2843   002B14  EF9D  F015         	goto	i2l452
  2844   002B18                     i2u113_40:
  2845   002B18                     
  2846                           ;mcc_generated_files/uart/src/uart2.c: 396:     {;mcc_generated_files/uart/src/uart2.c: 
      +                          397:        U2TXB = uart2TxBuffer[uart2TxTail];
  2847   002B18  0E80               	movlw	low _uart2TxBuffer
  2848   002B1A  2426               	addwf	_uart2TxTail^0,w,c	;volatile
  2849   002B1C  6ED9               	movwf	fsr2l,c
  2850   002B1E  6ADA               	clrf	fsr2h,c
  2851   002B20  0E01               	movlw	high _uart2TxBuffer
  2852   002B22  22DA               	addwfc	fsr2h,f,c
  2853   002B24  50DF               	movf	indf2,w,c
  2854   002B26  013D               	movlb	61	; () banked
  2855   002B28  6FD2               	movwf	210,b	;volatile
  2856   002B2A                     
  2857                           ; BSR set to: 61
  2858                           ;mcc_generated_files/uart/src/uart2.c: 398:        tempTxTail = (uart2TxTail + 1) & ((12
      +                          8) - 1);
  2859   002B2A  2826               	incf	_uart2TxTail^0,w,c	;volatile
  2860   002B2C  0B7F               	andlw	127
  2861   002B2E  6E28               	movwf	UART2_TransmitISR@tempTxTail^0,c
  2862   002B30                     
  2863                           ; BSR set to: 61
  2864                           ;mcc_generated_files/uart/src/uart2.c: 400:        uart2TxTail = tempTxTail;
  2865   002B30  C028  F026         	movff	UART2_TransmitISR@tempTxTail,_uart2TxTail	;volatile
  2866   002B34                     
  2867                           ; BSR set to: 61
  2868                           ;mcc_generated_files/uart/src/uart2.c: 401:        uart2TxBufferRemaining++;
  2869   002B34  2A25               	incf	_uart2TxBufferRemaining^0,f,c	;volatile
  2870                           
  2871                           ;mcc_generated_files/uart/src/uart2.c: 402:     }
  2872   002B36  EF9F  F015         	goto	i2l455
  2873   002B3A                     i2l452:
  2874                           
  2875                           ;mcc_generated_files/uart/src/uart2.c: 404:     {;mcc_generated_files/uart/src/uart2.c: 
      +                          405:         PIE6bits.U2TXIE = 0;
  2876   002B3A  0139               	movlb	57	; () banked
  2877   002B3C  9796               	bcf	150,3,b	;volatile
  2878   002B3E                     i2l455:
  2879   002B3E  0012               	return		;funcret
  2880   002B40                     __end_of_UART2_TransmitISR:
  2881                           	callstack 0
  2882                           
  2883 ;; *************** function _UART2_ReceiveISR *****************
  2884 ;; Defined at:
  2885 ;;		line 322 in file "mcc_generated_files/uart/src/uart2.c"
  2886 ;; Parameters:    Size  Location     Type
  2887 ;;		None
  2888 ;; Auto vars:     Size  Location     Type
  2889 ;;  tempRxHead      1   25[COMRAM] unsigned char 
  2890 ;;  regValue        1   24[COMRAM] unsigned char 
  2891 ;; Return value:  Size  Location     Type
  2892 ;;                  1    wreg      void 
  2893 ;; Registers used:
  2894 ;;		wreg, fsr1l, fsr1h, fsr2l, fsr2h, status,2, status,0, pcl, pclath, pclatu, tosl, tblptrl, tblptrh, tblptru, prodl, p
      +rodh, cstack
  2895 ;; Tracked objects:
  2896 ;;		On entry : 0/0
  2897 ;;		On exit  : 0/0
  2898 ;;		Unchanged: 0/0
  2899 ;; Data sizes:     COMRAM   BANK0   BANK1   BANK2   BANK3   BANK4   BANK5   BANK6   BANK7   BANK8   BANK9  BANK10  BANK1
      +1  BANK12  BANK13  BANK14  BANK15  BANK16  BANK17  BANK18  BANK19  BANK20  BANK21  BANK22  BANK23  BANK24  BANK25  BANK2
      +6  BANK27  BANK28  BANK29  BANK30  BANK31
  2900 ;;      Params:         0       0       0       0       0       0       0       0       0       0       0       0       
      +0       0       0       0       0       0       0       0       0       0       0       0       0       0       0       
      +0       0       0       0       0       0
  2901 ;;      Locals:         2       0       0       0       0       0       0       0       0       0       0       0       
      +0       0       0       0       0       0       0       0       0       0       0       0       0       0       0       
      +0       0       0       0       0       0
  2902 ;;      Temps:          0       0       0       0       0       0       0       0       0       0       0       0       
      +0       0       0       0       0       0       0       0       0       0       0       0       0       0       0       
      +0       0       0       0       0       0
  2903 ;;      Totals:         2       0       0       0       0       0       0       0       0       0       0       0       
      +0       0       0       0       0       0       0       0       0       0       0       0       0       0       0       
      +0       0       0       0       0       0
  2904 ;;Total ram usage:        2 bytes
  2905 ;; Hardware stack levels used: 1
  2906 ;; Hardware stack levels required when called: 8
  2907 ;; This function calls:
  2908 ;;		NULL
  2909 ;;		_UART2_DefaultFramingErrorCallback
  2910 ;;		_UART2_DefaultOverrunErrorCallback
  2911 ;;		_UART_ProcessCommand
  2912 ;; This function is called by:
  2913 ;;		_UART2_Initialize
  2914 ;;		_INTERRUPT_InterruptManager
  2915 ;; This function uses a non-reentrant model
  2916 ;;
  2917                           
  2918                           	psect	text22
  2919   0020FA                     __ptext22:
  2920                           	callstack 0
  2921   0020FA                     _UART2_ReceiveISR:
  2922                           	callstack 15
  2923   0020FA                     
  2924                           ;mcc_generated_files/uart/src/uart2.c: 324:     uint8_t regValue;;mcc_generated_files/ua
      +                          rt/src/uart2.c: 325:  uint8_t tempRxHead;;mcc_generated_files/uart/src/uart2.c: 327:    
      +                           uart2RxStatusBuffer[uart2RxHead].status = 0;
  2925   0020FA  5024               	movf	_uart2RxHead^0,w,c	;volatile
  2926   0020FC  0D02               	mullw	2
  2927   0020FE  0E00               	movlw	low _uart2RxStatusBuffer
  2928   002100  24F3               	addwf	243,w,c
  2929   002102  6ED9               	movwf	fsr2l,c
  2930   002104  0E02               	movlw	high _uart2RxStatusBuffer
  2931   002106  20F4               	addwfc	prodh,w,c
  2932   002108  6EDA               	movwf	fsr2h,c
  2933   00210A  6ADE               	clrf	postinc2,c
  2934   00210C  6ADD               	clrf	postdec2,c
  2935   00210E                     
  2936                           ;mcc_generated_files/uart/src/uart2.c: 329:     if(U2ERRIRbits.FERIF)
  2937   00210E  013D               	movlb	61	; () banked
  2938   002110  A7E1               	btfss	225,3,b	;volatile
  2939   002112  EF8D  F010         	goto	i2u157_41
  2940   002116  EF8F  F010         	goto	i2u157_40
  2941   00211A                     i2u157_41:
  2942   00211A  EFB0  F010         	goto	i2l2508
  2943   00211E                     i2u157_40:
  2944   00211E                     
  2945                           ; BSR set to: 61
  2946                           ;mcc_generated_files/uart/src/uart2.c: 330:     {;mcc_generated_files/uart/src/uart2.c: 
      +                          331:         uart2RxStatusBuffer[uart2RxHead].ferr = 1;
  2947   00211E  5024               	movf	_uart2RxHead^0,w,c	;volatile
  2948   002120  0D02               	mullw	2
  2949   002122  0E00               	movlw	low _uart2RxStatusBuffer
  2950   002124  24F3               	addwf	243,w,c
  2951   002126  6ED9               	movwf	fsr2l,c
  2952   002128  0E02               	movlw	high _uart2RxStatusBuffer
  2953   00212A  20F4               	addwfc	prodh,w,c
  2954   00212C  6EDA               	movwf	fsr2h,c
  2955   00212E  0102               	movlb	2	; () banked
  2956   002130  82DF               	bsf	indf2,1,c
  2957   002132                     
  2958                           ; BSR set to: 2
  2959                           ;mcc_generated_files/uart/src/uart2.c: 332:         if(((void*)0) != UART2_FramingErrorH
      +                          andler)
  2960   002132  500D               	movf	_UART2_FramingErrorHandler^0,w,c
  2961   002134  100E               	iorwf	(_UART2_FramingErrorHandler+1)^0,w,c
  2962   002136  100F               	iorwf	(_UART2_FramingErrorHandler+2)^0,w,c
  2963   002138  B4D8               	btfsc	status,2,c
  2964   00213A  EFA1  F010         	goto	i2u158_41
  2965   00213E  EFA3  F010         	goto	i2u158_40
  2966   002142                     i2u158_41:
  2967   002142  EFB0  F010         	goto	i2l2508
  2968   002146                     i2u158_40:
  2969   002146                     
  2970                           ; BSR set to: 2
  2971                           ;mcc_generated_files/uart/src/uart2.c: 333:         {;mcc_generated_files/uart/src/uart2
      +                          .c: 334:             UART2_FramingErrorHandler();
  2972   002146  D802               	call	i2u159_48
  2973   002148  EFB0  F010         	goto	i2u159_49
  2974   00214C                     i2u159_48:
  2975   00214C  0005               	push	
  2976   00214E  6EFA               	movwf	pclath,c
  2977   002150  500D               	movf	_UART2_FramingErrorHandler^0,w,c
  2978   002152  6EFD               	movwf	tosl,c
  2979   002154  500E               	movf	(_UART2_FramingErrorHandler+1)^0,w,c
  2980   002156  6EFE               	movwf	tosh,c
  2981   002158  500F               	movf	(_UART2_FramingErrorHandler+2)^0,w,c
  2982   00215A  6EFF               	movwf	tosu,c
  2983   00215C  50FA               	movf	pclath,w,c
  2984   00215E  0012               	return		;indir
  2985   002160                     i2u159_49:
  2986   002160                     i2l2508:
  2987                           
  2988                           ;mcc_generated_files/uart/src/uart2.c: 337:     if(U2ERRIRbits.RXFOIF)
  2989   002160  013D               	movlb	61	; () banked
  2990   002162  A3E1               	btfss	225,1,b	;volatile
  2991   002164  EFB6  F010         	goto	i2u160_41
  2992   002168  EFB8  F010         	goto	i2u160_40
  2993   00216C                     i2u160_41:
  2994   00216C  EFD9  F010         	goto	i2l2516
  2995   002170                     i2u160_40:
  2996   002170                     
  2997                           ; BSR set to: 61
  2998                           ;mcc_generated_files/uart/src/uart2.c: 338:     {;mcc_generated_files/uart/src/uart2.c: 
      +                          339:         uart2RxStatusBuffer[uart2RxHead].oerr = 1;
  2999   002170  5024               	movf	_uart2RxHead^0,w,c	;volatile
  3000   002172  0D02               	mullw	2
  3001   002174  0E00               	movlw	low _uart2RxStatusBuffer
  3002   002176  24F3               	addwf	243,w,c
  3003   002178  6ED9               	movwf	fsr2l,c
  3004   00217A  0E02               	movlw	high _uart2RxStatusBuffer
  3005   00217C  20F4               	addwfc	prodh,w,c
  3006   00217E  6EDA               	movwf	fsr2h,c
  3007   002180  0102               	movlb	2	; () banked
  3008   002182  84DF               	bsf	indf2,2,c
  3009   002184                     
  3010                           ; BSR set to: 2
  3011                           ;mcc_generated_files/uart/src/uart2.c: 340:         if(((void*)0) != UART2_OverrunErrorH
      +                          andler)
  3012   002184  500A               	movf	_UART2_OverrunErrorHandler^0,w,c
  3013   002186  100B               	iorwf	(_UART2_OverrunErrorHandler+1)^0,w,c
  3014   002188  100C               	iorwf	(_UART2_OverrunErrorHandler+2)^0,w,c
  3015   00218A  B4D8               	btfsc	status,2,c
  3016   00218C  EFCA  F010         	goto	i2u161_41
  3017   002190  EFCC  F010         	goto	i2u161_40
  3018   002194                     i2u161_41:
  3019   002194  EFD9  F010         	goto	i2l2516
  3020   002198                     i2u161_40:
  3021   002198                     
  3022                           ; BSR set to: 2
  3023                           ;mcc_generated_files/uart/src/uart2.c: 341:         {;mcc_generated_files/uart/src/uart2
      +                          .c: 342:             UART2_OverrunErrorHandler();
  3024   002198  D802               	call	i2u162_48
  3025   00219A  EFD9  F010         	goto	i2u162_49
  3026   00219E                     i2u162_48:
  3027   00219E  0005               	push	
  3028   0021A0  6EFA               	movwf	pclath,c
  3029   0021A2  500A               	movf	_UART2_OverrunErrorHandler^0,w,c
  3030   0021A4  6EFD               	movwf	tosl,c
  3031   0021A6  500B               	movf	(_UART2_OverrunErrorHandler+1)^0,w,c
  3032   0021A8  6EFE               	movwf	tosh,c
  3033   0021AA  500C               	movf	(_UART2_OverrunErrorHandler+2)^0,w,c
  3034   0021AC  6EFF               	movwf	tosu,c
  3035   0021AE  50FA               	movf	pclath,w,c
  3036   0021B0  0012               	return		;indir
  3037   0021B2                     i2u162_49:
  3038   0021B2                     i2l2516:
  3039                           
  3040                           ;mcc_generated_files/uart/src/uart2.c: 346:     regValue = U2RXB;
  3041   0021B2  006F F740  F040    	movff	15824,UART2_ReceiveISR@regValue	;volatile
  3042   0021B8                     
  3043                           ;mcc_generated_files/uart/src/uart2.c: 348:     tempRxHead = (uart2RxHead + 1) & ((128) 
      +                          - 1);
  3044   0021B8  2824               	incf	_uart2RxHead^0,w,c	;volatile
  3045   0021BA  0B7F               	andlw	127
  3046   0021BC  6E41               	movwf	UART2_ReceiveISR@tempRxHead^0,c
  3047   0021BE                     
  3048                           ;mcc_generated_files/uart/src/uart2.c: 349:     if (tempRxHead == uart2RxTail)
  3049   0021BE  5023               	movf	_uart2RxTail^0,w,c	;volatile
  3050   0021C0  1841               	xorwf	UART2_ReceiveISR@tempRxHead^0,w,c
  3051   0021C2  A4D8               	btfss	status,2,c
  3052   0021C4  EFE6  F010         	goto	i2u163_41
  3053   0021C8  EFE8  F010         	goto	i2u163_40
  3054   0021CC                     i2u163_41:
  3055   0021CC  EFEA  F010         	goto	i2l2524
  3056   0021D0                     i2u163_40:
  3057   0021D0  EFF6  F010         	goto	i2l2530
  3058   0021D4                     i2l2524:
  3059                           
  3060                           ;mcc_generated_files/uart/src/uart2.c: 354:     {;mcc_generated_files/uart/src/uart2.c: 
      +                          355:         uart2RxBuffer[uart2RxHead] = regValue;
  3061   0021D4  0E00               	movlw	low _uart2RxBuffer
  3062   0021D6  2424               	addwf	_uart2RxHead^0,w,c	;volatile
  3063   0021D8  6ED9               	movwf	fsr2l,c
  3064   0021DA  6ADA               	clrf	fsr2h,c
  3065   0021DC  0E01               	movlw	high _uart2RxBuffer
  3066   0021DE  22DA               	addwfc	fsr2h,f,c
  3067   0021E0  0060  F103  FFDF   	movff	UART2_ReceiveISR@regValue,indf2
  3068   0021E6                     
  3069                           ;mcc_generated_files/uart/src/uart2.c: 356:   uart2RxHead = tempRxHead;
  3070   0021E6  C041  F024         	movff	UART2_ReceiveISR@tempRxHead,_uart2RxHead	;volatile
  3071   0021EA                     
  3072                           ;mcc_generated_files/uart/src/uart2.c: 357:   uart2RxCount++;
  3073   0021EA  2A22               	incf	_uart2RxCount^0,f,c	;volatile
  3074   0021EC                     i2l2530:
  3075                           
  3076                           ;mcc_generated_files/uart/src/uart2.c: 360:     if(UART2_RxCompleteInterruptHandler != (
      +                          (void*)0))
  3077   0021EC  5001               	movf	_UART2_RxCompleteInterruptHandler^0,w,c
  3078   0021EE  1002               	iorwf	(_UART2_RxCompleteInterruptHandler+1)^0,w,c
  3079   0021F0  1003               	iorwf	(_UART2_RxCompleteInterruptHandler+2)^0,w,c
  3080   0021F2  B4D8               	btfsc	status,2,c
  3081   0021F4  EFFE  F010         	goto	i2u164_41
  3082   0021F8  EF00  F011         	goto	i2u164_40
  3083   0021FC                     i2u164_41:
  3084   0021FC  EF0D  F011         	goto	i2l442
  3085   002200                     i2u164_40:
  3086   002200                     
  3087                           ;mcc_generated_files/uart/src/uart2.c: 361:     {;mcc_generated_files/uart/src/uart2.c: 
      +                          362:         (*UART2_RxCompleteInterruptHandler)();
  3088   002200  D802               	call	i2u165_48
  3089   002202  EF0D  F011         	goto	i2u165_49
  3090   002206                     i2u165_48:
  3091   002206  0005               	push	
  3092   002208  6EFA               	movwf	pclath,c
  3093   00220A  5001               	movf	_UART2_RxCompleteInterruptHandler^0,w,c
  3094   00220C  6EFD               	movwf	tosl,c
  3095   00220E  5002               	movf	(_UART2_RxCompleteInterruptHandler+1)^0,w,c
  3096   002210  6EFE               	movwf	tosh,c
  3097   002212  5003               	movf	(_UART2_RxCompleteInterruptHandler+2)^0,w,c
  3098   002214  6EFF               	movwf	tosu,c
  3099   002216  50FA               	movf	pclath,w,c
  3100   002218  0012               	return		;indir
  3101   00221A                     i2u165_49:
  3102   00221A                     i2l442:
  3103   00221A  0012               	return		;funcret
  3104   00221C                     __end_of_UART2_ReceiveISR:
  3105                           	callstack 0
  3106                           
  3107 ;; *************** function _UART_ProcessCommand *****************
  3108 ;; Defined at:
  3109 ;;		line 89 in file "main.c"
  3110 ;; Parameters:    Size  Location     Type
  3111 ;;		None
  3112 ;; Auto vars:     Size  Location     Type
  3113 ;;		None
  3114 ;; Return value:  Size  Location     Type
  3115 ;;                  1    wreg      void 
  3116 ;; Registers used:
  3117 ;;		wreg, fsr1l, fsr1h, fsr2l, fsr2h, status,2, status,0, pcl, pclath, pclatu, tosl, tblptrl, tblptrh, tblptru, cstack
  3118 ;; Tracked objects:
  3119 ;;		On entry : 0/0
  3120 ;;		On exit  : 0/0
  3121 ;;		Unchanged: 0/0
  3122 ;; Data sizes:     COMRAM   BANK0   BANK1   BANK2   BANK3   BANK4   BANK5   BANK6   BANK7   BANK8   BANK9  BANK10  BANK1
      +1  BANK12  BANK13  BANK14  BANK15  BANK16  BANK17  BANK18  BANK19  BANK20  BANK21  BANK22  BANK23  BANK24  BANK25  BANK2
      +6  BANK27  BANK28  BANK29  BANK30  BANK31
  3123 ;;      Params:         0       0       0       0       0       0       0       0       0       0       0       0       
      +0       0       0       0       0       0       0       0       0       0       0       0       0       0       0       
      +0       0       0       0       0       0
  3124 ;;      Locals:         0       0       0       0       0       0       0       0       0       0       0       0       
      +0       0       0       0       0       0       0       0       0       0       0       0       0       0       0       
      +0       0       0       0       0       0
  3125 ;;      Temps:          0       0       0       0       0       0       0       0       0       0       0       0       
      +0       0       0       0       0       0       0       0       0       0       0       0       0       0       0       
      +0       0       0       0       0       0
  3126 ;;      Totals:         0       0       0       0       0       0       0       0       0       0       0       0       
      +0       0       0       0       0       0       0       0       0       0       0       0       0       0       0       
      +0       0       0       0       0       0
  3127 ;;Total ram usage:        0 bytes
  3128 ;; Hardware stack levels used: 1
  3129 ;; Hardware stack levels required when called: 7
  3130 ;; This function calls:
  3131 ;;		_UART2_IsRxReady
  3132 ;;		_UART2_Read
  3133 ;;		_UART_executeCommand
  3134 ;; This function is called by:
  3135 ;;		_main
  3136 ;;		_UART2_ReceiveISR
  3137 ;; This function uses a non-reentrant model
  3138 ;;
  3139                           
  3140                           	psect	text23
  3141   00221C                     __ptext23:
  3142                           	callstack 0
  3143   00221C                     _UART_ProcessCommand:
  3144                           	callstack 15
  3145   00221C                     
  3146                           ;main.c: 92:     if(UART2.IsRxReady())
  3147   00221C  0E0D               	movlw	low (_UART2+12)
  3148   00221E  6EF6               	movwf	tblptrl,c
  3149   002220                     	if	1	;There is more than 1 active tblptr byte
  3150   002220  0E20               	movlw	high __smallconst
  3151   002222  6EF7               	movwf	tblptrh,c
  3152   002224                     	endif
  3153   002224                     	if	0	;tblptru may be non-zero
  3154   002224                     	endif
  3155   002224                     	if	1	;Program memory is > 0xFFFF, there are 3 active tblptr bytes
  3156   002224  0E00               	movlw	low (__smallconst shr (0+16))
  3157   002226  6EF8               	movwf	tblptru,c
  3158   002228                     	endif
  3159   002228  D802               	call	i2u149_48
  3160   00222A  EF24  F011         	goto	i2u149_49
  3161   00222E                     i2u149_48:
  3162   00222E  0005               	push	
  3163   002230  6EFA               	movwf	pclath,c
  3164   002232  0009               	tblrd		*+
  3165   002234  50F5               	movf	tablat,w,c
  3166   002236  6EFD               	movwf	tosl,c
  3167   002238  0009               	tblrd		*+
  3168   00223A  50F5               	movf	tablat,w,c
  3169   00223C  6EFE               	movwf	tosh,c
  3170   00223E  0009               	tblrd		*+
  3171   002240  50F5               	movf	tablat,w,c
  3172   002242  6EFF               	movwf	tosu,c
  3173   002244  50FA               	movf	pclath,w,c
  3174   002246  0012               	return		;indir
  3175   002248                     i2u149_49:
  3176   002248  0900               	iorlw	0
  3177   00224A  B4D8               	btfsc	status,2,c
  3178   00224C  EF2A  F011         	goto	i2u150_41
  3179   002250  EF2C  F011         	goto	i2u150_40
  3180   002254                     i2u150_41:
  3181   002254  EF7B  F011         	goto	i2l554
  3182   002258                     i2u150_40:
  3183   002258                     
  3184                           ;main.c: 93:     {;main.c: 94:         read_msg = UART2.Read();
  3185   002258  0E07               	movlw	low (_UART2+6)
  3186   00225A  6EF6               	movwf	tblptrl,c
  3187   00225C                     	if	1	;There is more than 1 active tblptr byte
  3188   00225C  0E20               	movlw	high __smallconst
  3189   00225E  6EF7               	movwf	tblptrh,c
  3190   002260                     	endif
  3191   002260                     	if	0	;tblptru may be non-zero
  3192   002260                     	endif
  3193   002260                     	if	1	;Program memory is > 0xFFFF, there are 3 active tblptr bytes
  3194   002260  0E00               	movlw	low (__smallconst shr (0+16))
  3195   002262  6EF8               	movwf	tblptru,c
  3196   002264                     	endif
  3197   002264  D802               	call	i2u151_48
  3198   002266  EF42  F011         	goto	i2u151_49
  3199   00226A                     i2u151_48:
  3200   00226A  0005               	push	
  3201   00226C  6EFA               	movwf	pclath,c
  3202   00226E  0009               	tblrd		*+
  3203   002270  50F5               	movf	tablat,w,c
  3204   002272  6EFD               	movwf	tosl,c
  3205   002274  0009               	tblrd		*+
  3206   002276  50F5               	movf	tablat,w,c
  3207   002278  6EFE               	movwf	tosh,c
  3208   00227A  0009               	tblrd		*+
  3209   00227C  50F5               	movf	tablat,w,c
  3210   00227E  6EFF               	movwf	tosu,c
  3211   002280  50FA               	movf	pclath,w,c
  3212   002282  0012               	return		;indir
  3213   002284                     i2u151_49:
  3214   002284  6E20               	movwf	_read_msg^0,c
  3215   002286                     
  3216                           ;main.c: 95:         if(read_msg != '\n' && read_msg != '\r')
  3217   002286  0E0A               	movlw	10
  3218   002288  1820               	xorwf	_read_msg^0,w,c
  3219   00228A  B4D8               	btfsc	status,2,c
  3220   00228C  EF4A  F011         	goto	i2u152_41
  3221   002290  EF4C  F011         	goto	i2u152_40
  3222   002294                     i2u152_41:
  3223   002294  EF67  F011         	goto	i2l2474
  3224   002298                     i2u152_40:
  3225   002298  0E0D               	movlw	13
  3226   00229A  1820               	xorwf	_read_msg^0,w,c
  3227   00229C  B4D8               	btfsc	status,2,c
  3228   00229E  EF53  F011         	goto	i2u153_41
  3229   0022A2  EF55  F011         	goto	i2u153_40
  3230   0022A6                     i2u153_41:
  3231   0022A6  EF67  F011         	goto	i2l2474
  3232   0022AA                     i2u153_40:
  3233   0022AA                     
  3234                           ;main.c: 96:         {;main.c: 97:             command[index++] = read_msg;
  3235   0022AA  5021               	movf	_index^0,w,c
  3236   0022AC  0F80               	addlw	low _command
  3237   0022AE  6ED9               	movwf	fsr2l,c
  3238   0022B0  6ADA               	clrf	fsr2h,c
  3239   0022B2  0060  F083  FFDF   	movff	_read_msg,indf2
  3240   0022B8  2A21               	incf	_index^0,f,c
  3241   0022BA                     
  3242                           ;main.c: 98:             if((index) > 8)
  3243   0022BA  0E08               	movlw	8
  3244   0022BC  6421               	cpfsgt	_index^0,c
  3245   0022BE  EF63  F011         	goto	i2u154_41
  3246   0022C2  EF65  F011         	goto	i2u154_40
  3247   0022C6                     i2u154_41:
  3248   0022C6  EF67  F011         	goto	i2l2474
  3249   0022CA                     i2u154_40:
  3250   0022CA                     
  3251                           ;main.c: 99:             {;main.c: 100:                 (index) = 0;
  3252   0022CA  0E00               	movlw	0
  3253   0022CC  6E21               	movwf	_index^0,c
  3254   0022CE                     i2l2474:
  3255                           
  3256                           ;main.c: 103:         if(read_msg == '\n')
  3257   0022CE  0E0A               	movlw	10
  3258   0022D0  1820               	xorwf	_read_msg^0,w,c
  3259   0022D2  A4D8               	btfss	status,2,c
  3260   0022D4  EF6E  F011         	goto	i2u155_41
  3261   0022D8  EF70  F011         	goto	i2u155_40
  3262   0022DC                     i2u155_41:
  3263   0022DC  EF7B  F011         	goto	i2l554
  3264   0022E0                     i2u155_40:
  3265   0022E0                     
  3266                           ;main.c: 104:         {;main.c: 105:             command[index] = '\0';
  3267   0022E0  5021               	movf	_index^0,w,c
  3268   0022E2  0F80               	addlw	low _command
  3269   0022E4  6ED9               	movwf	fsr2l,c
  3270   0022E6  6ADA               	clrf	fsr2h,c
  3271   0022E8  6ADF               	clrf	indf2,c
  3272   0022EA                     
  3273                           ;main.c: 106:             index = 0;
  3274   0022EA  0E00               	movlw	0
  3275   0022EC  6E21               	movwf	_index^0,c
  3276   0022EE                     
  3277                           ;main.c: 107:             UART_executeCommand(command);
  3278   0022EE  0E80               	movlw	low _command
  3279   0022F0  6E3F               	movwf	UART_executeCommand@command^0,c
  3280   0022F2  EC62  F014         	call	_UART_executeCommand	;wreg free
  3281   0022F6                     i2l554:
  3282   0022F6  0012               	return		;funcret
  3283   0022F8                     __end_of_UART_ProcessCommand:
  3284                           	callstack 0
  3285                           
  3286 ;; *************** function _UART_executeCommand *****************
  3287 ;; Defined at:
  3288 ;;		line 72 in file "main.c"
  3289 ;; Parameters:    Size  Location     Type
  3290 ;;  command         1   23[COMRAM] PTR unsigned char 
  3291 ;;		 -> command(8), 
  3292 ;; Auto vars:     Size  Location     Type
  3293 ;;		None
  3294 ;; Return value:  Size  Location     Type
  3295 ;;                  1    wreg      void 
  3296 ;; Registers used:
  3297 ;;		wreg, fsr1l, fsr1h, fsr2l, fsr2h, status,2, status,0, tblptrl, tblptrh, tblptru, cstack
  3298 ;; Tracked objects:
  3299 ;;		On entry : 0/0
  3300 ;;		On exit  : 0/0
  3301 ;;		Unchanged: 0/0
  3302 ;; Data sizes:     COMRAM   BANK0   BANK1   BANK2   BANK3   BANK4   BANK5   BANK6   BANK7   BANK8   BANK9  BANK10  BANK1
      +1  BANK12  BANK13  BANK14  BANK15  BANK16  BANK17  BANK18  BANK19  BANK20  BANK21  BANK22  BANK23  BANK24  BANK25  BANK2
      +6  BANK27  BANK28  BANK29  BANK30  BANK31
  3303 ;;      Params:         1       0       0       0       0       0       0       0       0       0       0       0       
      +0       0       0       0       0       0       0       0       0       0       0       0       0       0       0       
      +0       0       0       0       0       0
  3304 ;;      Locals:         0       0       0       0       0       0       0       0       0       0       0       0       
      +0       0       0       0       0       0       0       0       0       0       0       0       0       0       0       
      +0       0       0       0       0       0
  3305 ;;      Temps:          0       0       0       0       0       0       0       0       0       0       0       0       
      +0       0       0       0       0       0       0       0       0       0       0       0       0       0       0       
      +0       0       0       0       0       0
  3306 ;;      Totals:         1       0       0       0       0       0       0       0       0       0       0       0       
      +0       0       0       0       0       0       0       0       0       0       0       0       0       0       0       
      +0       0       0       0       0       0
  3307 ;;Total ram usage:        1 bytes
  3308 ;; Hardware stack levels used: 1
  3309 ;; Hardware stack levels required when called: 6
  3310 ;; This function calls:
  3311 ;;		_strcmp
  3312 ;;		i2_printf
  3313 ;; This function is called by:
  3314 ;;		_UART_ProcessCommand
  3315 ;; This function uses a non-reentrant model
  3316 ;;
  3317                           
  3318                           	psect	text24
  3319   0028C4                     __ptext24:
  3320                           	callstack 0
  3321   0028C4                     _UART_executeCommand:
  3322                           	callstack 15
  3323   0028C4                     
  3324                           ;main.c: 72: void UART_executeCommand(char *command);main.c: 73: {;main.c: 74:     if(st
      +                          rcmp(command, "A") == 0)
  3325   0028C4  C03F  F028         	movff	UART_executeCommand@command,strcmp@l
  3326   0028C8  0EF4               	movlw	low STR_3
  3327   0028CA  6E29               	movwf	strcmp@r^0,c
  3328   0028CC  ECF2  F013         	call	_strcmp	;wreg free
  3329   0028D0  5028               	movf	?_strcmp^0,w,c
  3330   0028D2  1029               	iorwf	(?_strcmp+1)^0,w,c
  3331   0028D4  A4D8               	btfss	status,2,c
  3332   0028D6  EF6F  F014         	goto	i2u146_41
  3333   0028DA  EF71  F014         	goto	i2u146_40
  3334   0028DE                     i2u146_41:
  3335   0028DE  EF78  F014         	goto	i2l2338
  3336   0028E2                     i2u146_40:
  3337   0028E2  82BB               	bsf	187,1,c	;volatile
  3338   0028E4                     
  3339                           ;main.c: 77:         printf("OK, LED ON.\r\n");
  3340   0028E4  0EE6               	movlw	low STR_4
  3341   0028E6  6E3D               	movwf	i2printf@fmt^0,c
  3342   0028E8  EC41  F016         	call	i2_printf	;wreg free
  3343                           
  3344                           ;main.c: 78:     }
  3345   0028EC  EF92  F014         	goto	i2l547
  3346   0028F0                     i2l2338:
  3347   0028F0  C03F  F028         	movff	UART_executeCommand@command,strcmp@l
  3348   0028F4  0EF6               	movlw	low STR_5
  3349   0028F6  6E29               	movwf	strcmp@r^0,c
  3350   0028F8  ECF2  F013         	call	_strcmp	;wreg free
  3351   0028FC  5028               	movf	?_strcmp^0,w,c
  3352   0028FE  1029               	iorwf	(?_strcmp+1)^0,w,c
  3353   002900  A4D8               	btfss	status,2,c
  3354   002902  EF85  F014         	goto	i2u147_41
  3355   002906  EF87  F014         	goto	i2u147_40
  3356   00290A                     i2u147_41:
  3357   00290A  EF8E  F014         	goto	i2l2342
  3358   00290E                     i2u147_40:
  3359   00290E  92BB               	bcf	187,1,c	;volatile
  3360   002910                     
  3361                           ;main.c: 82:         printf("OK, LED OFF.\r\n");
  3362   002910  0ED7               	movlw	low STR_6
  3363   002912  6E3D               	movwf	i2printf@fmt^0,c
  3364   002914  EC41  F016         	call	i2_printf	;wreg free
  3365                           
  3366                           ;main.c: 83:     }
  3367   002918  EF92  F014         	goto	i2l547
  3368   00291C                     i2l2342:
  3369                           
  3370                           ;main.c: 85:     {;main.c: 86:         printf("Incorrect command.\r\n");
  3371   00291C  0EC2               	movlw	low STR_7
  3372   00291E  6E3D               	movwf	i2printf@fmt^0,c
  3373   002920  EC41  F016         	call	i2_printf	;wreg free
  3374   002924                     i2l547:
  3375   002924  0012               	return		;funcret
  3376   002926                     __end_of_UART_executeCommand:
  3377                           	callstack 0
  3378                           
  3379 ;; *************** function i2_printf *****************
  3380 ;; Defined at:
  3381 ;;		line 5 in file "C:\Program Files\Microchip\xc8\v2.46\pic\sources\c99\common\printf.c"
  3382 ;; Parameters:    Size  Location     Type
  3383 ;;  fmt             1   21[COMRAM] PTR const unsigned char 
  3384 ;;		 -> STR_7(21), STR_6(15), STR_4(14), STR_2(49), 
  3385 ;;		 -> STR_1(72), 
  3386 ;; Auto vars:     Size  Location     Type
  3387 ;;  ret             2    0        int 
  3388 ;;  ap              1   22[COMRAM] PTR void [1]
  3389 ;;		 -> ?i2_printf(2), ?_printf(2), 
  3390 ;; Return value:  Size  Location     Type
  3391 ;;                  2   21[COMRAM] int 
  3392 ;; Registers used:
  3393 ;;		wreg, fsr1l, fsr1h, fsr2l, fsr2h, status,2, status,0, tblptrl, tblptrh, tblptru, cstack
  3394 ;; Tracked objects:
  3395 ;;		On entry : 0/0
  3396 ;;		On exit  : 0/0
  3397 ;;		Unchanged: 0/0
  3398 ;; Data sizes:     COMRAM   BANK0   BANK1   BANK2   BANK3   BANK4   BANK5   BANK6   BANK7   BANK8   BANK9  BANK10  BANK1
      +1  BANK12  BANK13  BANK14  BANK15  BANK16  BANK17  BANK18  BANK19  BANK20  BANK21  BANK22  BANK23  BANK24  BANK25  BANK2
      +6  BANK27  BANK28  BANK29  BANK30  BANK31
  3399 ;;      Params:         1       0       0       0       0       0       0       0       0       0       0       0       
      +0       0       0       0       0       0       0       0       0       0       0       0       0       0       0       
      +0       0       0       0       0       0
  3400 ;;      Locals:         1       0       0       0       0       0       0       0       0       0       0       0       
      +0       0       0       0       0       0       0       0       0       0       0       0       0       0       0       
      +0       0       0       0       0       0
  3401 ;;      Temps:          0       0       0       0       0       0       0       0       0       0       0       0       
      +0       0       0       0       0       0       0       0       0       0       0       0       0       0       0       
      +0       0       0       0       0       0
  3402 ;;      Totals:         2       0       0       0       0       0       0       0       0       0       0       0       
      +0       0       0       0       0       0       0       0       0       0       0       0       0       0       0       
      +0       0       0       0       0       0
  3403 ;;Total ram usage:        2 bytes
  3404 ;; Hardware stack levels used: 1
  3405 ;; Hardware stack levels required when called: 5
  3406 ;; This function calls:
  3407 ;;		i2_vfprintf
  3408 ;; This function is called by:
  3409 ;;		_UART_executeCommand
  3410 ;; This function uses a non-reentrant model
  3411 ;;
  3412                           
  3413                           	psect	text25
  3414   002C82                     __ptext25:
  3415                           	callstack 0
  3416   002C82                     i2_printf:
  3417                           	callstack 15
  3418   002C82  0E3E               	movlw	low (?i2_printf+1)
  3419   002C84  6E3E               	movwf	i2printf@ap^0,c
  3420   002C86  0E00               	movlw	0
  3421   002C88  6E38               	movwf	i2vfprintf@fp^0,c
  3422   002C8A  0E00               	movlw	0
  3423   002C8C  6E39               	movwf	(i2vfprintf@fp+1)^0,c
  3424   002C8E  C03D  F03A         	movff	i2printf@fmt,i2vfprintf@fmt
  3425   002C92  0E3E               	movlw	low i2printf@ap
  3426   002C94  6E3B               	movwf	i2vfprintf@ap^0,c
  3427   002C96  EC60  F015         	call	i2_vfprintf	;wreg free
  3428   002C9A  0012               	return		;funcret
  3429   002C9C                     __end_ofi2_printf:
  3430                           	callstack 0
  3431                           
  3432 ;; *************** function i2_vfprintf *****************
  3433 ;; Defined at:
  3434 ;;		line 1817 in file "C:\Program Files\Microchip\xc8\v2.46\pic\sources\c99\common\doprnt.c"
  3435 ;; Parameters:    Size  Location     Type
  3436 ;;  fp              2   16[COMRAM] PTR struct _IO_FILE
  3437 ;;		 -> NULL(0), 
  3438 ;;  fmt             1   18[COMRAM] PTR const unsigned char 
  3439 ;;		 -> STR_7(21), STR_6(15), STR_4(14), STR_2(49), 
  3440 ;;		 -> STR_1(72), 
  3441 ;;  ap              1   19[COMRAM] PTR PTR void 
  3442 ;;		 -> i2printf@ap(1), printf@ap(1), 
  3443 ;; Auto vars:     Size  Location     Type
  3444 ;;  cfmt            1   20[COMRAM] PTR unsigned char 
  3445 ;;		 -> STR_7(21), STR_6(15), STR_4(14), STR_2(49), 
  3446 ;;		 -> STR_1(72), 
  3447 ;; Return value:  Size  Location     Type
  3448 ;;                  2   16[COMRAM] int 
  3449 ;; Registers used:
  3450 ;;		wreg, fsr1l, fsr1h, fsr2l, fsr2h, status,2, status,0, tblptrl, tblptrh, tblptru, cstack
  3451 ;; Tracked objects:
  3452 ;;		On entry : 0/0
  3453 ;;		On exit  : 0/0
  3454 ;;		Unchanged: 0/0
  3455 ;; Data sizes:     COMRAM   BANK0   BANK1   BANK2   BANK3   BANK4   BANK5   BANK6   BANK7   BANK8   BANK9  BANK10  BANK1
      +1  BANK12  BANK13  BANK14  BANK15  BANK16  BANK17  BANK18  BANK19  BANK20  BANK21  BANK22  BANK23  BANK24  BANK25  BANK2
      +6  BANK27  BANK28  BANK29  BANK30  BANK31
  3456 ;;      Params:         4       0       0       0       0       0       0       0       0       0       0       0       
      +0       0       0       0       0       0       0       0       0       0       0       0       0       0       0       
      +0       0       0       0       0       0
  3457 ;;      Locals:         1       0       0       0       0       0       0       0       0       0       0       0       
      +0       0       0       0       0       0       0       0       0       0       0       0       0       0       0       
      +0       0       0       0       0       0
  3458 ;;      Temps:          0       0       0       0       0       0       0       0       0       0       0       0       
      +0       0       0       0       0       0       0       0       0       0       0       0       0       0       0       
      +0       0       0       0       0       0
  3459 ;;      Totals:         5       0       0       0       0       0       0       0       0       0       0       0       
      +0       0       0       0       0       0       0       0       0       0       0       0       0       0       0       
      +0       0       0       0       0       0
  3460 ;;Total ram usage:        5 bytes
  3461 ;; Hardware stack levels used: 1
  3462 ;; Hardware stack levels required when called: 4
  3463 ;; This function calls:
  3464 ;;		i2_vfpfcnvrt
  3465 ;; This function is called by:
  3466 ;;		i2_printf
  3467 ;; This function uses a non-reentrant model
  3468 ;;
  3469                           
  3470                           	psect	text26
  3471   002AC0                     __ptext26:
  3472                           	callstack 0
  3473   002AC0                     i2_vfprintf:
  3474                           	callstack 15
  3475   002AC0                     
  3476                           ;C:\Program Files\Microchip\xc8\v2.46\pic\sources\c99\common\doprnt.c: 1817: int vfprint
      +                          f(FILE *fp, const char *fmt, va_list ap);C:\Program Files\Microchip\xc8\v2.46\pic\source
      +                          s\c99\common\doprnt.c: 1818: {;C:\Program Files\Microchip\xc8\v2.46\pic\sources\c99\comm
      +                          on\doprnt.c: 1820:     char *cfmt;;C:\Program Files\Microchip\xc8\v2.46\pic\sources\c99\
      +                          common\doprnt.c: 1822:     cfmt = (char *)fmt;
  3477   002AC0  C03A  F03C         	movff	i2vfprintf@fmt,i2vfprintf@cfmt
  3478                           
  3479                           ;C:\Program Files\Microchip\xc8\v2.46\pic\sources\c99\common\doprnt.c: 1826:     while (
      +                          *cfmt) {
  3480   002AC4  EF6E  F015         	goto	i2l2290
  3481   002AC8                     i2l2288:
  3482                           
  3483                           ;C:\Program Files\Microchip\xc8\v2.46\pic\sources\c99\common\doprnt.c: 1830:    vfpfcnvr
      +                          t(fp, &cfmt, ap);
  3484   002AC8  C038  F034         	movff	i2vfprintf@fp,i2vfpfcnvrt@fp
  3485   002ACC  C039  F035         	movff	i2vfprintf@fp+1,i2vfpfcnvrt@fp+1
  3486   002AD0  0E3C               	movlw	low i2vfprintf@cfmt
  3487   002AD2  6E36               	movwf	i2vfpfcnvrt@fmt^0,c
  3488   002AD4  C03B  F037         	movff	i2vfprintf@ap,i2vfpfcnvrt@ap
  3489   002AD8  ECB5  F013         	call	i2_vfpfcnvrt	;wreg free
  3490   002ADC                     i2l2290:
  3491                           
  3492                           ;C:\Program Files\Microchip\xc8\v2.46\pic\sources\c99\common\doprnt.c: 1826:     while (
      +                          *cfmt) {
  3493   002ADC  0060  F0F3  FFF6   	movff	i2vfprintf@cfmt,tblptrl
  3494   002AE2                     	if	1	;There is more than 1 active tblptr byte
  3495   002AE2  0E20               	movlw	high __smallconst
  3496   002AE4  6EF7               	movwf	tblptrh,c
  3497   002AE6                     	endif
  3498   002AE6                     	if	0	;tblptru may be non-zero
  3499   002AE6                     	endif
  3500   002AE6                     	if	1	;Program memory is > 0xFFFF, there are 3 active tblptr bytes
  3501   002AE6  0E00               	movlw	low (__smallconst shr (0+16))
  3502   002AE8  6EF8               	movwf	tblptru,c
  3503   002AEA                     	endif
  3504   002AEA  0008               	tblrd		*
  3505   002AEC  50F5               	movf	tablat,w,c
  3506   002AEE  0900               	iorlw	0
  3507   002AF0  A4D8               	btfss	status,2,c
  3508   002AF2  EF7D  F015         	goto	i2u138_41
  3509   002AF6  EF7F  F015         	goto	i2u138_40
  3510   002AFA                     i2u138_41:
  3511   002AFA  EF64  F015         	goto	i2l2288
  3512   002AFE                     i2u138_40:
  3513   002AFE                     
  3514                           ;C:\Program Files\Microchip\xc8\v2.46\pic\sources\c99\common\doprnt.c: 1835:  return 0;
  3515   002AFE  0E00               	movlw	0
  3516   002B00  6E39               	movwf	(?i2_vfprintf+1)^0,c
  3517   002B02  0E00               	movlw	0
  3518   002B04  6E38               	movwf	?i2_vfprintf^0,c
  3519   002B06  0012               	return		;funcret
  3520   002B08                     __end_ofi2_vfprintf:
  3521                           	callstack 0
  3522                           
  3523 ;; *************** function i2_vfpfcnvrt *****************
  3524 ;; Defined at:
  3525 ;;		line 1177 in file "C:\Program Files\Microchip\xc8\v2.46\pic\sources\c99\common\doprnt.c"
  3526 ;; Parameters:    Size  Location     Type
  3527 ;;  fp              2   12[COMRAM] PTR struct _IO_FILE
  3528 ;;		 -> NULL(0), 
  3529 ;;  fmt             1   14[COMRAM] PTR PTR unsigned char 
  3530 ;;		 -> i2vfprintf@cfmt(1), vfprintf@cfmt(1), 
  3531 ;;  ap              1   15[COMRAM] PTR PTR void 
  3532 ;;		 -> i2printf@ap(1), printf@ap(1), 
  3533 ;; Auto vars:     Size  Location     Type
  3534 ;;  cp              3    0        PTR unsigned char 
  3535 ;;  done            1    0        _Bool 
  3536 ;;  c               1    0        unsigned char 
  3537 ;; Return value:  Size  Location     Type
  3538 ;;                  1    wreg      void 
  3539 ;; Registers used:
  3540 ;;		wreg, fsr1l, fsr1h, fsr2l, fsr2h, status,2, status,0, tblptrl, tblptrh, tblptru, cstack
  3541 ;; Tracked objects:
  3542 ;;		On entry : 0/0
  3543 ;;		On exit  : 0/0
  3544 ;;		Unchanged: 0/0
  3545 ;; Data sizes:     COMRAM   BANK0   BANK1   BANK2   BANK3   BANK4   BANK5   BANK6   BANK7   BANK8   BANK9  BANK10  BANK1
      +1  BANK12  BANK13  BANK14  BANK15  BANK16  BANK17  BANK18  BANK19  BANK20  BANK21  BANK22  BANK23  BANK24  BANK25  BANK2
      +6  BANK27  BANK28  BANK29  BANK30  BANK31
  3546 ;;      Params:         4       0       0       0       0       0       0       0       0       0       0       0       
      +0       0       0       0       0       0       0       0       0       0       0       0       0       0       0       
      +0       0       0       0       0       0
  3547 ;;      Locals:         0       0       0       0       0       0       0       0       0       0       0       0       
      +0       0       0       0       0       0       0       0       0       0       0       0       0       0       0       
      +0       0       0       0       0       0
  3548 ;;      Temps:          0       0       0       0       0       0       0       0       0       0       0       0       
      +0       0       0       0       0       0       0       0       0       0       0       0       0       0       0       
      +0       0       0       0       0       0
  3549 ;;      Totals:         4       0       0       0       0       0       0       0       0       0       0       0       
      +0       0       0       0       0       0       0       0       0       0       0       0       0       0       0       
      +0       0       0       0       0       0
  3550 ;;Total ram usage:        4 bytes
  3551 ;; Hardware stack levels used: 1
  3552 ;; Hardware stack levels required when called: 3
  3553 ;; This function calls:
  3554 ;;		i2_fputc
  3555 ;; This function is called by:
  3556 ;;		i2_vfprintf
  3557 ;; This function uses a non-reentrant model
  3558 ;;
  3559                           
  3560                           	psect	text27
  3561   00276A                     __ptext27:
  3562                           	callstack 0
  3563   00276A                     i2_vfpfcnvrt:
  3564                           	callstack 15
  3565   00276A                     
  3566                           ;C:\Program Files\Microchip\xc8\v2.46\pic\sources\c99\common\doprnt.c: 1177: vfpfcnvrt(F
      +                          ILE *fp, char *fmt[], va_list ap);C:\Program Files\Microchip\xc8\v2.46\pic\sources\c99\c
      +                          ommon\doprnt.c: 1178: {;C:\Program Files\Microchip\xc8\v2.46\pic\sources\c99\common\dopr
      +                          nt.c: 1179:     char c, *cp;;C:\Program Files\Microchip\xc8\v2.46\pic\sources\c99\common
      +                          \doprnt.c: 1180:     _Bool done;;C:\Program Files\Microchip\xc8\v2.46\pic\sources\c99\co
      +                          mmon\doprnt.c: 1201:     if ((*fmt)[0] == '%') {
  3567   00276A  5036               	movf	i2vfpfcnvrt@fmt^0,w,c
  3568   00276C  6ED9               	movwf	fsr2l,c
  3569   00276E  6ADA               	clrf	fsr2h,c
  3570   002770  006F FF7F FFF6     	movff	indf2,tblptrl
  3571   002776                     	if	1	;There is more than 1 active tblptr byte
  3572   002776  0E20               	movlw	high __smallconst
  3573   002778  6EF7               	movwf	tblptrh,c
  3574   00277A                     	endif
  3575   00277A                     	if	0	;tblptru may be non-zero
  3576   00277A                     	endif
  3577   00277A                     	if	1	;Program memory is > 0xFFFF, there are 3 active tblptr bytes
  3578   00277A  0E00               	movlw	low (__smallconst shr (0+16))
  3579   00277C  6EF8               	movwf	tblptru,c
  3580   00277E                     	endif
  3581   00277E  0008               	tblrd		*
  3582   002780  50F5               	movf	tablat,w,c
  3583   002782  0A25               	xorlw	37
  3584   002784  A4D8               	btfss	status,2,c
  3585   002786  EFC7  F013         	goto	i2u136_41
  3586   00278A  EFC9  F013         	goto	i2u136_40
  3587   00278E                     i2u136_41:
  3588   00278E  EFDB  F013         	goto	i2l2272
  3589   002792                     i2u136_40:
  3590   002792                     
  3591                           ;C:\Program Files\Microchip\xc8\v2.46\pic\sources\c99\common\doprnt.c: 1202:         ++*
      +                          fmt;
  3592   002792  5036               	movf	i2vfpfcnvrt@fmt^0,w,c
  3593   002794  6ED9               	movwf	fsr2l,c
  3594   002796  6ADA               	clrf	fsr2h,c
  3595   002798  2ADF               	incf	indf2,f,c
  3596   00279A                     
  3597                           ;C:\Program Files\Microchip\xc8\v2.46\pic\sources\c99\common\doprnt.c: 1204:         fla
      +                          gs = width = 0;
  3598   00279A  0E00               	movlw	0
  3599   00279C  6E1A               	movwf	(_width+1)^0,c
  3600   00279E  0E00               	movlw	0
  3601   0027A0  6E19               	movwf	_width^0,c
  3602   0027A2  C019  F01F         	movff	_width,_flags
  3603   0027A6                     
  3604                           ;C:\Program Files\Microchip\xc8\v2.46\pic\sources\c99\common\doprnt.c: 1205:         pre
      +                          c = -1;
  3605   0027A6  681B               	setf	_prec^0,c
  3606   0027A8  681C               	setf	(_prec+1)^0,c
  3607   0027AA                     i2l2268:
  3608                           
  3609                           ;C:\Program Files\Microchip\xc8\v2.46\pic\sources\c99\common\doprnt.c: 1806:         ++*
      +                          fmt;
  3610   0027AA  5036               	movf	i2vfpfcnvrt@fmt^0,w,c
  3611   0027AC  6ED9               	movwf	fsr2l,c
  3612   0027AE  6ADA               	clrf	fsr2h,c
  3613   0027B0  2ADF               	incf	indf2,f,c
  3614   0027B2  EFF1  F013         	goto	i2l1258
  3615   0027B6                     i2l2272:
  3616                           
  3617                           ;C:\Program Files\Microchip\xc8\v2.46\pic\sources\c99\common\doprnt.c: 1811:     fputc((
      +                          int)(*fmt)[0], fp);
  3618   0027B6  5036               	movf	i2vfpfcnvrt@fmt^0,w,c
  3619   0027B8  6ED9               	movwf	fsr2l,c
  3620   0027BA  6ADA               	clrf	fsr2h,c
  3621   0027BC  006F FF7F FFF6     	movff	indf2,tblptrl
  3622   0027C2                     	if	1	;There is more than 1 active tblptr byte
  3623   0027C2  0E20               	movlw	high __smallconst
  3624   0027C4  6EF7               	movwf	tblptrh,c
  3625   0027C6                     	endif
  3626   0027C6                     	if	0	;tblptru may be non-zero
  3627   0027C6                     	endif
  3628   0027C6                     	if	1	;Program memory is > 0xFFFF, there are 3 active tblptr bytes
  3629   0027C6  0E00               	movlw	low (__smallconst shr (0+16))
  3630   0027C8  6EF8               	movwf	tblptru,c
  3631   0027CA                     	endif
  3632   0027CA  0008               	tblrd		*
  3633   0027CC  50F5               	movf	tablat,w,c
  3634   0027CE  6E2B               	movwf	i2fputc@c^0,c
  3635   0027D0  6A2C               	clrf	(i2fputc@c+1)^0,c
  3636   0027D2  C034  F02D         	movff	i2vfpfcnvrt@fp,i2fputc@fp
  3637   0027D6  C035  F02E         	movff	i2vfpfcnvrt@fp+1,i2fputc@fp+1
  3638   0027DA  ECE9  F011         	call	i2_fputc	;wreg free
  3639   0027DE  EFD5  F013         	goto	i2l2268
  3640   0027E2                     i2l1258:
  3641   0027E2  0012               	return		;funcret
  3642   0027E4                     __end_ofi2_vfpfcnvrt:
  3643                           	callstack 0
  3644                           
  3645 ;; *************** function i2_fputc *****************
  3646 ;; Defined at:
  3647 ;;		line 8 in file "C:\Program Files\Microchip\xc8\v2.46\pic\sources\c99\common\nf_fputc.c"
  3648 ;; Parameters:    Size  Location     Type
  3649 ;;  c               2    3[COMRAM] int 
  3650 ;;  fp              2    5[COMRAM] PTR struct _IO_FILE
  3651 ;;		 -> NULL(0), 
  3652 ;; Auto vars:     Size  Location     Type
  3653 ;;		None
  3654 ;; Return value:  Size  Location     Type
  3655 ;;                  2    3[COMRAM] int 
  3656 ;; Registers used:
  3657 ;;		wreg, fsr1l, fsr1h, fsr2l, fsr2h, status,2, status,0, cstack
  3658 ;; Tracked objects:
  3659 ;;		On entry : 0/0
  3660 ;;		On exit  : 0/0
  3661 ;;		Unchanged: 0/0
  3662 ;; Data sizes:     COMRAM   BANK0   BANK1   BANK2   BANK3   BANK4   BANK5   BANK6   BANK7   BANK8   BANK9  BANK10  BANK1
      +1  BANK12  BANK13  BANK14  BANK15  BANK16  BANK17  BANK18  BANK19  BANK20  BANK21  BANK22  BANK23  BANK24  BANK25  BANK2
      +6  BANK27  BANK28  BANK29  BANK30  BANK31
  3663 ;;      Params:         4       0       0       0       0       0       0       0       0       0       0       0       
      +0       0       0       0       0       0       0       0       0       0       0       0       0       0       0       
      +0       0       0       0       0       0
  3664 ;;      Locals:         0       0       0       0       0       0       0       0       0       0       0       0       
      +0       0       0       0       0       0       0       0       0       0       0       0       0       0       0       
      +0       0       0       0       0       0
  3665 ;;      Temps:          5       0       0       0       0       0       0       0       0       0       0       0       
      +0       0       0       0       0       0       0       0       0       0       0       0       0       0       0       
      +0       0       0       0       0       0
  3666 ;;      Totals:         9       0       0       0       0       0       0       0       0       0       0       0       
      +0       0       0       0       0       0       0       0       0       0       0       0       0       0       0       
      +0       0       0       0       0       0
  3667 ;;Total ram usage:        9 bytes
  3668 ;; Hardware stack levels used: 1
  3669 ;; Hardware stack levels required when called: 2
  3670 ;; This function calls:
  3671 ;;		i2_putch
  3672 ;; This function is called by:
  3673 ;;		i2_vfpfcnvrt
  3674 ;; This function uses a non-reentrant model
  3675 ;;
  3676                           
  3677                           	psect	text28
  3678   0023D2                     __ptext28:
  3679                           	callstack 0
  3680   0023D2                     i2_fputc:
  3681                           	callstack 15
  3682   0023D2  502D               	movf	i2fputc@fp^0,w,c
  3683   0023D4  102E               	iorwf	(i2fputc@fp+1)^0,w,c
  3684   0023D6  B4D8               	btfsc	status,2,c
  3685   0023D8  EFF0  F011         	goto	i2u128_41
  3686   0023DC  EFF2  F011         	goto	i2u128_40
  3687   0023E0                     i2u128_41:
  3688   0023E0  EFFB  F011         	goto	i2l2230
  3689   0023E4                     i2u128_40:
  3690   0023E4  502D               	movf	i2fputc@fp^0,w,c
  3691   0023E6  102E               	iorwf	(i2fputc@fp+1)^0,w,c
  3692   0023E8  A4D8               	btfss	status,2,c
  3693   0023EA  EFF9  F011         	goto	i2u129_41
  3694   0023EE  EFFB  F011         	goto	i2u129_40
  3695   0023F2                     i2u129_41:
  3696   0023F2  EF00  F012         	goto	i2l2232
  3697   0023F6                     i2u129_40:
  3698   0023F6                     i2l2230:
  3699   0023F6  502B               	movf	i2fputc@c^0,w,c
  3700   0023F8  EC24  F016         	call	i2_putch
  3701   0023FC  EF54  F012         	goto	i2l1276
  3702   002400                     i2l2232:
  3703   002400  EE20 F00A          	lfsr	2,10
  3704   002404  502D               	movf	i2fputc@fp^0,w,c
  3705   002406  26D9               	addwf	fsr2l,f,c
  3706   002408  502E               	movf	(i2fputc@fp+1)^0,w,c
  3707   00240A  22DA               	addwfc	fsr2h,f,c
  3708   00240C  50DE               	movf	postinc2,w,c
  3709   00240E  10DE               	iorwf	postinc2,w,c
  3710   002410  B4D8               	btfsc	status,2,c
  3711   002412  EF0D  F012         	goto	i2u130_41
  3712   002416  EF0F  F012         	goto	i2u130_40
  3713   00241A                     i2u130_41:
  3714   00241A  EF2A  F012         	goto	i2l2236
  3715   00241E                     i2u130_40:
  3716   00241E  EE20 F00A          	lfsr	2,10
  3717   002422  502D               	movf	i2fputc@fp^0,w,c
  3718   002424  26D9               	addwf	fsr2l,f,c
  3719   002426  502E               	movf	(i2fputc@fp+1)^0,w,c
  3720   002428  22DA               	addwfc	fsr2h,f,c
  3721   00242A  EE10 F003          	lfsr	1,3
  3722   00242E  502D               	movf	i2fputc@fp^0,w,c
  3723   002430  26E1               	addwf	fsr1l,f,c
  3724   002432  502E               	movf	(i2fputc@fp+1)^0,w,c
  3725   002434  22E2               	addwfc	fsr1h,f,c
  3726   002436  50DE               	movf	postinc2,w,c
  3727   002438  5CE6               	subwf	postinc1,w,c
  3728   00243A  50E6               	movf	postinc1,w,c
  3729   00243C  0A80               	xorlw	128
  3730   00243E  6E33               	movwf	(??i2_fputc+4)^0,c
  3731   002440  50DE               	movf	postinc2,w,c
  3732   002442  0A80               	xorlw	128
  3733   002444  5833               	subwfb	(??i2_fputc+4)^0,w,c
  3734   002446  B0D8               	btfsc	status,0,c
  3735   002448  EF28  F012         	goto	i2u131_41
  3736   00244C  EF2A  F012         	goto	i2u131_40
  3737   002450                     i2u131_41:
  3738   002450  EF54  F012         	goto	i2l1276
  3739   002454                     i2u131_40:
  3740   002454                     i2l2236:
  3741   002454  EE20 F003          	lfsr	2,3
  3742   002458  502D               	movf	i2fputc@fp^0,w,c
  3743   00245A  26D9               	addwf	fsr2l,f,c
  3744   00245C  502E               	movf	(i2fputc@fp+1)^0,w,c
  3745   00245E  22DA               	addwfc	fsr2h,f,c
  3746   002460  006F FF78  F02F    	movff	postinc2,??i2_fputc
  3747   002466  006F FF74  F030    	movff	postdec2,??i2_fputc+1
  3748   00246C  0060  F0B7  FFD9   	movff	i2fputc@fp,fsr2l
  3749   002472  0060  F0BB  FFDA   	movff	i2fputc@fp+1,fsr2h
  3750   002478  006F FF78  F031    	movff	postinc2,??i2_fputc+2
  3751   00247E  006F FF74  F032    	movff	postdec2,??i2_fputc+3
  3752   002484  502F               	movf	??i2_fputc^0,w,c
  3753   002486  2431               	addwf	(??i2_fputc+2)^0,w,c
  3754   002488  6ED9               	movwf	fsr2l,c
  3755   00248A  5030               	movf	(??i2_fputc+1)^0,w,c
  3756   00248C  2032               	addwfc	(??i2_fputc+3)^0,w,c
  3757   00248E  6EDA               	movwf	fsr2h,c
  3758   002490  0060  F0AF  FFDF   	movff	i2fputc@c,indf2
  3759   002496  EE20 F003          	lfsr	2,3
  3760   00249A  502D               	movf	i2fputc@fp^0,w,c
  3761   00249C  26D9               	addwf	fsr2l,f,c
  3762   00249E  502E               	movf	(i2fputc@fp+1)^0,w,c
  3763   0024A0  22DA               	addwfc	fsr2h,f,c
  3764   0024A2  2ADE               	incf	postinc2,f,c
  3765   0024A4  0E00               	movlw	0
  3766   0024A6  22DD               	addwfc	postdec2,f,c
  3767   0024A8                     i2l1276:
  3768   0024A8  0012               	return		;funcret
  3769   0024AA                     __end_ofi2_fputc:
  3770                           	callstack 0
  3771                           
  3772 ;; *************** function i2_putch *****************
  3773 ;; Defined at:
  3774 ;;		line 419 in file "mcc_generated_files/uart/src/uart2.c"
  3775 ;; Parameters:    Size  Location     Type
  3776 ;;  txData          1    wreg     unsigned char 
  3777 ;; Auto vars:     Size  Location     Type
  3778 ;;  txData          1    2[COMRAM] unsigned char 
  3779 ;; Return value:  Size  Location     Type
  3780 ;;                  1    wreg      void 
  3781 ;; Registers used:
  3782 ;;		wreg, fsr2l, fsr2h, status,2, status,0, cstack
  3783 ;; Tracked objects:
  3784 ;;		On entry : 0/0
  3785 ;;		On exit  : 0/0
  3786 ;;		Unchanged: 0/0
  3787 ;; Data sizes:     COMRAM   BANK0   BANK1   BANK2   BANK3   BANK4   BANK5   BANK6   BANK7   BANK8   BANK9  BANK10  BANK1
      +1  BANK12  BANK13  BANK14  BANK15  BANK16  BANK17  BANK18  BANK19  BANK20  BANK21  BANK22  BANK23  BANK24  BANK25  BANK2
      +6  BANK27  BANK28  BANK29  BANK30  BANK31
  3788 ;;      Params:         0       0       0       0       0       0       0       0       0       0       0       0       
      +0       0       0       0       0       0       0       0       0       0       0       0       0       0       0       
      +0       0       0       0       0       0
  3789 ;;      Locals:         1       0       0       0       0       0       0       0       0       0       0       0       
      +0       0       0       0       0       0       0       0       0       0       0       0       0       0       0       
      +0       0       0       0       0       0
  3790 ;;      Temps:          0       0       0       0       0       0       0       0       0       0       0       0       
      +0       0       0       0       0       0       0       0       0       0       0       0       0       0       0       
      +0       0       0       0       0       0
  3791 ;;      Totals:         1       0       0       0       0       0       0       0       0       0       0       0       
      +0       0       0       0       0       0       0       0       0       0       0       0       0       0       0       
      +0       0       0       0       0       0
  3792 ;;Total ram usage:        1 bytes
  3793 ;; Hardware stack levels used: 1
  3794 ;; Hardware stack levels required when called: 1
  3795 ;; This function calls:
  3796 ;;		i2_UART2_IsTxReady
  3797 ;;		i2_UART2_Write
  3798 ;; This function is called by:
  3799 ;;		i2_fputc
  3800 ;; This function uses a non-reentrant model
  3801 ;;
  3802                           
  3803                           	psect	text29
  3804   002C48                     __ptext29:
  3805                           	callstack 0
  3806   002C48                     i2_putch:
  3807                           	callstack 15
  3808                           
  3809                           ;incstack = 0
  3810                           ;i2putch@txData stored from wreg
  3811   002C48  6E2A               	movwf	i2putch@txData^0,c
  3812   002C4A                     i2l2220:
  3813   002C4A  EC5A  F016         	call	i2_UART2_IsTxReady	;wreg free
  3814   002C4E  0900               	iorlw	0
  3815   002C50  B4D8               	btfsc	status,2,c
  3816   002C52  EF2D  F016         	goto	i2u127_41
  3817   002C56  EF2F  F016         	goto	i2u127_40
  3818   002C5A                     i2u127_41:
  3819   002C5A  EF25  F016         	goto	i2l2220
  3820   002C5E                     i2u127_40:
  3821   002C5E                     
  3822                           ;mcc_generated_files/uart/src/uart2.c: 422:     return UART2_Write(txData);;	Return valu
      +                          e of i2_putch is never used
  3823   002C5E  502A               	movf	i2putch@txData^0,w,c
  3824   002C60  ECEC  F014         	call	i2_UART2_Write
  3825   002C64  0012               	return		;funcret
  3826   002C66                     __end_ofi2_putch:
  3827                           	callstack 0
  3828                           
  3829 ;; *************** function i2_UART2_Write *****************
  3830 ;; Defined at:
  3831 ;;		line 366 in file "mcc_generated_files/uart/src/uart2.c"
  3832 ;; Parameters:    Size  Location     Type
  3833 ;;  txData          1    wreg     unsigned char 
  3834 ;; Auto vars:     Size  Location     Type
  3835 ;;  txData          1    1[COMRAM] unsigned char 
  3836 ;;  tempTxHead      1    0[COMRAM] unsigned char 
  3837 ;; Return value:  Size  Location     Type
  3838 ;;                  1    wreg      void 
  3839 ;; Registers used:
  3840 ;;		wreg, fsr2l, fsr2h, status,2, status,0
  3841 ;; Tracked objects:
  3842 ;;		On entry : 0/0
  3843 ;;		On exit  : 0/0
  3844 ;;		Unchanged: 0/0
  3845 ;; Data sizes:     COMRAM   BANK0   BANK1   BANK2   BANK3   BANK4   BANK5   BANK6   BANK7   BANK8   BANK9  BANK10  BANK1
      +1  BANK12  BANK13  BANK14  BANK15  BANK16  BANK17  BANK18  BANK19  BANK20  BANK21  BANK22  BANK23  BANK24  BANK25  BANK2
      +6  BANK27  BANK28  BANK29  BANK30  BANK31
  3846 ;;      Params:         0       0       0       0       0       0       0       0       0       0       0       0       
      +0       0       0       0       0       0       0       0       0       0       0       0       0       0       0       
      +0       0       0       0       0       0
  3847 ;;      Locals:         2       0       0       0       0       0       0       0       0       0       0       0       
      +0       0       0       0       0       0       0       0       0       0       0       0       0       0       0       
      +0       0       0       0       0       0
  3848 ;;      Temps:          0       0       0       0       0       0       0       0       0       0       0       0       
      +0       0       0       0       0       0       0       0       0       0       0       0       0       0       0       
      +0       0       0       0       0       0
  3849 ;;      Totals:         2       0       0       0       0       0       0       0       0       0       0       0       
      +0       0       0       0       0       0       0       0       0       0       0       0       0       0       0       
      +0       0       0       0       0       0
  3850 ;;Total ram usage:        2 bytes
  3851 ;; Hardware stack levels used: 1
  3852 ;; This function calls:
  3853 ;;		Nothing
  3854 ;; This function is called by:
  3855 ;;		i2_putch
  3856 ;; This function uses a non-reentrant model
  3857 ;;
  3858                           
  3859                           	psect	text30
  3860   0029D8                     __ptext30:
  3861                           	callstack 0
  3862   0029D8                     i2_UART2_Write:
  3863                           	callstack 15
  3864                           
  3865                           ;incstack = 0
  3866                           ;i2UART2_Write@txData stored from wreg
  3867   0029D8  6E29               	movwf	i2UART2_Write@txData^0,c
  3868   0029DA                     
  3869                           ;mcc_generated_files/uart/src/uart2.c: 366: void UART2_Write(uint8_t txData);mcc_generat
      +                          ed_files/uart/src/uart2.c: 367: {;mcc_generated_files/uart/src/uart2.c: 368:     uint8_t
      +                           tempTxHead;;mcc_generated_files/uart/src/uart2.c: 370:     if(0 == PIE6bits.U2TXIE)
  3870   0029DA  0139               	movlb	57	; () banked
  3871   0029DC  B796               	btfsc	150,3,b	;volatile
  3872   0029DE  EFF3  F014         	goto	i2u125_41
  3873   0029E2  EFF5  F014         	goto	i2u125_40
  3874   0029E6                     i2u125_41:
  3875   0029E6  EFFA  F014         	goto	i2l2206
  3876   0029EA                     i2u125_40:
  3877   0029EA                     
  3878                           ; BSR set to: 57
  3879                           ;mcc_generated_files/uart/src/uart2.c: 371:     {;mcc_generated_files/uart/src/uart2.c: 
      +                          372:         U2TXB = txData;
  3880   0029EA  0060  F0A7  FDD2   	movff	i2UART2_Write@txData,15826	;volatile
  3881                           
  3882                           ;mcc_generated_files/uart/src/uart2.c: 373:     }
  3883   0029F0  EF12  F015         	goto	i2l446
  3884   0029F4                     i2l2206:
  3885                           
  3886                           ; BSR set to: 57
  3887   0029F4  5025               	movf	_uart2TxBufferRemaining^0,w,c	;volatile
  3888   0029F6  B4D8               	btfsc	status,2,c
  3889   0029F8  EF00  F015         	goto	i2u126_41
  3890   0029FC  EF02  F015         	goto	i2u126_40
  3891   002A00                     i2u126_41:
  3892   002A00  EF12  F015         	goto	i2l446
  3893   002A04                     i2u126_40:
  3894   002A04                     
  3895                           ; BSR set to: 57
  3896                           ;mcc_generated_files/uart/src/uart2.c: 375:     {;mcc_generated_files/uart/src/uart2.c: 
      +                          376:        uart2TxBuffer[uart2TxHead] = txData;
  3897   002A04  0E80               	movlw	low _uart2TxBuffer
  3898   002A06  2427               	addwf	_uart2TxHead^0,w,c	;volatile
  3899   002A08  6ED9               	movwf	fsr2l,c
  3900   002A0A  6ADA               	clrf	fsr2h,c
  3901   002A0C  0E01               	movlw	high _uart2TxBuffer
  3902   002A0E  22DA               	addwfc	fsr2h,f,c
  3903   002A10  0060  F0A7  FFDF   	movff	i2UART2_Write@txData,indf2
  3904   002A16                     
  3905                           ; BSR set to: 57
  3906                           ;mcc_generated_files/uart/src/uart2.c: 377:        tempTxHead = (uart2TxHead + 1) & ((12
      +                          8) - 1);
  3907   002A16  2827               	incf	_uart2TxHead^0,w,c	;volatile
  3908   002A18  0B7F               	andlw	127
  3909   002A1A  6E28               	movwf	i2UART2_Write@tempTxHead^0,c
  3910   002A1C                     
  3911                           ; BSR set to: 57
  3912                           ;mcc_generated_files/uart/src/uart2.c: 379:        uart2TxHead = tempTxHead;
  3913   002A1C  C028  F027         	movff	i2UART2_Write@tempTxHead,_uart2TxHead	;volatile
  3914   002A20                     
  3915                           ; BSR set to: 57
  3916                           ;mcc_generated_files/uart/src/uart2.c: 380:        PIE6bits.U2TXIE = 0;
  3917   002A20  9796               	bcf	150,3,b	;volatile
  3918   002A22                     
  3919                           ; BSR set to: 57
  3920                           ;mcc_generated_files/uart/src/uart2.c: 381:        uart2TxBufferRemaining--;
  3921   002A22  0625               	decf	_uart2TxBufferRemaining^0,f,c	;volatile
  3922   002A24                     i2l446:
  3923                           
  3924                           ; BSR set to: 57
  3925                           ;mcc_generated_files/uart/src/uart2.c: 387:     PIE6bits.U2TXIE = 1;
  3926   002A24  8796               	bsf	150,3,b	;volatile
  3927   002A26                     
  3928                           ; BSR set to: 57
  3929   002A26  0012               	return		;funcret
  3930   002A28                     __end_ofi2_UART2_Write:
  3931                           	callstack 0
  3932                           
  3933 ;; *************** function i2_UART2_IsTxReady *****************
  3934 ;; Defined at:
  3935 ;;		line 287 in file "mcc_generated_files/uart/src/uart2.c"
  3936 ;; Parameters:    Size  Location     Type
  3937 ;;		None
  3938 ;; Auto vars:     Size  Location     Type
  3939 ;;		None
  3940 ;; Return value:  Size  Location     Type
  3941 ;;                  1    wreg      _Bool 
  3942 ;; Registers used:
  3943 ;;		wreg, status,2
  3944 ;; Tracked objects:
  3945 ;;		On entry : 0/0
  3946 ;;		On exit  : 0/0
  3947 ;;		Unchanged: 0/0
  3948 ;; Data sizes:     COMRAM   BANK0   BANK1   BANK2   BANK3   BANK4   BANK5   BANK6   BANK7   BANK8   BANK9  BANK10  BANK1
      +1  BANK12  BANK13  BANK14  BANK15  BANK16  BANK17  BANK18  BANK19  BANK20  BANK21  BANK22  BANK23  BANK24  BANK25  BANK2
      +6  BANK27  BANK28  BANK29  BANK30  BANK31
  3949 ;;      Params:         0       0       0       0       0       0       0       0       0       0       0       0       
      +0       0       0       0       0       0       0       0       0       0       0       0       0       0       0       
      +0       0       0       0       0       0
  3950 ;;      Locals:         0       0       0       0       0       0       0       0       0       0       0       0       
      +0       0       0       0       0       0       0       0       0       0       0       0       0       0       0       
      +0       0       0       0       0       0
  3951 ;;      Temps:          0       0       0       0       0       0       0       0       0       0       0       0       
      +0       0       0       0       0       0       0       0       0       0       0       0       0       0       0       
      +0       0       0       0       0       0
  3952 ;;      Totals:         0       0       0       0       0       0       0       0       0       0       0       0       
      +0       0       0       0       0       0       0       0       0       0       0       0       0       0       0       
      +0       0       0       0       0       0
  3953 ;;Total ram usage:        0 bytes
  3954 ;; Hardware stack levels used: 1
  3955 ;; This function calls:
  3956 ;;		Nothing
  3957 ;; This function is called by:
  3958 ;;		i2_putch
  3959 ;; This function uses a non-reentrant model
  3960 ;;
  3961                           
  3962                           	psect	text31
  3963   002CB4                     __ptext31:
  3964                           	callstack 0
  3965   002CB4                     i2_UART2_IsTxReady:
  3966                           	callstack 15
  3967   002CB4                     
  3968                           ;mcc_generated_files/uart/src/uart2.c: 289:     return (uart2TxBufferRemaining ? 1 : 0);
  3969   002CB4  5025               	movf	_uart2TxBufferRemaining^0,w,c	;volatile
  3970   002CB6  A4D8               	btfss	status,2,c
  3971   002CB8  EF60  F016         	goto	i2u123_41
  3972   002CBC  EF63  F016         	goto	i2u123_40
  3973   002CC0                     i2u123_41:
  3974   002CC0  0E01               	movlw	1
  3975   002CC2  EF64  F016         	goto	i2u124_40
  3976   002CC6                     i2u123_40:
  3977   002CC6  0E00               	movlw	0
  3978   002CC8                     i2u124_40:
  3979   002CC8  0012               	return		;funcret
  3980   002CCA                     __end_ofi2_UART2_IsTxReady:
  3981                           	callstack 0
  3982                           
  3983 ;; *************** function _strcmp *****************
  3984 ;; Defined at:
  3985 ;;		line 3 in file "C:\Program Files\Microchip\xc8\v2.46\pic\sources\c99\common\strcmp.c"
  3986 ;; Parameters:    Size  Location     Type
  3987 ;;  l               1    0[COMRAM] PTR const unsigned char 
  3988 ;;		 -> command(8), 
  3989 ;;  r               1    1[COMRAM] PTR const unsigned char 
  3990 ;;		 -> STR_5(2), STR_3(2), 
  3991 ;; Auto vars:     Size  Location     Type
  3992 ;;		None
  3993 ;; Return value:  Size  Location     Type
  3994 ;;                  2    0[COMRAM] int 
  3995 ;; Registers used:
  3996 ;;		wreg, fsr2l, fsr2h, status,2, status,0, tblptrl, tblptrh, tblptru
  3997 ;; Tracked objects:
  3998 ;;		On entry : 0/0
  3999 ;;		On exit  : 0/0
  4000 ;;		Unchanged: 0/0
  4001 ;; Data sizes:     COMRAM   BANK0   BANK1   BANK2   BANK3   BANK4   BANK5   BANK6   BANK7   BANK8   BANK9  BANK10  BANK1
      +1  BANK12  BANK13  BANK14  BANK15  BANK16  BANK17  BANK18  BANK19  BANK20  BANK21  BANK22  BANK23  BANK24  BANK25  BANK2
      +6  BANK27  BANK28  BANK29  BANK30  BANK31
  4002 ;;      Params:         2       0       0       0       0       0       0       0       0       0       0       0       
      +0       0       0       0       0       0       0       0       0       0       0       0       0       0       0       
      +0       0       0       0       0       0
  4003 ;;      Locals:         0       0       0       0       0       0       0       0       0       0       0       0       
      +0       0       0       0       0       0       0       0       0       0       0       0       0       0       0       
      +0       0       0       0       0       0
  4004 ;;      Temps:          1       0       0       0       0       0       0       0       0       0       0       0       
      +0       0       0       0       0       0       0       0       0       0       0       0       0       0       0       
      +0       0       0       0       0       0
  4005 ;;      Totals:         3       0       0       0       0       0       0       0       0       0       0       0       
      +0       0       0       0       0       0       0       0       0       0       0       0       0       0       0       
      +0       0       0       0       0       0
  4006 ;;Total ram usage:        3 bytes
  4007 ;; Hardware stack levels used: 1
  4008 ;; This function calls:
  4009 ;;		Nothing
  4010 ;; This function is called by:
  4011 ;;		_UART_executeCommand
  4012 ;; This function uses a non-reentrant model
  4013 ;;
  4014                           
  4015                           	psect	text32
  4016   0027E4                     __ptext32:
  4017                           	callstack 0
  4018   0027E4                     _strcmp:
  4019                           	callstack 20
  4020   0027E4  EFF6  F013         	goto	i2l1898
  4021   0027E8                     i2l1896:
  4022   0027E8  2A28               	incf	strcmp@l^0,f,c
  4023   0027EA  2A29               	incf	strcmp@r^0,f,c
  4024   0027EC                     i2l1898:
  4025   0027EC  5028               	movf	strcmp@l^0,w,c
  4026   0027EE  6ED9               	movwf	fsr2l,c
  4027   0027F0  6ADA               	clrf	fsr2h,c
  4028   0027F2  50DF               	movf	indf2,w,c
  4029   0027F4  6E2A               	movwf	??_strcmp^0,c
  4030   0027F6  0060  F0A7  FFF6   	movff	strcmp@r,tblptrl
  4031   0027FC                     	if	1	;There is more than 1 active tblptr byte
  4032   0027FC  0E20               	movlw	high __smallconst
  4033   0027FE  6EF7               	movwf	tblptrh,c
  4034   002800                     	endif
  4035   002800                     	if	0	;tblptru may be non-zero
  4036   002800                     	endif
  4037   002800                     	if	1	;Program memory is > 0xFFFF, there are 3 active tblptr bytes
  4038   002800  0E00               	movlw	low (__smallconst shr (0+16))
  4039   002802  6EF8               	movwf	tblptru,c
  4040   002804                     	endif
  4041   002804  0008               	tblrd		*
  4042   002806  50F5               	movf	tablat,w,c
  4043   002808  182A               	xorwf	??_strcmp^0,w,c
  4044   00280A  A4D8               	btfss	status,2,c
  4045   00280C  EF0A  F014         	goto	i2u81_41
  4046   002810  EF0C  F014         	goto	i2u81_40
  4047   002814                     i2u81_41:
  4048   002814  EF17  F014         	goto	i2l1902
  4049   002818                     i2u81_40:
  4050   002818  5028               	movf	strcmp@l^0,w,c
  4051   00281A  6ED9               	movwf	fsr2l,c
  4052   00281C  6ADA               	clrf	fsr2h,c
  4053   00281E  50DF               	movf	indf2,w,c
  4054   002820  A4D8               	btfss	status,2,c
  4055   002822  EF15  F014         	goto	i2u82_41
  4056   002826  EF17  F014         	goto	i2u82_40
  4057   00282A                     i2u82_41:
  4058   00282A  EFF4  F013         	goto	i2l1896
  4059   00282E                     i2u82_40:
  4060   00282E                     i2l1902:
  4061   00282E  5028               	movf	strcmp@l^0,w,c
  4062   002830  6ED9               	movwf	fsr2l,c
  4063   002832  6ADA               	clrf	fsr2h,c
  4064   002834  50DF               	movf	indf2,w,c
  4065   002836  6E2A               	movwf	??_strcmp^0,c
  4066   002838  0060  F0A7  FFF6   	movff	strcmp@r,tblptrl
  4067   00283E                     	if	1	;There is more than 1 active tblptr byte
  4068   00283E  0E20               	movlw	high __smallconst
  4069   002840  6EF7               	movwf	tblptrh,c
  4070   002842                     	endif
  4071   002842                     	if	0	;tblptru may be non-zero
  4072   002842                     	endif
  4073   002842                     	if	1	;Program memory is > 0xFFFF, there are 3 active tblptr bytes
  4074   002842  0E00               	movlw	low (__smallconst shr (0+16))
  4075   002844  6EF8               	movwf	tblptru,c
  4076   002846                     	endif
  4077   002846  0008               	tblrd		*
  4078   002848  50F5               	movf	tablat,w,c
  4079   00284A  5C2A               	subwf	??_strcmp^0,w,c
  4080   00284C  6E28               	movwf	?_strcmp^0,c
  4081   00284E  6A29               	clrf	(?_strcmp+1)^0,c
  4082   002850  A0D8               	btfss	status,0,c
  4083   002852  0629               	decf	(?_strcmp+1)^0,f,c
  4084   002854  0012               	return		;funcret
  4085   002856                     __end_of_strcmp:
  4086                           	callstack 0
  4087                           
  4088 ;; *************** function _UART2_Read *****************
  4089 ;; Defined at:
  4090 ;;		line 304 in file "mcc_generated_files/uart/src/uart2.c"
  4091 ;; Parameters:    Size  Location     Type
  4092 ;;		None
  4093 ;; Auto vars:     Size  Location     Type
  4094 ;;  readValue       1    1[COMRAM] unsigned char 
  4095 ;;  tempRxTail      1    0[COMRAM] unsigned char 
  4096 ;; Return value:  Size  Location     Type
  4097 ;;                  1    wreg      unsigned char 
  4098 ;; Registers used:
  4099 ;;		wreg, fsr2l, fsr2h, status,2, status,0
  4100 ;; Tracked objects:
  4101 ;;		On entry : 0/0
  4102 ;;		On exit  : 0/0
  4103 ;;		Unchanged: 0/0
  4104 ;; Data sizes:     COMRAM   BANK0   BANK1   BANK2   BANK3   BANK4   BANK5   BANK6   BANK7   BANK8   BANK9  BANK10  BANK1
      +1  BANK12  BANK13  BANK14  BANK15  BANK16  BANK17  BANK18  BANK19  BANK20  BANK21  BANK22  BANK23  BANK24  BANK25  BANK2
      +6  BANK27  BANK28  BANK29  BANK30  BANK31
  4105 ;;      Params:         0       0       0       0       0       0       0       0       0       0       0       0       
      +0       0       0       0       0       0       0       0       0       0       0       0       0       0       0       
      +0       0       0       0       0       0
  4106 ;;      Locals:         2       0       0       0       0       0       0       0       0       0       0       0       
      +0       0       0       0       0       0       0       0       0       0       0       0       0       0       0       
      +0       0       0       0       0       0
  4107 ;;      Temps:          0       0       0       0       0       0       0       0       0       0       0       0       
      +0       0       0       0       0       0       0       0       0       0       0       0       0       0       0       
      +0       0       0       0       0       0
  4108 ;;      Totals:         2       0       0       0       0       0       0       0       0       0       0       0       
      +0       0       0       0       0       0       0       0       0       0       0       0       0       0       0       
      +0       0       0       0       0       0
  4109 ;;Total ram usage:        2 bytes
  4110 ;; Hardware stack levels used: 1
  4111 ;; This function calls:
  4112 ;;		Nothing
  4113 ;; This function is called by:
  4114 ;;		_getch
  4115 ;;		_UART_ProcessCommand
  4116 ;; This function uses a non-reentrant model
  4117 ;;
  4118                           
  4119                           	psect	text33
  4120   002B40                     __ptext33:
  4121                           	callstack 0
  4122   002B40                     _UART2_Read:
  4123                           	callstack 21
  4124   002B40                     
  4125                           ;mcc_generated_files/uart/src/uart2.c: 307:     uint8_t tempRxTail;;mcc_generated_files/
      +                          uart/src/uart2.c: 309:     readValue = uart2RxBuffer[uart2RxTail];
  4126   002B40  0E00               	movlw	low _uart2RxBuffer
  4127   002B42  2423               	addwf	_uart2RxTail^0,w,c	;volatile
  4128   002B44  6ED9               	movwf	fsr2l,c
  4129   002B46  6ADA               	clrf	fsr2h,c
  4130   002B48  0E01               	movlw	high _uart2RxBuffer
  4131   002B4A  22DA               	addwfc	fsr2h,f,c
  4132   002B4C  50DF               	movf	indf2,w,c
  4133   002B4E  6E29               	movwf	UART2_Read@readValue^0,c
  4134   002B50                     
  4135                           ;mcc_generated_files/uart/src/uart2.c: 310:     tempRxTail = (uart2RxTail + 1) & ((128) 
      +                          - 1);
  4136   002B50  2823               	incf	_uart2RxTail^0,w,c	;volatile
  4137   002B52  0B7F               	andlw	127
  4138   002B54  6E28               	movwf	UART2_Read@tempRxTail^0,c
  4139   002B56                     
  4140                           ;mcc_generated_files/uart/src/uart2.c: 311:     uart2RxTail = tempRxTail;
  4141   002B56  C028  F023         	movff	UART2_Read@tempRxTail,_uart2RxTail	;volatile
  4142   002B5A                     
  4143                           ;mcc_generated_files/uart/src/uart2.c: 312:     PIE6bits.U2RXIE = 0;
  4144   002B5A  0139               	movlb	57	; () banked
  4145   002B5C  9596               	bcf	150,2,b	;volatile
  4146   002B5E                     
  4147                           ; BSR set to: 57
  4148                           ;mcc_generated_files/uart/src/uart2.c: 313:     if(uart2RxCount != 0)
  4149   002B5E  5022               	movf	_uart2RxCount^0,w,c	;volatile
  4150   002B60  B4D8               	btfsc	status,2,c
  4151   002B62  EFB5  F015         	goto	i2u92_41
  4152   002B66  EFB7  F015         	goto	i2u92_40
  4153   002B6A                     i2u92_41:
  4154   002B6A  EFB8  F015         	goto	i2l1962
  4155   002B6E                     i2u92_40:
  4156   002B6E                     
  4157                           ; BSR set to: 57
  4158                           ;mcc_generated_files/uart/src/uart2.c: 314:     {;mcc_generated_files/uart/src/uart2.c: 
      +                          315:         uart2RxCount--;
  4159   002B6E  0622               	decf	_uart2RxCount^0,f,c	;volatile
  4160   002B70                     i2l1962:
  4161                           
  4162                           ; BSR set to: 57
  4163                           ;mcc_generated_files/uart/src/uart2.c: 317:     PIE6bits.U2RXIE = 1;
  4164   002B70  8596               	bsf	150,2,b	;volatile
  4165   002B72                     
  4166                           ; BSR set to: 57
  4167                           ;mcc_generated_files/uart/src/uart2.c: 318:     return readValue;
  4168   002B72  5029               	movf	UART2_Read@readValue^0,w,c
  4169   002B74                     
  4170                           ; BSR set to: 57
  4171   002B74  0012               	return		;funcret
  4172   002B76                     __end_of_UART2_Read:
  4173                           	callstack 0
  4174                           
  4175 ;; *************** function _UART2_IsRxReady *****************
  4176 ;; Defined at:
  4177 ;;		line 282 in file "mcc_generated_files/uart/src/uart2.c"
  4178 ;; Parameters:    Size  Location     Type
  4179 ;;		None
  4180 ;; Auto vars:     Size  Location     Type
  4181 ;;		None
  4182 ;; Return value:  Size  Location     Type
  4183 ;;                  1    wreg      _Bool 
  4184 ;; Registers used:
  4185 ;;		wreg, status,2
  4186 ;; Tracked objects:
  4187 ;;		On entry : 0/0
  4188 ;;		On exit  : 0/0
  4189 ;;		Unchanged: 0/0
  4190 ;; Data sizes:     COMRAM   BANK0   BANK1   BANK2   BANK3   BANK4   BANK5   BANK6   BANK7   BANK8   BANK9  BANK10  BANK1
      +1  BANK12  BANK13  BANK14  BANK15  BANK16  BANK17  BANK18  BANK19  BANK20  BANK21  BANK22  BANK23  BANK24  BANK25  BANK2
      +6  BANK27  BANK28  BANK29  BANK30  BANK31
  4191 ;;      Params:         0       0       0       0       0       0       0       0       0       0       0       0       
      +0       0       0       0       0       0       0       0       0       0       0       0       0       0       0       
      +0       0       0       0       0       0
  4192 ;;      Locals:         0       0       0       0       0       0       0       0       0       0       0       0       
      +0       0       0       0       0       0       0       0       0       0       0       0       0       0       0       
      +0       0       0       0       0       0
  4193 ;;      Temps:          0       0       0       0       0       0       0       0       0       0       0       0       
      +0       0       0       0       0       0       0       0       0       0       0       0       0       0       0       
      +0       0       0       0       0       0
  4194 ;;      Totals:         0       0       0       0       0       0       0       0       0       0       0       0       
      +0       0       0       0       0       0       0       0       0       0       0       0       0       0       0       
      +0       0       0       0       0       0
  4195 ;;Total ram usage:        0 bytes
  4196 ;; Hardware stack levels used: 1
  4197 ;; This function calls:
  4198 ;;		Nothing
  4199 ;; This function is called by:
  4200 ;;		_getch
  4201 ;;		_UART_ProcessCommand
  4202 ;; This function uses a non-reentrant model
  4203 ;;
  4204                           
  4205                           	psect	text34
  4206   002CCA                     __ptext34:
  4207                           	callstack 0
  4208   002CCA                     _UART2_IsRxReady:
  4209                           	callstack 21
  4210   002CCA                     
  4211                           ;mcc_generated_files/uart/src/uart2.c: 284:     return (uart2RxCount ? 1 : 0);
  4212   002CCA  5022               	movf	_uart2RxCount^0,w,c	;volatile
  4213   002CCC  A4D8               	btfss	status,2,c
  4214   002CCE  EF6B  F016         	goto	i2u90_41
  4215   002CD2  EF6E  F016         	goto	i2u90_40
  4216   002CD6                     i2u90_41:
  4217   002CD6  0E01               	movlw	1
  4218   002CD8  EF6F  F016         	goto	i2u91_40
  4219   002CDC                     i2u90_40:
  4220   002CDC  0E00               	movlw	0
  4221   002CDE                     i2u91_40:
  4222   002CDE  0012               	return		;funcret
  4223   002CE0                     __end_of_UART2_IsRxReady:
  4224                           	callstack 0
  4225                           
  4226 ;; *************** function _UART2_DefaultOverrunErrorCallback *****************
  4227 ;; Defined at:
  4228 ;;		line 434 in file "mcc_generated_files/uart/src/uart2.c"
  4229 ;; Parameters:    Size  Location     Type
  4230 ;;		None
  4231 ;; Auto vars:     Size  Location     Type
  4232 ;;		None
  4233 ;; Return value:  Size  Location     Type
  4234 ;;                  1    wreg      void 
  4235 ;; Registers used:
  4236 ;;		None
  4237 ;; Tracked objects:
  4238 ;;		On entry : 0/0
  4239 ;;		On exit  : 0/0
  4240 ;;		Unchanged: 0/0
  4241 ;; Data sizes:     COMRAM   BANK0   BANK1   BANK2   BANK3   BANK4   BANK5   BANK6   BANK7   BANK8   BANK9  BANK10  BANK1
      +1  BANK12  BANK13  BANK14  BANK15  BANK16  BANK17  BANK18  BANK19  BANK20  BANK21  BANK22  BANK23  BANK24  BANK25  BANK2
      +6  BANK27  BANK28  BANK29  BANK30  BANK31
  4242 ;;      Params:         0       0       0       0       0       0       0       0       0       0       0       0       
      +0       0       0       0       0       0       0       0       0       0       0       0       0       0       0       
      +0       0       0       0       0       0
  4243 ;;      Locals:         0       0       0       0       0       0       0       0       0       0       0       0       
      +0       0       0       0       0       0       0       0       0       0       0       0       0       0       0       
      +0       0       0       0       0       0
  4244 ;;      Temps:          0       0       0       0       0       0       0       0       0       0       0       0       
      +0       0       0       0       0       0       0       0       0       0       0       0       0       0       0       
      +0       0       0       0       0       0
  4245 ;;      Totals:         0       0       0       0       0       0       0       0       0       0       0       0       
      +0       0       0       0       0       0       0       0       0       0       0       0       0       0       0       
      +0       0       0       0       0       0
  4246 ;;Total ram usage:        0 bytes
  4247 ;; Hardware stack levels used: 1
  4248 ;; This function calls:
  4249 ;;		Nothing
  4250 ;; This function is called by:
  4251 ;;		_UART2_Initialize
  4252 ;;		_UART2_ReceiveISR
  4253 ;; This function uses a non-reentrant model
  4254 ;;
  4255                           
  4256                           	psect	text35
  4257   002D1C                     __ptext35:
  4258                           	callstack 0
  4259   002D1C                     _UART2_DefaultOverrunErrorCallback:
  4260                           	callstack 22
  4261   002D1C  0012               	return		;funcret
  4262   002D1E                     __end_of_UART2_DefaultOverrunErrorCallback:
  4263                           	callstack 0
  4264                           
  4265 ;; *************** function _UART2_DefaultFramingErrorCallback *****************
  4266 ;; Defined at:
  4267 ;;		line 429 in file "mcc_generated_files/uart/src/uart2.c"
  4268 ;; Parameters:    Size  Location     Type
  4269 ;;		None
  4270 ;; Auto vars:     Size  Location     Type
  4271 ;;		None
  4272 ;; Return value:  Size  Location     Type
  4273 ;;                  1    wreg      void 
  4274 ;; Registers used:
  4275 ;;		None
  4276 ;; Tracked objects:
  4277 ;;		On entry : 0/0
  4278 ;;		On exit  : 0/0
  4279 ;;		Unchanged: 0/0
  4280 ;; Data sizes:     COMRAM   BANK0   BANK1   BANK2   BANK3   BANK4   BANK5   BANK6   BANK7   BANK8   BANK9  BANK10  BANK1
      +1  BANK12  BANK13  BANK14  BANK15  BANK16  BANK17  BANK18  BANK19  BANK20  BANK21  BANK22  BANK23  BANK24  BANK25  BANK2
      +6  BANK27  BANK28  BANK29  BANK30  BANK31
  4281 ;;      Params:         0       0       0       0       0       0       0       0       0       0       0       0       
      +0       0       0       0       0       0       0       0       0       0       0       0       0       0       0       
      +0       0       0       0       0       0
  4282 ;;      Locals:         0       0       0       0       0       0       0       0       0       0       0       0       
      +0       0       0       0       0       0       0       0       0       0       0       0       0       0       0       
      +0       0       0       0       0       0
  4283 ;;      Temps:          0       0       0       0       0       0       0       0       0       0       0       0       
      +0       0       0       0       0       0       0       0       0       0       0       0       0       0       0       
      +0       0       0       0       0       0
  4284 ;;      Totals:         0       0       0       0       0       0       0       0       0       0       0       0       
      +0       0       0       0       0       0       0       0       0       0       0       0       0       0       0       
      +0       0       0       0       0       0
  4285 ;;Total ram usage:        0 bytes
  4286 ;; Hardware stack levels used: 1
  4287 ;; This function calls:
  4288 ;;		Nothing
  4289 ;; This function is called by:
  4290 ;;		_UART2_Initialize
  4291 ;;		_UART2_ReceiveISR
  4292 ;; This function uses a non-reentrant model
  4293 ;;
  4294                           
  4295                           	psect	text36
  4296   002D1E                     __ptext36:
  4297                           	callstack 0
  4298   002D1E                     _UART2_DefaultFramingErrorCallback:
  4299                           	callstack 22
  4300   002D1E  0012               	return		;funcret
  4301   002D20                     __end_of_UART2_DefaultFramingErrorCallback:
  4302                           	callstack 0
  4303                           
  4304                           ;
  4305                           ; H/W Interrupt Vector Table @ 0x8
  4306                           ;
  4307                           
  4308                           	psect	ivt0x8
  4309   000008                     __pivt0x8:
  4310                           	callstack 0
  4311   000008                     ivt0x8_base:
  4312                           	callstack 0
  4313                           
  4314                           ; high-priority vector
  4315   000008  EFB9  F012         	goto	_INTERRUPT_InterruptManager
  4316   000018                     	org	16
  4317                           
  4318                           ; low-priority vector
  4319   000018  00FF               	reset	
  4320                           
  4321                           	psect	rparam
  4322   000000                     
  4323                           	psect	config
  4324                           
  4325                           ;Config register CONFIG1L @ 0x300000
  4326                           ;	External Oscillator Selection
  4327                           ;	FEXTOSC = ECH, EC (external clock) above 8 MHz; PFM set to high power
  4328                           ;	Reset Oscillator Selection
  4329                           ;	RSTOSC = HFINTOSC_64MHZ, HFINTOSC with HFFRQ = 64 MHz and CDIV = 1:1
  4330   300000                     	org	3145728
  4331   300000  8F                 	db	143
  4332                           
  4333                           ;Config register CONFIG1H @ 0x300001
  4334                           ;	Clock out Enable bit
  4335                           ;	CLKOUTEN = OFF, CLKOUT function is disabled
  4336                           ;	PRLOCKED One-Way Set Enable bit
  4337                           ;	PR1WAY = ON, PRLOCK bit can be cleared and set only once
  4338                           ;	Clock Switch Enable bit
  4339                           ;	CSWEN = ON, Writing to NOSC and NDIV is allowed
  4340                           ;	Fail-Safe Clock Monitor Enable bit
  4341                           ;	FCMEN = ON, Fail-Safe Clock Monitor enabled
  4342   300001                     	org	3145729
  4343   300001  FF                 	db	255
  4344                           
  4345                           ;Config register CONFIG2L @ 0x300002
  4346                           ;	MCLR Enable bit
  4347                           ;	MCLRE = EXTMCLR, If LVP = 0, MCLR pin is MCLR; If LVP = 1, RE3 pin function is MCLR
  4348                           ;	Power-up timer selection bits
  4349                           ;	PWRTS = PWRT_OFF, PWRT is disabled
  4350                           ;	Multi-vector enable bit
  4351                           ;	MVECEN = OFF, Interrupt contoller does not use vector table to prioritze interrupts
  4352                           ;	IVTLOCK bit One-way set enable bit
  4353                           ;	IVT1WAY = ON, IVTLOCK bit can be cleared and set only once
  4354                           ;	Low Power BOR Enable bit
  4355                           ;	LPBOREN = OFF, ULPBOR disabled
  4356                           ;	Brown-out Reset Enable bits
  4357                           ;	BOREN = SBORDIS, Brown-out Reset enabled , SBOREN bit is ignored
  4358   300002                     	org	3145730
  4359   300002  F7                 	db	247
  4360                           
  4361                           ;Config register CONFIG2H @ 0x300003
  4362                           ;	Brown-out Reset Voltage Selection bits
  4363                           ;	BORV = VBOR_2P45, Brown-out Reset Voltage (VBOR) set to 2.45V
  4364                           ;	ZCD Disable bit
  4365                           ;	ZCD = OFF, ZCD disabled. ZCD can be enabled by setting the ZCDSEN bit of ZCDCON
  4366                           ;	PPSLOCK bit One-Way Set Enable bit
  4367                           ;	PPS1WAY = ON, PPSLOCK bit can be cleared and set only once; PPS registers remain locke
      +                          d after one clear/set cycle
  4368                           ;	Stack Full/Underflow Reset Enable bit
  4369                           ;	STVREN = ON, Stack full/underflow will cause Reset
  4370                           ;	Debugger Enable bit
  4371                           ;	DEBUG = 0x1, unprogrammed default
  4372                           ;	Extended Instruction Set Enable bit
  4373                           ;	XINST = OFF, Extended Instruction Set and Indexed Addressing Mode disabled
  4374   300003                     	org	3145731
  4375   300003  FF                 	db	255
  4376                           
  4377                           ;Config register CONFIG3L @ 0x300004
  4378                           ;	WDT Period selection bits
  4379                           ;	WDTCPS = WDTCPS_31, Divider ratio 1:65536; software control of WDTPS
  4380                           ;	WDT operating mode
  4381                           ;	WDTE = OFF, WDT Disabled; SWDTEN is ignored
  4382   300004                     	org	3145732
  4383   300004  9F                 	db	159
  4384                           
  4385                           ;Config register CONFIG3H @ 0x300005
  4386                           ;	WDT Window Select bits
  4387                           ;	WDTCWS = WDTCWS_7, window always open (100%); software control; keyed access not requi
      +                          red
  4388                           ;	WDT input clock selector
  4389                           ;	WDTCCS = SC, Software Control
  4390   300005                     	org	3145733
  4391   300005  FF                 	db	255
  4392                           
  4393                           ;Config register CONFIG4L @ 0x300006
  4394                           ;	Boot Block Size selection bits
  4395                           ;	BBSIZE = BBSIZE_512, Boot Block size is 512 words
  4396                           ;	Boot Block enable bit
  4397                           ;	BBEN = OFF, Boot block disabled
  4398                           ;	Storage Area Flash enable bit
  4399                           ;	SAFEN = OFF, SAF disabled
  4400                           ;	Application Block write protection bit
  4401                           ;	WRTAPP = OFF, Application Block not write protected
  4402   300006                     	org	3145734
  4403   300006  FF                 	db	255
  4404                           
  4405                           ;Config register CONFIG4H @ 0x300007
  4406                           ;	Boot Block Write Protection bit
  4407                           ;	WRTB = OFF, Boot Block not write-protected
  4408                           ;	Configuration Register Write Protection bit
  4409                           ;	WRTC = OFF, Configuration registers not write-protected
  4410                           ;	Data EEPROM Write Protection bit
  4411                           ;	WRTD = OFF, Data EEPROM not write-protected
  4412                           ;	SAF Write protection bit
  4413                           ;	WRTSAF = OFF, SAF not Write Protected
  4414                           ;	Low Voltage Programming Enable bit
  4415                           ;	LVP = ON, Low voltage programming enabled. MCLR/VPP pin function is MCLR. MCLRE config
      +                          uration bit is ignored
  4416   300007                     	org	3145735
  4417   300007  FF                 	db	255
  4418                           
  4419                           ;Config register CONFIG5L @ 0x300008
  4420                           ;	PFM and Data EEPROM Code Protection bit
  4421                           ;	CP = OFF, PFM and Data EEPROM code protection disabled
  4422   300008                     	org	3145736
  4423   300008  FF                 	db	255
  4424                           
  4425                           ;Config register CONFIG5H @ 0x300009
  4426                           ;	unspecified, using default values
  4427   300009                     	org	3145737
  4428   300009  FF                 	db	255
  4429                           tosu	equ	0x3FFF
  4430                           tosh	equ	0x3FFE
  4431                           tosl	equ	0x3FFD
  4432                           stkptr	equ	0x3FFC
  4433                           pclatu	equ	0x3FFB
  4434                           pclath	equ	0x3FFA
  4435                           pcl	equ	0x3FF9
  4436                           tblptru	equ	0x3FF8
  4437                           tblptrh	equ	0x3FF7
  4438                           tblptrl	equ	0x3FF6
  4439                           tablat	equ	0x3FF5
  4440                           prodh	equ	0x3FF4
  4441                           prodl	equ	0x3FF3
  4442                           indf0	equ	0x3FEF
  4443                           postinc0	equ	0x3FEE
  4444                           postdec0	equ	0x3FED
  4445                           preinc0	equ	0x3FEC
  4446                           plusw0	equ	0x3FEB
  4447                           fsr0h	equ	0x3FEA
  4448                           fsr0l	equ	0x3FE9
  4449                           wreg	equ	0x3FE8
  4450                           indf1	equ	0x3FE7
  4451                           postinc1	equ	0x3FE6
  4452                           postdec1	equ	0x3FE5
  4453                           preinc1	equ	0x3FE4
  4454                           plusw1	equ	0x3FE3
  4455                           fsr1h	equ	0x3FE2
  4456                           fsr1l	equ	0x3FE1
  4457                           bsr	equ	0x3FE0
  4458                           indf2	equ	0x3FDF
  4459                           postinc2	equ	0x3FDE
  4460                           postdec2	equ	0x3FDD
  4461                           preinc2	equ	0x3FDC
  4462                           plusw2	equ	0x3FDB
  4463                           fsr2h	equ	0x3FDA
  4464                           fsr2l	equ	0x3FD9
  4465                           status	equ	0x3FD8

Data Sizes:
    Strings     175
    Constant    72
    Data        0
    BSS         591
    Persistent  6
    Stack       0

Auto Spaces:
    Space          Size  Autos    Used
    COMRAM           95     32      71
    BANK0           160     23      69
    BANK1           256      0     256
    BANK2           256      0     256
    BANK3           256      0       0
    BANK4           256      0       0
    BANK5           256      0       0
    BANK6           256      0       0
    BANK7           256      0       0
    BANK8           256      0       0
    BANK9           256      0       0
    BANK10          256      0       0
    BANK11          256      0       0
    BANK12          256      0       0
    BANK13          256      0       0
    BANK14          256      0       0
    BANK15          256      0       0
    BANK16          256      0       0
    BANK17          256      0       0
    BANK18          256      0       0
    BANK19          256      0       0
    BANK20          256      0       0
    BANK21          256      0       0
    BANK22          256      0       0
    BANK23          256      0       0
    BANK24          256      0       0
    BANK25          256      0       0
    BANK26          256      0       0
    BANK27          256      0       0
    BANK28          256      0       0
    BANK29          256      0       0
    BANK30          256      0       0
    BANK31          256      0       0

Pointer List with Targets:

    fputc@fp	PTR struct _IO_FILE size(2) Largest target is 0
		 -> NULL(NULL[0]), 

    fputc@fp$.$buffer	PTR unsigned char  size(2) Largest target is 0

    fputc@fp$.$source	PTR const unsigned char  size(2) Largest target is 0

    INT0_InterruptHandler	PTR FTN()void  size(3) Largest target is 1
		 -> INT0_DefaultInterruptHandler(), NULL(), 

    INT0_SetInterruptHandler@InterruptHandler	PTR FTN()void  size(3) Largest target is 1
		 -> INT0_DefaultInterruptHandler(), 

    INT1_InterruptHandler	PTR FTN()void  size(3) Largest target is 1
		 -> INT1_DefaultInterruptHandler(), NULL(), 

    INT1_SetInterruptHandler@InterruptHandler	PTR FTN()void  size(3) Largest target is 1
		 -> INT1_DefaultInterruptHandler(), 

    INT2_InterruptHandler	PTR FTN()void  size(3) Largest target is 1
		 -> INT2_DefaultInterruptHandler(), NULL(), 

    INT2_SetInterruptHandler@InterruptHandler	PTR FTN()void  size(3) Largest target is 1
		 -> INT2_DefaultInterruptHandler(), 

    printf@ap	PTR void [1] size(1) Largest target is 2
		 -> ?_printf(BANK0[2]), 

    printf@fmt	PTR const unsigned char  size(1) Largest target is 72
		 -> STR_1(CODE[72]), STR_2(CODE[49]), STR_4(CODE[14]), STR_6(CODE[15]), 
		 -> STR_7(CODE[21]), 

    S1594$buffer	PTR unsigned char  size(2) Largest target is 0

    S1594$source	PTR const unsigned char  size(2) Largest target is 0

    S402$17$0	PTR FTN()void  size(3) Largest target is 0

    S402$18$0	PTR FTN()void  size(3) Largest target is 1
		 -> UART_ProcessCommand(), 

    S402$20$0	PTR FTN()void  size(3) Largest target is 1
		 -> UART2_DefaultFramingErrorCallback(), 

    S402$21$0	PTR FTN()void  size(3) Largest target is 1
		 -> UART2_DefaultOverrunErrorCallback(), 

    S402$22$0	PTR FTN()void  size(3) Largest target is 1
		 -> UART2_DefaultParityErrorCallback(), 

    S402$AutoBaudEventEnableGet	PTR FTN()_Bool  size(3) Largest target is 1
		 -> NULL(), 

    S402$AutoBaudQuery	PTR FTN()_Bool  size(3) Largest target is 1
		 -> UART2_AutoBaudQuery(), 

    S402$AutoBaudSet	PTR FTN(_Bool ,)void  size(3) Largest target is 1
		 -> UART2_AutoBaudSet(), 

    S402$BaudRateGet	PTR FTN()unsigned long  size(3) Largest target is 1
		 -> NULL(), 

    S402$BaudRateSet	PTR FTN(unsigned long ,)void  size(3) Largest target is 1
		 -> NULL(), 

    S402$BRGCountGet	PTR FTN()unsigned long  size(3) Largest target is 1
		 -> NULL(), 

    S402$BRGCountSet	PTR FTN(unsigned long ,)void  size(3) Largest target is 1
		 -> NULL(), 

    S402$Deinitialize	PTR FTN()void  size(3) Largest target is 1
		 -> UART2_Deinitialize(), 

    S402$ErrorGet	PTR FTN()unsigned int  size(3) Largest target is 2
		 -> UART2_ErrorGet(), 

    S402$EventCallbackRegister	PTR FTN(PTR FTN()void ,)void  size(3) Largest target is 1
		 -> NULL(), 

    S402$FramingErrorCallbackRegister	PTR FTN(PTR FTN()void ,)void  size(3) Largest target is 1
		 -> UART2_FramingErrorCallbackRegister(), 

    S402$Initialize	PTR FTN()void  size(3) Largest target is 1
		 -> UART2_Initialize(), 

    S402$IsRxReady	PTR FTN()_Bool  size(3) Largest target is 1
		 -> UART2_IsRxReady(), 

    S402$IsTxDone	PTR FTN()_Bool  size(3) Largest target is 1
		 -> UART2_IsTxDone(), 

    S402$IsTxReady	PTR FTN()_Bool  size(3) Largest target is 1
		 -> UART2_IsTxReady(), 

    S402$OverrunErrorCallbackRegister	PTR FTN(PTR FTN()void ,)void  size(3) Largest target is 1
		 -> UART2_OverrunErrorCallbackRegister(), 

    S402$ParityErrorCallbackRegister	PTR FTN(PTR FTN()void ,)void  size(3) Largest target is 1
		 -> UART2_ParityErrorCallbackRegister(), 

    S402$Read	PTR FTN()unsigned char  size(3) Largest target is 1
		 -> UART2_Read(), 

    S402$RxCompleteCallbackRegister	PTR FTN(PTR FTN()void ,)void  size(3) Largest target is 1
		 -> UART2_RxCompleteCallbackRegister(), 

    S402$TransmitDisable	PTR FTN()void  size(3) Largest target is 1
		 -> UART2_TransmitDisable(), 

    S402$TransmitEnable	PTR FTN()void  size(3) Largest target is 1
		 -> UART2_TransmitEnable(), 

    S402$TxCollisionCallbackRegister	PTR FTN(PTR FTN()void ,)void  size(3) Largest target is 1
		 -> NULL(), 

    S402$TxCompleteCallbackRegister	PTR FTN(PTR FTN()void ,)void  size(3) Largest target is 1
		 -> UART2_TxCompleteCallbackRegister(), 

    S402$Write	PTR FTN(unsigned char ,)void  size(3) Largest target is 1
		 -> UART2_Write(), 

    strcmp@l	PTR const unsigned char  size(1) Largest target is 8
		 -> command(BANK0[8]), 

    strcmp@r	PTR const unsigned char  size(1) Largest target is 2
		 -> STR_3(CODE[2]), STR_5(CODE[2]), 

    UART2$AutoBaudEventEnableGet	PTR FTN()_Bool  size(3) Largest target is 1
		 -> NULL(), 

    UART2$AutoBaudQuery	PTR FTN()_Bool  size(3) Largest target is 1
		 -> UART2_AutoBaudQuery(), 

    UART2$AutoBaudSet	PTR FTN(_Bool ,)void  size(3) Largest target is 1
		 -> UART2_AutoBaudSet(), 

    UART2$BaudRateGet	PTR FTN()unsigned long  size(3) Largest target is 1
		 -> NULL(), 

    UART2$BaudRateSet	PTR FTN(unsigned long ,)void  size(3) Largest target is 1
		 -> NULL(), 

    UART2$BRGCountGet	PTR FTN()unsigned long  size(3) Largest target is 1
		 -> NULL(), 

    UART2$BRGCountSet	PTR FTN(unsigned long ,)void  size(3) Largest target is 1
		 -> NULL(), 

    UART2$Deinitialize	PTR FTN()void  size(3) Largest target is 1
		 -> UART2_Deinitialize(), 

    UART2$ErrorGet	PTR FTN()unsigned int  size(3) Largest target is 2
		 -> UART2_ErrorGet(), 

    UART2$EventCallbackRegister	PTR FTN(PTR FTN()void ,)void  size(3) Largest target is 1
		 -> NULL(), 

    UART2$FramingErrorCallbackRegister	PTR FTN(PTR FTN()void ,)void  size(3) Largest target is 1
		 -> UART2_FramingErrorCallbackRegister(), 

    UART2$Initialize	PTR FTN()void  size(3) Largest target is 1
		 -> UART2_Initialize(), 

    UART2$IsRxReady	PTR FTN()_Bool  size(3) Largest target is 1
		 -> UART2_IsRxReady(), 

    UART2$IsTxDone	PTR FTN()_Bool  size(3) Largest target is 1
		 -> UART2_IsTxDone(), 

    UART2$IsTxReady	PTR FTN()_Bool  size(3) Largest target is 1
		 -> i2_UART2_IsTxReady(), UART2_IsTxReady(), 

    UART2$OverrunErrorCallbackRegister	PTR FTN(PTR FTN()void ,)void  size(3) Largest target is 1
		 -> UART2_OverrunErrorCallbackRegister(), 

    UART2$ParityErrorCallbackRegister	PTR FTN(PTR FTN()void ,)void  size(3) Largest target is 1
		 -> UART2_ParityErrorCallbackRegister(), 

    UART2$Read	PTR FTN()unsigned char  size(3) Largest target is 1
		 -> UART2_Read(), 

    UART2$RxCompleteCallbackRegister	PTR FTN(PTR FTN()void ,)void  size(3) Largest target is 1
		 -> UART2_RxCompleteCallbackRegister(), 

    UART2$TransmitDisable	PTR FTN()void  size(3) Largest target is 1
		 -> UART2_TransmitDisable(), 

    UART2$TransmitEnable	PTR FTN()void  size(3) Largest target is 1
		 -> UART2_TransmitEnable(), 

    UART2$TxCollisionCallbackRegister	PTR FTN(PTR FTN()void ,)void  size(3) Largest target is 1
		 -> NULL(), 

    UART2$TxCompleteCallbackRegister	PTR FTN(PTR FTN()void ,)void  size(3) Largest target is 1
		 -> UART2_TxCompleteCallbackRegister(), 

    UART2$Write	PTR FTN(unsigned char ,)void  size(3) Largest target is 1
		 -> i2_UART2_Write(), UART2_Write(), 

    UART2_FramingErrorCallbackRegister@callbackHandler	PTR FTN()void  size(3) Largest target is 1
		 -> UART2_DefaultFramingErrorCallback(), 

    UART2_FramingErrorHandler	PTR FTN()void  size(3) Largest target is 1
		 -> UART2_DefaultFramingErrorCallback(), NULL(), 

    UART2_OverrunErrorCallbackRegister@callbackHandler	PTR FTN()void  size(3) Largest target is 1
		 -> UART2_DefaultOverrunErrorCallback(), 

    UART2_OverrunErrorHandler	PTR FTN()void  size(3) Largest target is 1
		 -> UART2_DefaultOverrunErrorCallback(), NULL(), 

    UART2_ParityErrorCallbackRegister@callbackHandler	PTR FTN()void  size(3) Largest target is 1
		 -> UART2_DefaultParityErrorCallback(), 

    UART2_ParityErrorHandler	PTR FTN()void  size(3) Largest target is 1
		 -> UART2_DefaultParityErrorCallback(), NULL(), 

    UART2_RxCompleteCallbackRegister@callbackHandler	PTR FTN()void  size(3) Largest target is 1
		 -> UART_ProcessCommand(), 

    UART2_RxCompleteInterruptHandler	PTR FTN()void  size(3) Largest target is 1
		 -> UART_ProcessCommand(), NULL(), 

    UART2_RxInterruptHandler	PTR FTN()void  size(3) Largest target is 1
		 -> UART2_ReceiveISR(), NULL(), 

    UART2_TxCompleteInterruptHandler	PTR FTN()void  size(3) Largest target is 1
		 -> NULL(), 

    UART2_TxInterruptHandler	PTR FTN()void  size(3) Largest target is 1
		 -> UART2_TransmitISR(), NULL(), 

    UART_executeCommand@command	PTR unsigned char  size(1) Largest target is 8
		 -> command(BANK0[8]), 

    vfpfcnvrt@ap	PTR PTR void  size(1) Largest target is 1
		 -> printf@ap(BANK0[1]), 

    vfpfcnvrt@fmt	PTR PTR unsigned char  size(1) Largest target is 1
		 -> vfprintf@cfmt(BANK0[1]), 

    vfpfcnvrt@fp	PTR struct _IO_FILE size(2) Largest target is 0
		 -> NULL(NULL[0]), 

    vfprintf@ap	PTR PTR void  size(1) Largest target is 1
		 -> printf@ap(BANK0[1]), 

    vfprintf@cfmt	PTR unsigned char  size(1) Largest target is 72
		 -> STR_1(CODE[72]), STR_2(CODE[49]), STR_4(CODE[14]), STR_6(CODE[15]), 
		 -> STR_7(CODE[21]), 

    vfprintf@fmt	PTR const unsigned char  size(1) Largest target is 72
		 -> STR_1(CODE[72]), STR_2(CODE[49]), STR_4(CODE[14]), STR_6(CODE[15]), 
		 -> STR_7(CODE[21]), 

    vfprintf@fp	PTR struct _IO_FILE size(2) Largest target is 0
		 -> NULL(NULL[0]), 


Critical Paths under _main in COMRAM

    None.

Critical Paths under _INTERRUPT_InterruptManager in COMRAM

    _INTERRUPT_InterruptManager->_UART2_ReceiveISR
    _UART_ProcessCommand->_UART_executeCommand
    _UART_executeCommand->i2_printf
    i2_printf->i2_vfprintf
    i2_vfprintf->i2_vfpfcnvrt
    i2_vfpfcnvrt->i2_fputc
    i2_fputc->i2_putch
    i2_putch->i2_UART2_Write

Critical Paths under _main in BANK0

    _main->_printf
    _printf->_vfprintf
    _vfprintf->_vfpfcnvrt
    _vfpfcnvrt->_fputc
    _fputc->_putch
    _putch->_UART2_Write
    _UART2_Initialize->_UART2_FramingErrorCallbackRegister
    _UART2_Initialize->_UART2_OverrunErrorCallbackRegister
    _UART2_Initialize->_UART2_ParityErrorCallbackRegister
    _INTERRUPT_Initialize->_INT0_SetInterruptHandler
    _INTERRUPT_Initialize->_INT1_SetInterruptHandler
    _INTERRUPT_Initialize->_INT2_SetInterruptHandler

Critical Paths under _INTERRUPT_InterruptManager in BANK0

    None.

Critical Paths under _main in BANK1

    None.

Critical Paths under _INTERRUPT_InterruptManager in BANK1

    None.

Critical Paths under _main in BANK2

    None.

Critical Paths under _INTERRUPT_InterruptManager in BANK2

    None.

Critical Paths under _main in BANK3

    None.

Critical Paths under _INTERRUPT_InterruptManager in BANK3

    None.

Critical Paths under _main in BANK4

    None.

Critical Paths under _INTERRUPT_InterruptManager in BANK4

    None.

Critical Paths under _main in BANK5

    None.

Critical Paths under _INTERRUPT_InterruptManager in BANK5

    None.

Critical Paths under _main in BANK6

    None.

Critical Paths under _INTERRUPT_InterruptManager in BANK6

    None.

Critical Paths under _main in BANK7

    None.

Critical Paths under _INTERRUPT_InterruptManager in BANK7

    None.

Critical Paths under _main in BANK8

    None.

Critical Paths under _INTERRUPT_InterruptManager in BANK8

    None.

Critical Paths under _main in BANK9

    None.

Critical Paths under _INTERRUPT_InterruptManager in BANK9

    None.

Critical Paths under _main in BANK10

    None.

Critical Paths under _INTERRUPT_InterruptManager in BANK10

    None.

Critical Paths under _main in BANK11

    None.

Critical Paths under _INTERRUPT_InterruptManager in BANK11

    None.

Critical Paths under _main in BANK12

    None.

Critical Paths under _INTERRUPT_InterruptManager in BANK12

    None.

Critical Paths under _main in BANK13

    None.

Critical Paths under _INTERRUPT_InterruptManager in BANK13

    None.

Critical Paths under _main in BANK14

    None.

Critical Paths under _INTERRUPT_InterruptManager in BANK14

    None.

Critical Paths under _main in BANK15

    None.

Critical Paths under _INTERRUPT_InterruptManager in BANK15

    None.

Critical Paths under _main in BANK16

    None.

Critical Paths under _INTERRUPT_InterruptManager in BANK16

    None.

Critical Paths under _main in BANK17

    None.

Critical Paths under _INTERRUPT_InterruptManager in BANK17

    None.

Critical Paths under _main in BANK18

    None.

Critical Paths under _INTERRUPT_InterruptManager in BANK18

    None.

Critical Paths under _main in BANK19

    None.

Critical Paths under _INTERRUPT_InterruptManager in BANK19

    None.

Critical Paths under _main in BANK20

    None.

Critical Paths under _INTERRUPT_InterruptManager in BANK20

    None.

Critical Paths under _main in BANK21

    None.

Critical Paths under _INTERRUPT_InterruptManager in BANK21

    None.

Critical Paths under _main in BANK22

    None.

Critical Paths under _INTERRUPT_InterruptManager in BANK22

    None.

Critical Paths under _main in BANK23

    None.

Critical Paths under _INTERRUPT_InterruptManager in BANK23

    None.

Critical Paths under _main in BANK24

    None.

Critical Paths under _INTERRUPT_InterruptManager in BANK24

    None.

Critical Paths under _main in BANK25

    None.

Critical Paths under _INTERRUPT_InterruptManager in BANK25

    None.

Critical Paths under _main in BANK26

    None.

Critical Paths under _INTERRUPT_InterruptManager in BANK26

    None.

Critical Paths under _main in BANK27

    None.

Critical Paths under _INTERRUPT_InterruptManager in BANK27

    None.

Critical Paths under _main in BANK28

    None.

Critical Paths under _INTERRUPT_InterruptManager in BANK28

    None.

Critical Paths under _main in BANK29

    None.

Critical Paths under _INTERRUPT_InterruptManager in BANK29

    None.

Critical Paths under _main in BANK30

    None.

Critical Paths under _INTERRUPT_InterruptManager in BANK30

    None.

Critical Paths under _main in BANK31

    None.

Critical Paths under _INTERRUPT_InterruptManager in BANK31

    None.

Call Graph Tables:

 ---------------------------------------------------------------------------------
 (Depth) Function   	        Calls       Base Space   Used Autos Params    Refs
 ---------------------------------------------------------------------------------
 (0) _main                                                 0     0      0    3658
                  _SYSTEM_Initialize
                   _UART2_Initialize
   _UART2_RxCompleteCallbackRegister *
                             _printf
 ---------------------------------------------------------------------------------
 (1) _printf                                               4     3      1    2256
                                             21 BANK0      2     1      1
                           _vfprintf
 ---------------------------------------------------------------------------------
 (2) _vfprintf                                             5     1      4    1836
                                             16 BANK0      5     1      4
                          _vfpfcnvrt
 ---------------------------------------------------------------------------------
 (3) _vfpfcnvrt                                            9     5      4    1360
                                             12 BANK0      4     0      4
                              _fputc
 ---------------------------------------------------------------------------------
 (4) _fputc                                                9     5      4     904
                                              3 BANK0      9     5      4
                              _putch
 ---------------------------------------------------------------------------------
 (5) _putch                                                1     1      0     127
                                              2 BANK0      1     1      0
                    _UART2_IsTxReady
                        _UART2_Write
 ---------------------------------------------------------------------------------
 (6) _UART2_Write                                          2     2      0      96
                                              0 BANK0      2     2      0
 ---------------------------------------------------------------------------------
 (6) _UART2_IsTxReady                                      0     0      0       0
 ---------------------------------------------------------------------------------
 (1) _UART2_RxCompleteCallbackRegister                     3     0      3     127
                                              0 BANK0      3     0      3
 ---------------------------------------------------------------------------------
 (1) _SYSTEM_Initialize                                    0     0      0     819
                   _CLOCK_Initialize
               _INTERRUPT_Initialize
             _PIN_MANAGER_Initialize
                   _UART2_Initialize
 ---------------------------------------------------------------------------------
 (1) _UART2_Initialize                                     0     0      0     456
 _UART2_FramingErrorCallbackRegister
 _UART2_OverrunErrorCallbackRegister
  _UART2_ParityErrorCallbackRegister
 ---------------------------------------------------------------------------------
 (2) _UART2_ParityErrorCallbackRegister                    3     0      3     152
                                              0 BANK0      3     0      3
 ---------------------------------------------------------------------------------
 (2) _UART2_OverrunErrorCallbackRegister                   3     0      3     152
                                              0 BANK0      3     0      3
 ---------------------------------------------------------------------------------
 (2) _UART2_FramingErrorCallbackRegister                   3     0      3     152
                                              0 BANK0      3     0      3
 ---------------------------------------------------------------------------------
 (2) _PIN_MANAGER_Initialize                               0     0      0       0
 ---------------------------------------------------------------------------------
 (2) _INTERRUPT_Initialize                                 0     0      0     363
           _INT0_SetInterruptHandler
           _INT1_SetInterruptHandler
           _INT2_SetInterruptHandler
 ---------------------------------------------------------------------------------
 (3) _INT2_SetInterruptHandler                             3     0      3     121
                                              0 BANK0      3     0      3
 ---------------------------------------------------------------------------------
 (3) _INT1_SetInterruptHandler                             3     0      3     121
                                              0 BANK0      3     0      3
 ---------------------------------------------------------------------------------
 (3) _INT0_SetInterruptHandler                             3     0      3     121
                                              0 BANK0      3     0      3
 ---------------------------------------------------------------------------------
 (2) _CLOCK_Initialize                                     0     0      0       0
 ---------------------------------------------------------------------------------
 Estimated maximum stack depth 6
 ---------------------------------------------------------------------------------
 (Depth) Function   	        Calls       Base Space   Used Autos Params    Refs
 ---------------------------------------------------------------------------------
 (7) _INTERRUPT_InterruptManager                           6     6      0    2009
                                             26 COMRAM     6     6      0
                                NULL *
                   _UART2_ReceiveISR *
                  _UART2_TransmitISR *
 ---------------------------------------------------------------------------------
 (8) _UART2_TransmitISR                                    1     1      0      23
                                              0 COMRAM     1     1      0
 ---------------------------------------------------------------------------------
 (8) _UART2_ReceiveISR                                     2     2      0    1986
                                             24 COMRAM     2     2      0
                                NULL *
  _UART2_DefaultFramingErrorCallback *
  _UART2_DefaultOverrunErrorCallback *
                _UART_ProcessCommand *
 ---------------------------------------------------------------------------------
 (9) _UART_ProcessCommand                                  0     0      0    1887
                    _UART2_IsRxReady *
                         _UART2_Read *
                _UART_executeCommand
 ---------------------------------------------------------------------------------
 (10) _UART_executeCommand                                 1     0      1    1840
                                             23 COMRAM     1     0      1
                             _strcmp
                           i2_printf
 ---------------------------------------------------------------------------------
 (11) i2_printf                                            4     3      1    1272
                                             21 COMRAM     2     1      1
                         i2_vfprintf
 ---------------------------------------------------------------------------------
 (12) i2_vfprintf                                          5     1      4    1092
                                             16 COMRAM     5     1      4
                        i2_vfpfcnvrt
 ---------------------------------------------------------------------------------
 (13) i2_vfpfcnvrt                                         9     5      4     805
                                             12 COMRAM     4     0      4
                            i2_fputc
 ---------------------------------------------------------------------------------
 (14) i2_fputc                                             9     5      4     514
                                              3 COMRAM     9     5      4
                            i2_putch
 ---------------------------------------------------------------------------------
 (15) i2_putch                                             1     1      0     127
                                              2 COMRAM     1     1      0
                  i2_UART2_IsTxReady
                      i2_UART2_Write
 ---------------------------------------------------------------------------------
 (16) i2_UART2_Write                                       2     2      0      96
                                              0 COMRAM     2     2      0
 ---------------------------------------------------------------------------------
 (16) i2_UART2_IsTxReady                                   0     0      0       0
 ---------------------------------------------------------------------------------
 (11) _strcmp                                              3     1      2     416
                                              0 COMRAM     3     1      2
 ---------------------------------------------------------------------------------
 (10) _UART2_Read                                          2     2      0      47
                                              0 COMRAM     2     2      0
 ---------------------------------------------------------------------------------
 (10) _UART2_IsRxReady                                     0     0      0       0
 ---------------------------------------------------------------------------------
 (9) _UART2_DefaultOverrunErrorCallback                    0     0      0       0
 ---------------------------------------------------------------------------------
 (9) _UART2_DefaultFramingErrorCallback                    0     0      0       0
 ---------------------------------------------------------------------------------
 (9) NULL(Fake)                                            0     0      0       0
 ---------------------------------------------------------------------------------
 Estimated maximum stack depth 16
 ---------------------------------------------------------------------------------

 Call Graph Graphs:

 _main (ROOT)
   _SYSTEM_Initialize
     _CLOCK_Initialize
     _INTERRUPT_Initialize
       _INT0_SetInterruptHandler
       _INT1_SetInterruptHandler
       _INT2_SetInterruptHandler
     _PIN_MANAGER_Initialize
     _UART2_Initialize
       _UART2_FramingErrorCallbackRegister
       _UART2_OverrunErrorCallbackRegister
       _UART2_ParityErrorCallbackRegister
   _UART2_Initialize
   _UART2_RxCompleteCallbackRegister *
   _printf *
     _vfprintf
       _vfpfcnvrt
         _fputc
           _putch
             _UART2_IsTxReady
             _UART2_Write

 _INTERRUPT_InterruptManager (ROOT)
   NULL(Fake) *
   _UART2_ReceiveISR *
     NULL(Fake) *
     _UART2_DefaultFramingErrorCallback *
     _UART2_DefaultOverrunErrorCallback *
     _UART_ProcessCommand *
       _UART2_IsRxReady *
       _UART2_Read *
       _UART_executeCommand *
         _strcmp
         i2_printf
           i2_vfprintf
             i2_vfpfcnvrt
               i2_fputc
                 i2_putch
                   i2_UART2_IsTxReady
                   i2_UART2_Write
   _UART2_TransmitISR *

 Address spaces:
Name               Size   Autos  Total    Cost      Usage
BIGRAM            1FFF      0       0      96        0.0%
EEDATA             400      0       0       0        0.0%
BITBIGSFRlhhhhh    2E7      0       0      79        0.0%
BITBIGSFRlhhhhh    1D7      0       0      73        0.0%
BITBIGSFRlll       196      0       0      95        0.0%
BITBANK31          100      0       0      67        0.0%
BANK31             100      0       0      68        0.0%
BITBANK30          100      0       0      65        0.0%
BANK30             100      0       0      66        0.0%
BITBANK29          100      0       0      63        0.0%
BANK29             100      0       0      64        0.0%
BITBANK28          100      0       0      61        0.0%
BANK28             100      0       0      62        0.0%
BITBANK27          100      0       0      59        0.0%
BANK27             100      0       0      60        0.0%
BITBANK26          100      0       0      57        0.0%
BANK26             100      0       0      58        0.0%
BITBANK25          100      0       0      55        0.0%
BANK25             100      0       0      56        0.0%
BITBANK24          100      0       0      53        0.0%
BANK24             100      0       0      54        0.0%
BITBANK23          100      0       0      51        0.0%
BANK23             100      0       0      52        0.0%
BITBANK22          100      0       0      49        0.0%
BANK22             100      0       0      50        0.0%
BITBANK21          100      0       0      47        0.0%
BANK21             100      0       0      48        0.0%
BITBANK20          100      0       0      45        0.0%
BANK20             100      0       0      46        0.0%
BITBANK19          100      0       0      43        0.0%
BANK19             100      0       0      44        0.0%
BITBANK18          100      0       0      41        0.0%
BANK18             100      0       0      42        0.0%
BITBANK17          100      0       0      39        0.0%
BANK17             100      0       0      40        0.0%
BITBANK16          100      0       0      37        0.0%
BANK16             100      0       0      38        0.0%
BITBANK15          100      0       0      35        0.0%
BANK15             100      0       0      36        0.0%
BITBANK14          100      0       0      33        0.0%
BANK14             100      0       0      34        0.0%
BITBANK13          100      0       0      31        0.0%
BANK13             100      0       0      32        0.0%
BITBANK12          100      0       0      29        0.0%
BANK12             100      0       0      30        0.0%
BITBANK11          100      0       0      27        0.0%
BANK11             100      0       0      28        0.0%
BITBANK10          100      0       0      25        0.0%
BANK10             100      0       0      26        0.0%
BITBANK9           100      0       0      23        0.0%
BANK9              100      0       0      24        0.0%
BITBANK8           100      0       0      21        0.0%
BANK8              100      0       0      22        0.0%
BITBANK7           100      0       0      19        0.0%
BANK7              100      0       0      20        0.0%
BITBANK6           100      0       0      17        0.0%
BANK6              100      0       0      18        0.0%
BITBANK5           100      0       0      15        0.0%
BANK5              100      0       0      16        0.0%
BITBANK4           100      0       0      13        0.0%
BANK4              100      0       0      14        0.0%
BITBANK3           100      0       0      10        0.0%
BANK3              100      0       0      11        0.0%
BITBANK2           100      0       0       8        0.0%
BANK2              100      0     100       9      100.0%
BITBANK1           100      0       0       6        0.0%
BANK1              100      0     100       7      100.0%
BITBANK0            A0      0       0       4        0.0%
BANK0               A0     17      45       5       43.1%
BITBIGSFRlhhhhh     60      0       0      80        0.0%
BITCOMRAM           5F      0       0       0        0.0%
COMRAM              5F     20      47       1       74.7%
BITBIGSFRlhhhhh     38      0       0      89        0.0%
BITBIGSFRlhhhl      31      0       0      92        0.0%
BITBIGSFRh          2D      0       0      69        0.0%
BITBIGSFRlhhhhh     27      0       0      88        0.0%
BITBIGSFRllh         A      0       0      94        0.0%
BITBIGSFRlhhhhh      8      0       0      87        0.0%
BITBIGSFRlhhhhh      6      0       0      70        0.0%
BITBIGSFRlhhhhh      5      0       0      82        0.0%
BITBIGSFRlhhhhh      4      0       0      81        0.0%
BITBIGSFRlhhhhh      4      0       0      83        0.0%
BITBIGSFRlhhhhh      4      0       0      85        0.0%
BITBIGSFRlhhhhh      4      0       0      71        0.0%
BITBIGSFRlhhhhh      3      0       0      72        0.0%
BITBIGSFRlhl         3      0       0      93        0.0%
BITBIGSFRlhhhhh      2      0       0      84        0.0%
BITBIGSFRlhhhhh      2      0       0      86        0.0%
BITBIGSFRlhhhhh      1      0       0      74        0.0%
BITBIGSFRlhhhhh      1      0       0      75        0.0%
BITBIGSFRlhhhhh      1      0       0      76        0.0%
BITBIGSFRlhhhhh      1      0       0      77        0.0%
BITBIGSFRlhhhhh      1      0       0      78        0.0%
BITBIGSFRlhhhhh      1      0       0      90        0.0%
BITBIGSFRlhhhhl      1      0       0      91        0.0%
BIGSFR               0      0       0     200        0.0%
BITSFR_8             0      0       0     200        0.0%
SFR_8                0      0       0     200        0.0%
BITSFR_7             0      0       0     200        0.0%
SFR_7                0      0       0     200        0.0%
BITSFR_6             0      0       0     200        0.0%
SFR_6                0      0       0     200        0.0%
BITSFR_5             0      0       0     200        0.0%
SFR_5                0      0       0     200        0.0%
BITSFR_4             0      0       0     200        0.0%
SFR_4                0      0       0     200        0.0%
BITSFR_3             0      0       0     200        0.0%
SFR_3                0      0       0     200        0.0%
BITSFR_2             0      0       0     200        0.0%
SFR_2                0      0       0     200        0.0%
BITSFR_1             0      0       0     200        0.0%
SFR_1                0      0       0     200        0.0%
BITSFR               0      0       0     200        0.0%
SFR                  0      0       0     200        0.0%
STACK                0      0       0       2        0.0%
NULL                 0      0       0       0        0.0%
ABS                  0      0     28C      12        0.0%
DATA                 0      0     28C       3        0.0%
CODE                 0      0       0       0        0.0%


Microchip Technology PIC18 Macro Assembler V2.46 build 20240104201356 
Symbol Table                                                                                   Sat May 04 13:16:10 2024

                                               l43 2ABE                                                 l62 2D1A  
                                               l75 2D0C                                                 l88 2CFE  
                            __end_ofi2_UART2_Write 2A28                                                l106 2CF0  
                                              l119 2CB2                                                l232 2570  
                                              l422 2C46                                                l360 26EA  
                                              l533 28BC                                                l446 2982  
                                              l534 28BC                                                l480 2C04  
                                              l449 2984                                                l467 2C26  
                                              l484 2BE0                                                l492 2B98  
                                              l488 2BBC                         ??_INT0_SetInterruptHandler 008B  
       __end_of_UART2_FramingErrorCallbackRegister 2C06               ??_UART2_FramingErrorCallbackRegister 008B  
              ?_UART2_FramingErrorCallbackRegister 0088                 _UART2_FramingErrorCallbackRegister 2BE2  
                                              prod 3FF3                                                tosl 3FFD  
                                              wreg 3FE8                         UART2_ReceiveISR@tempRxHead 0041  
                              __end_ofi2_vfpfcnvrt 27E4                            i2UART2_Write@tempTxHead 0028  
                                   _UART2_IsTxDone 0000                                               l1235 2C80  
                                             l2300 231E                                               l2302 2328  
                                             l2320 2CF2                                               l2400 251A  
                                             l2240 2C32                                               l2304 2346  
                                             l1264 2A72                                               l2322 2BE2  
                                             l2330 2B9A                                               l2410 265C  
                                             l2402 2632                                               l2250 295E  
                                             l2306 237C                                               l1258 2768  
                                             l2316 2D0E                                               l2324 2BF8  
                                             l2332 2BB0                                               l2420 2670  
                                             l2412 2660                                               l2404 2636  
                                             l2252 2970                                               l2244 2934  
                                             l1276 23D0                                               l2318 2D00  
                                             l2326 2BBE                                               l2430 2684  
                                             l2422 2674                                               l2414 2664  
                                             l2406 2644                                               l2254 2978  
                                             l2246 2944                                               l2350 272A  
                                             l2328 2BD4                                               l2440 26B4  
                                             l2432 2688                                               l2424 2678  
                                             l2416 2668                                               l2408 2656  
                                             l2256 297C                                               l2248 294E  
                                             l2280 2C0A                                               l2352 272E  
                                             l2344 26EC                                               l2370 2AA6  
                                             l2362 2A74                                               l2450 26DA  
                                             l2442 26C6                                               l2434 268C  
                                             l2426 267C                                               l2418 266C  
                                             l2258 2980                                               l2282 2C1E  
                                             l2346 2716                                               l2372 2AAA  
                                             l2364 2A7C                                               l2380 24C4  
                                             l2452 26DE                                               l2444 26CE  
                                             l2436 2690                                               l2428 2680  
                                             l2348 271E                                               l2356 273C  
                                             l2540 2C6C                                               l2374 2C9C  
                                             l2366 2A8E                                               l2390 250C  
                                             l2382 24CE                                               l2454 26E2  
                                             l2446 26D2                                               l2438 26A2  
                                             l2534 2B76                                               l2278 2C0A  
                                             l2368 2A92                                               l2392 250E  
                                             l2384 24D6                                               l2376 24AA  
                                             l2456 26E6                                               l2448 26D6  
                                             l2536 2B8C                                               l2296 22F8  
                                             l2560 286A                                               l2394 2514  
                                             l2386 2508                                               l2378 24BE  
                                             l2298 230C                                               l2482 2A28  
                                             l2538 2C66                                               l2562 286E  
                                             l2554 2856                                               l2396 2516  
                                             l2388 250A                                               l2492 2CE0  
                                             l2484 2A30                                               l2564 28A8  
                                             l2556 2864                                               l2398 2518  
                                             l2494 2CE8                                               l2486 2A46  
                                             l2566 28B2                                               l2558 2868  
                                             l2496 2CEC                                               l2488 2A68  
                                             STR_1 2049                                               STR_2 2091  
                                             STR_3 20F4                                               STR_4 20E6  
                                             STR_5 20F6                                               STR_6 20D7  
                                             STR_7 20C2                                               u1320 2C44  
                                             u1400 231E                                               u1321 2C3E  
                                             u1401 231A                                               u1330 2C46  
                                             u1410 2346                                               u1411 2342  
                                             u1340 2944                                               u1420 237C  
                                             u1341 2940                                               u1421 2378  
                                             _LATA 3FBA                                               u1430 2BF8  
                                             u1350 295E                                               _LATB 3FBB  
                                             u1431 2BF4                                               u1351 295A  
                                             _LATC 3FBC                                               u1440 2BD4  
                                             _LATD 3FBD                                               u1441 2BD0  
                                             _LATE 3FBE                                               u1450 2BB0  
                                             u1370 2C1E                                               u1451 2BAC  
                                             u1371 2C1A                                               u1390 230C  
                                             u1391 2308                                               u1480 2716  
                                             u1560 2A68                                               u1481 2712  
                                             u1561 2A64                                               u1660 2B8C  
                                             u1661 2B88                                               u1738 288E  
                                             u1739 28A8                                               i2l52 260C  
                                             i2l48 25D4                                               _WPUA 3A41  
                                             _WPUB 3A51                                               _WPUC 3A61  
                                             _WPUD 3A71                                               _WPUE 3A81  
                                   _UART2_ErrorGet 0000                                               _dbuf 0060  
                                             _main 2856                                               _prec 001B  
                                             fsr1h 3FE2                                               fsr2h 3FDA  
                                             indf2 3FDF                                               fsr1l 3FE1  
                                             fsr2l 3FD9                          ?_INT2_SetInterruptHandler 0088  
                                             prodl 3FF3                                               start 001A  
                                  __end_ofi2_fputc 24AA                                    __end_ofi2_putch 2C66  
                                     ___param_bank 0000                                        ?_UART2_Read 0028  
                                       i2_vfprintf 2AC0                                    _UART2_IsRxReady 2CCA  
                                  _UART2_IsTxReady 2C28                                              ?_main 0028  
                                            _U2P1L 3DD4                                              _U2P2L 3DD6  
                                            _U2P3L 3DD8                                              _IOCAF 3A47  
                                            _IOCBF 3A57                                              _IOCCF 3A67  
                                            _IOCEF 3A87                                              _IOCAN 3A46  
                                            _IOCBN 3A56                                              _IOCAP 3A45  
                                            _IOCCN 3A66                                              _IOCBP 3A55  
                                            _IOCCP 3A65                                              _IOCEN 3A86  
                                            _IOCEP 3A85                                              _U2UIR 3DE0  
                                            _U2RXB 3DD0                                              _U2TXB 3DD2  
                                            i2l422 2CC8                                              i2l432 2B74  
                                            i2l442 221A                                              i2l419 2CDE  
                                            i2l540 28E2                                              i2l452 2B3A  
                                            i2l470 2D1E                                              i2l446 2A24  
                                            i2l455 2B3E                                              i2l544 290E  
                                            i2l473 2D1C                                              i2l449 2A26  
                                            i2l554 22F6                                              i2l467 2C64  
                                            i2l547 2924                                              _OSCEN 39DD  
                                            _UART2 2001                                       vfpfcnvrt@fmt 0096  
                                            _PORTB 3FCB                                              _TRISA 3FC2  
                                            _TRISB 3FC3                                              _TRISC 3FC4  
                                            _TRISD 3FC5                                              _TRISE 3FC6  
                            _UART2_Write$intlevel0 2930                                              _flags 001F  
                                            _index 0021                                              _fputc 22F8  
                                            _width 0019                                              _putch 2C06  
                         _INT1_SetInterruptHandler 2D00                                              pclath 3FFA  
                                            pclatu 3FFB                                              tablat 3FF5  
                                            status 3FD8                                   __end_ofi2_printf 2C9C  
                                  __initialization 2986                                       __end_of_main 28C4  
                                       i2printf@ap 003E                        ?_INTERRUPT_InterruptManager 0028  
                                      i2_vfpfcnvrt 276A                                      i2vfpfcnvrt@ap 0037  
                                    i2vfpfcnvrt@fp 0034                                       ?_UART2_Write 0028  
                                           ??_main 009F                                      __activetblptr 0003  
       __end_of_UART2_OverrunErrorCallbackRegister 2BE2               ??_UART2_OverrunErrorCallbackRegister 008B  
              ?_UART2_OverrunErrorCallbackRegister 0088                 _UART2_OverrunErrorCallbackRegister 2BBE  
  UART2_RxCompleteCallbackRegister@callbackHandler 0088   UART2_ParityErrorCallbackRegister@callbackHandler 0088  
UART2_OverrunErrorCallbackRegister@callbackHandler 0088  UART2_FramingErrorCallbackRegister@callbackHandler 0088  
                                           ?_fputc 008B                                             _ANSELA 3A40  
                                           ?_putch 0028                                             _ANSELB 3A50  
                                           _ANSELC 3A60                                             _ANSELD 3A70  
                                           _ANSELE 3A80                                             _RB1I2C 3A5A  
                                           _RB2I2C 3A5B                                             _RD0I2C 3A7A  
                                           _RD1I2C 3A7B                                             _RC3I2C 3A6A  
                                           _RC4I2C 3A6B                                             _U2CON0 3DDA  
                                           _U2CON1 3DDB                                             _U2CON2 3DDC  
                                           _U2BRGH 3DDE                                             _U2FIFO 3DDF  
                                           _U2BRGL 3DDD                                             _RD0PPS 3A18  
                                           _ODCONA 3A42                                             _ODCONB 3A52  
                                           _ODCONC 3A62                                             _ODCOND 3A72  
                                           _ODCONE 3A82                                             i2l2210 2A16  
                                           i2l2202 29DA                                             i2l1235 2C9A  
                                           i2l2212 2A1C                                             i2l2204 29EA  
                                           i2l2220 2C4A                                             i2l2140 2B08  
                                           i2l2214 2A20                                             i2l2206 29F4  
                                           i2l2222 2C5E                                             i2l2230 23F6  
                                           i2l2310 2C82                                             i2l2142 2B18  
                                           i2l2216 2A22                                             i2l2208 2A04  
                                           i2l2232 2400                                             i2l1264 2B06  
                                           i2l2312 2C86                                             i2l2144 2B2A  
                                           i2l2218 2C4A                                             i2l2234 241E  
                                           i2l2226 23D2                                             i2l1258 27E2  
                                           i2l2146 2B30                                             i2l1292 2854  
                                           i2l2236 2454                                             i2l1276 24A8  
                                           i2l2228 23E4                                             i2l2260 276A  
                                           i2l2340 2910                                             i2l2500 210E  
                                           i2l2148 2B34                                             i2l2262 2792  
                                           i2l2342 291C                                             i2l2334 28C4  
                                           i2l2510 2170                                             i2l2502 211E  
                                           i2l2264 279A                                             i2l2272 27B6  
                                           i2l2336 28E4                                             i2l2520 21BE  
                                           i2l2512 2184                                             i2l2504 2132  
                                           i2l2266 27A6                                             i2l2290 2ADC  
                                           i2l2338 28F0                                             i2l2530 21EC  
                                           i2l2514 2198                                             i2l2506 2146  
                                           i2l1900 2818                                             i2l2268 27AA  
                                           i2l2292 2AFE                                             i2l2460 2258  
                                           i2l2532 2200                                             i2l2524 21D4  
                                           i2l2516 21B2                                             i2l2508 2160  
                                           i2l1902 282E                                             i2l2198 2CB4  
                                           i2l2286 2AC0                                             i2l2470 22BA  
                                           i2l2462 2286                                             i2l2526 21E6  
                                           i2l2518 21B8                                             i2l2550 25E2  
                                           i2l2288 2AC8                                             i2l2480 22EE  
                                           i2l2472 22CA                                             i2l2464 2298  
                                           i2l2528 21EA                                             i2l2552 25F0  
                                           i2l2544 2596                                             i2l2466 22AA  
                                           i2l2474 22CE                                             i2l2458 221C  
                                           i2l2546 25A6                                             i2l2476 22E0  
                                           i2l2468 22B8                                             i2l2548 25B4  
                                           i2l1950 2B40                                             i2l2478 22EA  
                                           i2l1944 2CCA                                             i2l1960 2B6E  
                                           i2l1952 2B50                                             i2l1962 2B70  
                                           i2l1954 2B56                                             i2l2498 20FA  
                                           i2l1964 2B72                                             i2l1956 2B5A  
                                           i2l1948 2B40                                             i2l1958 2B5E  
                                           i2l1894 27E4                                             i2l1896 27E8  
                                           _INLVLA 3A44                                             i2l1898 27EC  
                                           _INLVLB 3A54                                             _INLVLC 3A64  
                                           _INLVLD 3A74                                             _INLVLE 3A84  
                                    i2putch@txData 002A                                          ??i2_fputc 002F  
                                           _OSCFRQ 39DF                                          ??i2_putch 002A  
                                      INTSTAT_ADDR 00D3                            __end_of_UART2_IsRxReady 2CE0  
                                 _UART2_Initialize 2632                            __end_of_UART2_IsTxReady 2C48  
                        _UART2_OverrunErrorHandler 000A                                       vfprintf@cfmt 009C  
                              _uart2RxStatusBuffer 0200                                      i2vfprintf@fmt 003A  
                                 _UART2_ReceiveISR 20FA                                        ?i2_vfprintf 0038  
                       UART_executeCommand@command 003F                                             clear_0 298E  
                                           clear_1 29A2                                             clear_2 29B4  
                                           clear_3 29C0                   _UART2_DefaultParityErrorCallback 0000  
                              UART2_Read@readValue 0029                                             isa$std 0001  
                                           _printf 2C66                                  ?_CLOCK_Initialize 0028  
                                           _strcmp 27E4                                             fputc@c 008B  
                     _INT2_DefaultInterruptHandler 0000                                 ??_CLOCK_Initialize 0088  
                                     __mediumconst 0000                                             tblptrh 3FF7  
                                           tblptrl 3FF6                                             tblptru 3FF8  
                                 __end_of_vfprintf 2A74           INT2_SetInterruptHandler@InterruptHandler 0088  
         INT1_SetInterruptHandler@InterruptHandler 0088           INT0_SetInterruptHandler@InterruptHandler 0088  
                 _UART2_TxCompleteInterruptHandler 0004                                  _SYSTEM_Initialize 2CE0  
                                       __accesstop 0060                            __end_of__initialization 29D2  
                               ?_SYSTEM_Initialize 0028                                      ___rparam_used 0001  
                              _UART2_AutoBaudQuery 0000                                      __end_of_UART2 2049  
                                   __pcstackCOMRAM 0028                                ??_SYSTEM_Initialize 008B  
                                    __end_of_fputc 23D2                                      __end_of_putch 2C28  
                                      i2printf@fmt 003D          __end_of_UART2_DefaultFramingErrorCallback 2D20  
              ??_UART2_DefaultFramingErrorCallback 0028                 ?_UART2_DefaultFramingErrorCallback 0028  
                _UART2_DefaultFramingErrorCallback 2D1E                   __end_of_INT2_SetInterruptHandler 2D00  
                                   i2vfpfcnvrt@fmt 0036                                          ?i2_printf 003D  
                         _UART2_RxInterruptHandler 009F                                            ??_fputc 008F  
                        __end_of_SYSTEM_Initialize 2CF2                                            ??_putch 008A  
                                       __pbssBANK0 0060                                         __pbssBANK1 0100  
                                       __pbssBANK2 0200                                i2UART2_Write@txData 0029  
                                _UART2_AutoBaudSet 0000                              _INT0_InterruptHandler 0016  
                                          IVTBASEH 3FD6                                            IVTBASEL 3FD5  
                                          IVTBASEU 3FD7                                   ?_UART2_IsRxReady 0028  
                                 ?_UART2_IsTxReady 0028                                       ??_UART2_Read 0028  
                        _UART2_IsTxReady$intlevel0 2C32                                            ?_printf 009D  
                                          ?_strcmp 0028                              _UART2_TransmitDisable 0000  
                                          _U2ERRIE 3DE2                                            _U2ERRIR 3DE1  
                       ??_INT1_SetInterruptHandler 008B                                            _U2RXPPS 3AE8  
                              _UART_ProcessCommand 221C                                            _OSCCON1 39D9  
                                          _OSCCON3 39DB                                         ??i2_printf 003E  
                                          _OSCTUNE 39DE                                            i2u81_40 2818  
                                          i2u81_41 2814                                            i2u90_40 2CDC  
                                          i2u82_40 282E                                            i2u90_41 2CD6  
                                          i2u82_41 282A                                            i2u91_40 2CDE  
                                          i2u92_40 2B6E                                            i2u92_41 2B6A  
                                          _SLRCONA 3A43                                            _SLRCONB 3A53  
                                          _SLRCONC 3A63                                            _SLRCOND 3A73  
                                          _SLRCONE 3A83                                 __end_of_UART2_Read 2B76  
                                          i2_fputc 23D2                                            i2_putch 2C48  
                              _UART_executeCommand 28C4                          ?_INT0_SetInterruptHandler 0088  
                             ?_UART_ProcessCommand 0028                                            __Hparam 0000  
                                          __Lparam 0000                                          ?_vfprintf 0098  
                                   i2vfprintf@cfmt 003C                                       __psmallconst 2000  
                                     ?i2_vfpfcnvrt 0034                                            __pcinit 2986  
                                          __ramtop 2000                               ?_UART_executeCommand 003F  
                                          __ptext0 2856                                            __ptext1 2C66  
                                          __ptext2 2A28                                            __ptext3 26EC  
                                          __ptext4 22F8                                            __ptext5 2C06  
                                          __ptext6 2926                                            __ptext7 2C28  
                                          __ptext8 2B76                                            __ptext9 2CE0  
                                          _command 0080          __end_of_UART2_DefaultOverrunErrorCallback 2D1E  
              ??_UART2_DefaultOverrunErrorCallback 0028                 ?_UART2_DefaultOverrunErrorCallback 0028  
                _UART2_DefaultOverrunErrorCallback 2D1C                           ??_PIN_MANAGER_Initialize 0088  
                         __end_of_UART2_Initialize 26EC                           __end_of_UART2_ReceiveISR 221C  
                             end_of_initialization 29D2                           _INT2_SetInterruptHandler 2CF2  
                                        _U2UIRbits 3DE0          __end_of_UART2_ParityErrorCallbackRegister 2BBE  
              ??_UART2_ParityErrorCallbackRegister 008B                 ?_UART2_ParityErrorCallbackRegister 0088  
                _UART2_ParityErrorCallbackRegister 2B9A                                            fputc@fp 008D  
         __end_of_UART2_RxCompleteCallbackRegister 2B9A                 ??_UART2_RxCompleteCallbackRegister 008B  
                ?_UART2_RxCompleteCallbackRegister 0088                   _UART2_RxCompleteCallbackRegister 2B76  
                            ??_UART_ProcessCommand 0040                                 _UART2_Deinitialize 0000  
                                __end_of_vfpfcnvrt 276A                                            postdec1 3FE5  
                                          postdec2 3FDD                                            postinc0 3FEE  
                                          postinc1 3FE6                                            postinc2 3FDE  
                                     ??i2_vfprintf 003C                                         ??_vfprintf 009C  
                                          strcmp@l 0028                                            strcmp@r 0029  
                            ??_UART_executeCommand 0040                               UART2_Read@tempRxTail 0028  
                            _INT1_InterruptHandler 0013                                      i2_UART2_Write 29D8  
                               __end_ofi2_vfprintf 2B08                       __end_of_INTERRUPT_Initialize 2AC0  
                     _INT0_DefaultInterruptHandler 0000                                        vfpfcnvrt@ap 0097  
                                      vfpfcnvrt@fp 0094                                          i2fputc@fp 002D  
                                   ?i2_UART2_Write 0028                                     __end_of_printf 2C82  
                                   __end_of_strcmp 2856                                start_initialization 2986  
                                      putch@txData 008A                                         ivt0x8_base 0008  
                                _UART2_TransmitISR 2B08                                      _uart2RxBuffer 0100  
                                    _uart2TxBuffer 0180                                 ?_UART2_TransmitISR 0028  
                                      vfprintf@fmt 009A                                       i2vfprintf@ap 003B  
                                     i2vfprintf@fp 0038                                ??_UART2_TransmitISR 0028  
                                UART2_Write@txData 0089                                           ??_printf 009E  
                                         ??_strcmp 002A                                        __pbssCOMRAM 0001  
                 __end_of_INT0_SetInterruptHandler 2D1C                          _UART2_FramingErrorHandler 000D  
                                    __pcstackBANK0 0088                           _UART2_TxInterruptHandler 00A2  
                        __end_of_UART2_TransmitISR 2B40                                           ?i2_fputc 002B  
                                         ?i2_putch 0028                              _INT2_InterruptHandler 0010  
                                        __pnvBANK0 009F                             _PIN_MANAGER_Initialize 24AA  
                             _UART2_TransmitEnable 0000                                    ??i2_UART2_Write 0028  
                                    ??_UART2_Write 0088                       ??_INTERRUPT_InterruptManager 0042  
                      UART2_TransmitISR@tempTxTail 0028                                        __smallconst 2000  
                       ??_INT2_SetInterruptHandler 008B                                  ?_UART2_Initialize 0028  
                         _UART2_ParityErrorHandler 0007                                 ??_UART2_Initialize 008B  
                             _INTERRUPT_Initialize 2A74                                  ?_UART2_ReceiveISR 0028  
                                 _uart2RxLastError 001D                                   _CLOCK_Initialize 2C9C  
                                      _U2ERRIRbits 3DE1                                           _LATBbits 3FBB  
                               ??_UART2_ReceiveISR 0040                          ?_INT1_SetInterruptHandler 0088  
                                         _PIE6bits 3996                                           i2u113_40 2B18  
                                         i2u113_41 2B14                                           i2u130_40 241E  
                                         i2u130_41 241A                                           i2u123_40 2CC6  
                                         i2u131_40 2454                                           i2u123_41 2CC0  
                                         i2u131_41 2450                                           i2u124_40 2CC8  
                                         i2u125_40 29EA                                           i2u125_41 29E6  
                                         i2u126_40 2A04                                           i2u150_40 2258  
                                         i2u126_41 2A00                                           i2u150_41 2254  
                                         i2u127_40 2C5E                                           i2u127_41 2C5A  
                                         i2u128_40 23E4                                           i2u136_40 2792  
                                         i2u152_40 2298                                           i2u151_48 226A  
                                         i2u160_40 2170                                           i2u128_41 23E0  
                                         i2u136_41 278E                                           i2u152_41 2294  
                                         i2u151_49 2284                                           i2u160_41 216C  
                                         i2u129_40 23F6                                           i2u153_40 22AA  
                                         i2u161_40 2198                                           i2u129_41 23F2  
                                         i2u153_41 22A6                                           i2u161_41 2194  
                                         i2u138_40 2AFE                                           i2u146_40 28E2  
                                         i2u154_40 22CA                                           i2u170_40 25E2  
                                         i2u138_41 2AFA                                           i2u146_41 28DE  
                                         i2u154_41 22C6                                           i2u170_41 25DE  
                                         i2u147_40 290E                                           i2u155_40 22E0  
                                         i2u163_40 21D0                                           i2u162_48 219E  
                                         i2u171_40 25F0                                           i2u147_41 290A  
                                         i2u155_41 22DC                                           i2u163_41 21CC  
                                         i2u162_49 21B2                                           i2u171_41 25EC  
                                         i2u164_40 2200                                           i2u164_41 21FC  
                                         i2u157_40 211E                                           i2u172_48 25F6  
                                         i2u157_41 211A                                           i2u172_49 260C  
                                         i2u149_48 222E                                           i2u165_48 2206  
                                         i2u158_40 2146                                           i2u149_49 2248  
                                         i2u165_49 221A                                           i2u158_41 2142  
                                         i2u167_40 25A6                                           i2u167_41 25A2  
                                         i2u159_48 214C                                           i2u168_40 25B4  
                                         i2u159_49 2160                                           i2u168_41 25B0  
                                         _PIR1bits 39A1                                           i2u169_48 25BA  
                                         i2u169_49 25D0                                           _PIR5bits 39A5  
                                         _PIR6bits 39A6                                           _PIR7bits 39A7  
                                        _vfpfcnvrt 26EC                                  i2_UART2_IsTxReady 2CB4  
                               ?i2_UART2_IsTxReady 0028                                __end_of_UART2_Write 2986  
                                         i2_printf 2C82                                        _INTCON0bits 3FD2  
                                         i2fputc@c 002B                              ?_INTERRUPT_Initialize 0028  
                         _INT0_SetInterruptHandler 2D0E                        __end_of_UART_ProcessCommand 22F8  
                              ??i2_UART2_IsTxReady 0028                                       _uart2RxCount 0022  
                                         __Hrparam 0000                        __end_of_UART_executeCommand 2926  
                                       vfprintf@ap 009B                                           __Lrparam 0000  
                                       vfprintf@fp 0098                                         ?_vfpfcnvrt 0094  
                        __end_ofi2_UART2_IsTxReady 2CCA                   _UART2_TxCompleteCallbackRegister 0000  
                                         __pivt0x8 0008                                  ??_UART2_IsRxReady 0028  
                                         __ptext10 2632                                           __ptext11 2B9A  
                                         __ptext20 2572                                           __ptext12 2BBE  
                                         __ptext21 2B08                                           __ptext13 2BE2  
                                         __ptext30 29D8                                           __ptext22 20FA  
                                         __ptext14 24AA                                           __ptext31 2CB4  
                                         __ptext23 221C                                           __ptext15 2A74  
                                         __ptext32 27E4                                           __ptext24 28C4  
                                         __ptext16 2CF2                                           __ptext33 2B40  
                                         __ptext25 2C82                                           __ptext17 2D00  
                                         __ptext34 2CCA                                           __ptext26 2AC0  
                                         __ptext18 2D0E                                           __ptext35 2D1C  
                                         __ptext27 276A                                           __ptext19 2C9C  
                                         __ptext36 2D1E                                           __ptext28 23D2  
                                         __ptext29 2C48                                  ??_UART2_IsTxReady 0088  
                            UART2_Write@tempTxHead 0088                                         _U2CON0bits 3DDA  
                                       _U2CON1bits 3DDB                                           _read_msg 0020  
                                         isa$xinst 0000                   _UART2_RxCompleteInterruptHandler 0001  
                                         _vfprintf 2A28                 __end_of_INTERRUPT_InterruptManager 2632  
                       _INTERRUPT_InterruptManager 2572                                          printf@fmt 009D  
                     _INT1_DefaultInterruptHandler 0000                                        _UART2_Write 2926  
                                      _uart2RxHead 0024                                        _uart2TxHead 0027  
                                      _uart2RxTail 0023                                        _uart2TxTail 0026  
                           ??_INTERRUPT_Initialize 008B                                           intlevel2 0000  
                          ?_PIN_MANAGER_Initialize 0028                                           printf@ap 009E  
                                       _UART2_Read 2B40                                      ??i2_vfpfcnvrt 0038  
                                      ??_vfpfcnvrt 0098                             _uart2TxBufferRemaining 0025  
                         __end_of_CLOCK_Initialize 2CB4                           UART2_ReceiveISR@regValue 0040  
                 __end_of_INT1_SetInterruptHandler 2D0E                     __end_of_PIN_MANAGER_Initialize 2572  
