

Microchip MPLAB XC8 Assembler V2.46 build 20240104201356 
                                                                                               Tue May 14 12:49:46 2024

Microchip MPLAB XC8 C Compiler v2.46 (Free license) build 20240104201356 Og1 
     1                           	processor	18F47K42
     2                           	fnconf	rparam,??,?,0
     3                           	pagewidth 120
     4                           	opt	flic
     5                           	psect	idataCOMRAM,global,class=CODE,delta=1,noexec
     6                           	psect	smallconst,global,reloc=2,class=SMALLCONST,delta=1,noexec
     7                           	psect	cinit,global,reloc=2,class=CODE,delta=1
     8                           	psect	bssCOMRAM,global,class=COMRAM,space=1,delta=1,lowdata,noexec
     9                           	psect	dataCOMRAM,global,class=COMRAM,space=1,delta=1,lowdata,noexec
    10                           	psect	bssBANK0,global,class=BANK0,space=1,delta=1,lowdata,noexec
    11                           	psect	cstackCOMRAM,global,class=COMRAM,space=1,delta=1,lowdata,noexec
    12                           	psect	text0,global,reloc=2,class=CODE,delta=1
    13                           	psect	text1,global,reloc=2,class=CODE,delta=1
    14                           	psect	text2,global,reloc=2,class=CODE,delta=1,group=3
    15                           	psect	text3,global,reloc=2,class=CODE,delta=1,group=3
    16                           	psect	text4,global,reloc=2,class=CODE,delta=1,group=1
    17                           	psect	text5,global,reloc=2,class=CODE,delta=1,group=1
    18                           	psect	text6,global,reloc=2,class=CODE,delta=1,group=3
    19                           	psect	text7,global,reloc=2,class=CODE,delta=1
    20                           	psect	text8,global,reloc=2,class=CODE,delta=1,group=2
    21                           	psect	text9,global,reloc=2,class=CODE,delta=1,group=2
    22                           	psect	text10,global,reloc=2,class=CODE,delta=1
    23                           	psect	text11,global,reloc=2,class=CODE,delta=1
    24                           	psect	text12,global,reloc=2,class=CODE,delta=1
    25                           	psect	text13,global,reloc=2,class=CODE,delta=1
    26                           	psect	text14,global,reloc=2,class=CODE,delta=1
    27                           	psect	text15,global,reloc=2,class=CODE,delta=1,inline
    28                           	psect	text16,global,reloc=2,class=CODE,delta=1
    29                           	psect	text17,global,reloc=2,class=CODE,delta=1
    30                           	psect	text18,global,reloc=2,class=CODE,delta=1
    31                           	psect	text19,global,reloc=2,class=CODE,delta=1
    32                           	psect	text20,global,reloc=2,class=CODE,delta=1
    33                           	psect	text21,global,reloc=2,class=CODE,delta=1
    34                           	psect	text22,global,reloc=2,class=CODE,delta=1
    35                           	psect	text23,global,reloc=2,class=CODE,delta=1
    36                           	psect	text24,global,reloc=2,class=CODE,delta=1
    37                           	psect	text25,global,reloc=2,class=CODE,delta=1
    38                           	psect	text26,global,reloc=2,class=CODE,delta=1
    39                           	psect	text27,global,reloc=2,class=CODE,delta=1
    40                           	psect	text28,global,reloc=2,class=CODE,delta=1
    41                           	psect	text29,global,reloc=2,class=CODE,delta=1
    42                           	psect	text30,global,reloc=2,class=CODE,delta=1
    43                           	psect	text31,global,reloc=2,class=CODE,delta=1
    44                           	psect	text32,global,reloc=2,class=CODE,delta=1
    45                           	psect	text33,global,reloc=2,class=CODE,delta=1
    46                           	psect	text34,global,reloc=2,class=CODE,delta=1
    47                           	psect	intsave_regs,global,class=BIGRAM,space=1,delta=1,noexec
    48                           	psect	rparam,global,class=COMRAM,space=1,delta=1,noexec
    49                           	psect	config,global,abs,ovrld,class=CONFIG,space=4,delta=1,noexec
    50   000000                     
    51                           ; Generated 12/10/2023 GMT
    52                           ; 
    53                           ; Copyright © 2023, Microchip Technology Inc. and its subsidiaries ("Microchip")
    54                           ; All rights reserved.
    55                           ; 
    56                           ; This software is developed by Microchip Technology Inc. and its subsidiaries ("Microch
      +                          ip").
    57                           ; 
    58                           ; Redistribution and use in source and binary forms, with or without modification, are
    59                           ; permitted provided that the following conditions are met:
    60                           ; 
    61                           ;     1. Redistributions of source code must retain the above copyright notice, this lis
      +                          t of
    62                           ;        conditions and the following disclaimer.
    63                           ; 
    64                           ;     2. Redistributions in binary form must reproduce the above copyright notice, this 
      +                          list
    65                           ;        of conditions and the following disclaimer in the documentation and/or other
    66                           ;        materials provided with the distribution. Publication is not required when
    67                           ;        this file is used in an embedded application.
    68                           ; 
    69                           ;     3. Microchip's name may not be used to endorse or promote products derived from th
      +                          is
    70                           ;        software without specific prior written permission.
    71                           ; 
    72                           ; THIS SOFTWARE IS PROVIDED BY MICROCHIP "AS IS" AND ANY EXPRESS OR IMPLIED WARRANTIES,
    73                           ; INCLUDING, BUT NOT LIMITED TO, THE IMPLIED WARRANTIES OF MERCHANTABILITY AND FITNESS F
      +                          OR
    74                           ; PURPOSE ARE DISCLAIMED.  IN NO EVENT SHALL MICROCHIP BE LIABLE FOR ANY DIRECT, INDIREC
      +                          T,
    75                           ; INCIDENTAL, SPECIAL, EXEMPLARY, OR CONSEQUENTIAL DAMAGES (INCLUDING BUT NOT LIMITED TO
    76                           ; PROCUREMENT OF SUBSTITUTE GOODS OR SERVICES; LOSS OF USE, DATA OR PROFITS; OR BUSINESS
    77                           ; INTERRUPTION) HOWSOEVER CAUSED AND ON ANY THEORY OF LIABILITY, WHETHER IN CONTRACT, ST
      +                          RICT
    78                           ; LIABILITY, OR TORT (INCLUDING NEGLIGENCE OR OTHERWISE) ARISING IN ANY WAY OUT OF THE U
      +                          SE OF
    79                           ; THIS SOFTWARE, EVEN IF ADVISED OF THE POSSIBILITY OF SUCH DAMAGE.
    80                           ; 
    81                           ; 
    82                           ; Code-generator required, PIC18F47K42 Definitions
    83                           ; 
    84                           ; SFR Addresses
    85   000000                     
    86 ;; Function _INT0_DefaultInterruptHandler is unused but had its address taken
    87   000000                     
    88 ;; Function _INT1_DefaultInterruptHandler is unused but had its address taken
    89   000000                     
    90 ;; Function _INT2_DefaultInterruptHandler is unused but had its address taken
    91   000000                     
    92 ;; Function _UART2_Deinitialize is unused but had its address taken
    93   000000                     
    94 ;; Function _UART2_TransmitEnable is unused but had its address taken
    95   000000                     
    96 ;; Function _UART2_TransmitDisable is unused but had its address taken
    97   000000                     
    98 ;; Function _UART2_AutoBaudSet is unused but had its address taken
    99   000000                     
   100 ;; Function _UART2_AutoBaudQuery is unused but had its address taken
   101   000000                     
   102 ;; Function _UART2_IsTxDone is unused but had its address taken
   103   000000                     
   104 ;; Function _UART2_ErrorGet is unused but had its address taken
   105   000000                     
   106 ;; Function _UART2_DefaultFramingErrorCallback is unused but had its address taken
   107   000000                     
   108 ;; Function _UART2_DefaultOverrunErrorCallback is unused but had its address taken
   109   000000                     
   110 ;; Function _UART2_DefaultParityErrorCallback is unused but had its address taken
   111   000000                     
   112                           	psect	idataCOMRAM
   113   002BFE                     __pidataCOMRAM:
   114                           	callstack 0
   115                           
   116                           ;initializer for _trigger
   117   002BFE  04                 	db	4
   118                           
   119                           ;initializer for _freq_ID
   120   002BFF  03                 	db	3
   121                           
   122                           ;initializer for _header
   123   002C00  5A                 	db	90
   124                           
   125                           	psect	smallconst
   126   002000                     __psmallconst:
   127                           	callstack 0
   128   002000  00                 	db	0
   129   002001                     _UART2:
   130                           	callstack 0
   131   002001  F4                 	db	low _UART2_Initialize
   132   002002  26                 	db	high _UART2_Initialize
   133   002003  00                 	db	low (_UART2_Initialize shr (0+16))
   134   002004  00                 	db	0
   135   002005  00                 	db	0
   136   002006  00                 	db	0
   137   002007  F2                 	db	low _UART2_Read
   138   002008  2B                 	db	high _UART2_Read
   139   002009  00                 	db	low (_UART2_Read shr (0+16))
   140   00200A  E0                 	db	low _UART2_Write
   141   00200B  2B                 	db	high _UART2_Write
   142   00200C  00                 	db	low (_UART2_Write shr (0+16))
   143   00200D  8E                 	db	low _UART2_IsRxReady
   144   00200E  2B                 	db	high _UART2_IsRxReady
   145   00200F  00                 	db	low (_UART2_IsRxReady shr (0+16))
   146   002010  72                 	db	low _UART2_IsTxReady
   147   002011  2A                 	db	high _UART2_IsTxReady
   148   002012  00                 	db	low (_UART2_IsTxReady shr (0+16))
   149   002013  00                 	db	0
   150   002014  00                 	db	0
   151   002015  00                 	db	0
   152   002016  00                 	db	0
   153   002017  00                 	db	0
   154   002018  00                 	db	0
   155   002019  00                 	db	0
   156   00201A  00                 	db	0
   157   00201B  00                 	db	0
   158   00201C  00                 	db	0
   159   00201D  00                 	db	0
   160   00201E  00                 	db	0
   161   00201F  00                 	db	0
   162   002020  00                 	db	0
   163   002021  00                 	db	0
   164   002022  00                 	db	0
   165   002023  00                 	db	0
   166   002024  00                 	db	0
   167   002025  00                 	db	0
   168   002026  00                 	db	0
   169   002027  00                 	db	0
   170   002028  00                 	db	0
   171   002029  00                 	db	0
   172   00202A  00                 	db	0
   173   00202B  00                 	db	0
   174   00202C  00                 	db	0
   175   00202D  00                 	db	0
   176   00202E  00                 	db	0
   177   00202F  00                 	db	0
   178   002030  00                 	db	0
   179   002031  00                 	db	0
   180   002032  00                 	db	0
   181   002033  00                 	db	0
   182   002034  00                 	db	0
   183   002035  00                 	db	0
   184   002036  00                 	db	0
   185   002037  00                 	db	0
   186   002038  00                 	db	0
   187   002039  00                 	db	0
   188   00203A  00                 	db	0
   189   00203B  00                 	db	0
   190   00203C  00                 	db	0
   191   00203D  E0                 	db	low _UART2_FramingErrorCallbackRegister
   192   00203E  2A                 	db	high _UART2_FramingErrorCallbackRegister
   193   00203F  00                 	db	low (_UART2_FramingErrorCallbackRegister shr (0+16))
   194   002040  BE                 	db	low _UART2_OverrunErrorCallbackRegister
   195   002041  2A                 	db	high _UART2_OverrunErrorCallbackRegister
   196   002042  00                 	db	low (_UART2_OverrunErrorCallbackRegister shr (0+16))
   197   002043  9C                 	db	low _UART2_ParityErrorCallbackRegister
   198   002044  2A                 	db	high _UART2_ParityErrorCallbackRegister
   199   002045  00                 	db	low (_UART2_ParityErrorCallbackRegister shr (0+16))
   200   002046  00                 	db	0
   201   002047  00                 	db	0
   202   002048  00                 	db	0
   203   002049                     __end_of_UART2:
   204                           	callstack 0
   205   000000                     _OSCTUNE	set	14814
   206   000000                     _OSCFRQ	set	14815
   207   000000                     _U2FIFObits	set	15839
   208   000000                     _U2ERRIRbits	set	15841
   209   000000                     _U2UIRbits	set	15840
   210   000000                     _U2CON0bits	set	15834
   211   000000                     _U2CON1bits	set	15835
   212   000000                     _LATA1	set	130513
   213   000000                     _LATA0	set	130512
   214   000000                     _PIR1bits	set	14753
   215   000000                     _RD0PPS	set	14872
   216   000000                     _ANSELA	set	14912
   217   000000                     _LATA	set	16314
   218   000000                     _TRISA	set	16322
   219   000000                     _LATE	set	16318
   220   000000                     _LATD	set	16317
   221   000000                     _LATC	set	16316
   222   000000                     _LATB	set	16315
   223   000000                     _PORTAbits	set	16330
   224   000000                     _INTCON0bits	set	16338
   225   000000                     _TRISE	set	16326
   226   000000                     _TRISD	set	16325
   227   000000                     _TRISC	set	16324
   228   000000                     _TRISB	set	16323
   229   000000                     _IOCAF	set	14919
   230   000000                     _IOCAN	set	14918
   231   000000                     _IOCAP	set	14917
   232   000000                     _INLVLA	set	14916
   233   000000                     _SLRCONA	set	14915
   234   000000                     _ODCONA	set	14914
   235   000000                     _WPUA	set	14913
   236   000000                     _ANSELB	set	14928
   237   000000                     _IOCBF	set	14935
   238   000000                     _IOCBN	set	14934
   239   000000                     _IOCBP	set	14933
   240   000000                     _RB1I2C	set	14938
   241   000000                     _INLVLB	set	14932
   242   000000                     _SLRCONB	set	14931
   243   000000                     _ODCONB	set	14930
   244   000000                     _WPUB	set	14929
   245   000000                     _ANSELC	set	14944
   246   000000                     _IOCCF	set	14951
   247   000000                     _IOCCN	set	14950
   248   000000                     _IOCCP	set	14949
   249   000000                     _RC3I2C	set	14954
   250   000000                     _INLVLC	set	14948
   251   000000                     _SLRCONC	set	14947
   252   000000                     _ODCONC	set	14946
   253   000000                     _WPUC	set	14945
   254   000000                     _ANSELD	set	14960
   255   000000                     _RD0I2C	set	14970
   256   000000                     _INLVLD	set	14964
   257   000000                     _SLRCOND	set	14963
   258   000000                     _ODCOND	set	14962
   259   000000                     _WPUD	set	14961
   260   000000                     _ANSELE	set	14976
   261   000000                     _IOCEF	set	14983
   262   000000                     _IOCEN	set	14982
   263   000000                     _IOCEP	set	14981
   264   000000                     _U2RXPPS	set	15080
   265   000000                     _INLVLE	set	14980
   266   000000                     _SLRCONE	set	14979
   267   000000                     _ODCONE	set	14978
   268   000000                     _WPUE	set	14977
   269   000000                     _RB2I2C	set	14939
   270   000000                     _RC4I2C	set	14955
   271   000000                     _RD1I2C	set	14971
   272   000000                     _U2RXB	set	15824
   273   000000                     _PIR5bits	set	14757
   274   000000                     _PIR7bits	set	14759
   275   000000                     _OSCCON1	set	14809
   276   000000                     _OSCCON3	set	14811
   277   000000                     _OSCEN	set	14813
   278   000000                     _U2TXB	set	15826
   279   000000                     _U2P1L	set	15828
   280   000000                     _U2P2L	set	15830
   281   000000                     _U2P3L	set	15832
   282   000000                     _U2CON0	set	15834
   283   000000                     _U2ERRIE	set	15842
   284   000000                     _U2ERRIR	set	15841
   285   000000                     _U2UIR	set	15840
   286   000000                     _U2FIFO	set	15839
   287   000000                     _U2BRGH	set	15838
   288   000000                     _U2BRGL	set	15837
   289   000000                     _U2CON2	set	15836
   290   000000                     _U2CON1	set	15835
   291   000000                     _PORTCbits	set	16332
   292   002049                     STR_7:
   293   002049  44                 	db	68	;'D'
   294   00204A  69                 	db	105	;'i'
   295   00204B  73                 	db	115	;'s'
   296   00204C  74                 	db	116	;'t'
   297   00204D  61                 	db	97	;'a'
   298   00204E  6E                 	db	110	;'n'
   299   00204F  63                 	db	99	;'c'
   300   002050  65                 	db	101	;'e'
   301   002051  3A                 	db	58	;':'
   302   002052  20                 	db	32
   303   002053  25                 	db	37
   304   002054  75                 	db	117	;'u'
   305   002055  20                 	db	32
   306   002056  43                 	db	67	;'C'
   307   002057  4D                 	db	77	;'M'
   308   002058  0D                 	db	13
   309   002059  0A                 	db	10
   310   00205A  00                 	db	0
   311   00205B                     STR_3:
   312   00205B  70                 	db	112	;'p'
   313   00205C  72                 	db	114	;'r'
   314   00205D  6F                 	db	111	;'o'
   315   00205E  67                 	db	103	;'g'
   316   00205F  72                 	db	114	;'r'
   317   002060  61                 	db	97	;'a'
   318   002061  6D                 	db	109	;'m'
   319   002062  6D                 	db	109	;'m'
   320   002063  65                 	db	101	;'e'
   321   002064  64                 	db	100	;'d'
   322   002065  32                 	db	50	;'2'
   323   002066  00                 	db	0
   324   002067                     STR_4:
   325   002067  68                 	db	104	;'h'
   326   002068  65                 	db	101	;'e'
   327   002069  6C                 	db	108	;'l'
   328   00206A  6C                 	db	108	;'l'
   329   00206B  6F                 	db	111	;'o'
   330   00206C  2E                 	db	46
   331   00206D  2E                 	db	46
   332   00206E  0D                 	db	13
   333   00206F  0A                 	db	10
   334   002070  00                 	db	0
   335   002071  43                 	db	67	;'C'
   336   002072  6F                 	db	111	;'o'
   337   002073  72                 	db	114	;'r'
   338   002074  72                 	db	114	;'r'
   339   002075  65                 	db	101	;'e'
   340   002076  63                 	db	99	;'c'
   341   002077  74                 	db	116	;'t'
   342   002078  21                 	db	33
   343   002079  00                 	db	0
   344   00207A  57                 	db	87	;'W'
   345   00207B  72                 	db	114	;'r'
   346   00207C  6F                 	db	111	;'o'
   347   00207D  6E                 	db	110	;'n'
   348   00207E  67                 	db	103	;'g'
   349   00207F  21                 	db	33
   350   002080  00                 	db	0
   351   002081                     STR_5:
   352   002081  25                 	db	37
   353   002082  75                 	db	117	;'u'
   354   002083  20                 	db	32
   355   002084  20                 	db	32
   356   002085  20                 	db	32
   357   002086  00                 	db	0
   358   002087                     STR_6:
   359   002087  43                 	db	67	;'C'
   360   002088  4D                 	db	77	;'M'
   361   002089  00                 	db	0
   362   00208A  00                 	db	0	; dummy byte at the end
   363   000000                     
   364                           ; #config settings
   365                           
   366                           	psect	cinit
   367   00298C                     __pcinit:
   368                           	callstack 0
   369   00298C                     start_initialization:
   370                           	callstack 0
   371   00298C                     __initialization:
   372                           	callstack 0
   373                           
   374                           ; Initialize objects allocated to COMRAM (3 bytes)
   375                           ; load TBLPTR registers with __pidataCOMRAM
   376   00298C  0EFE               	movlw	low __pidataCOMRAM
   377   00298E  6EF6               	movwf	tblptrl,c
   378   002990  0E2B               	movlw	high __pidataCOMRAM
   379   002992  6EF7               	movwf	tblptrh,c
   380   002994  0E00               	movlw	low (__pidataCOMRAM shr (0+16))
   381   002996  6EF8               	movwf	tblptru,c
   382   002998  0009               	tblrd		*+	;fetch initializer
   383   00299A  006F FFD4  F05C    	movff	tablat,__pdataCOMRAM
   384   0029A0  0009               	tblrd		*+	;fetch initializer
   385   0029A2  006F FFD4  F05D    	movff	tablat,__pdataCOMRAM+1
   386   0029A8  0009               	tblrd		*+	;fetch initializer
   387   0029AA  006F FFD4  F05E    	movff	tablat,__pdataCOMRAM+2
   388                           
   389                           ; Clear objects allocated to BANK0 (53 bytes)
   390   0029B0  EE00  F060         	lfsr	0,__pbssBANK0
   391   0029B4  0E35               	movlw	53
   392   0029B6                     clear_0:
   393   0029B6  6AEE               	clrf	postinc0,c
   394   0029B8  06E8               	decf	wreg,f,c
   395   0029BA  E1FD               	bnz	clear_0
   396                           
   397                           ; Clear objects allocated to COMRAM (8 bytes)
   398   0029BC  EE00  F054         	lfsr	0,__pbssCOMRAM
   399   0029C0  0E08               	movlw	8
   400   0029C2                     clear_1:
   401   0029C2  6AEE               	clrf	postinc0,c
   402   0029C4  06E8               	decf	wreg,f,c
   403   0029C6  E1FD               	bnz	clear_1
   404   0029C8                     end_of_initialization:
   405                           	callstack 0
   406   0029C8                     __end_of__initialization:
   407                           	callstack 0
   408   0029C8  0100               	movlb	0
   409   0029CA  EF2F  F013         	goto	_main	;jump to C main() function
   410                           
   411                           	psect	bssCOMRAM
   412   000054                     __pbssCOMRAM:
   413                           	callstack 0
   414   000054                     _INT0_InterruptHandler:
   415                           	callstack 0
   416   000054                     	ds	3
   417   000057                     _flags:
   418                           	callstack 0
   419   000057                     	ds	1
   420   000058                     _checksum:
   421                           	callstack 0
   422   000058                     	ds	1
   423   000059                     _freq_dec:
   424                           	callstack 0
   425   000059                     	ds	1
   426   00005A                     _freq:
   427                           	callstack 0
   428   00005A                     	ds	1
   429   00005B                     _received_data:
   430                           	callstack 0
   431   00005B                     	ds	1
   432                           
   433                           	psect	dataCOMRAM
   434   00005C                     __pdataCOMRAM:
   435                           	callstack 0
   436   00005C                     _trigger:
   437                           	callstack 0
   438   00005C                     	ds	1
   439   00005D                     _freq_ID:
   440                           	callstack 0
   441   00005D                     	ds	1
   442   00005E                     _header:
   443                           	callstack 0
   444   00005E                     	ds	1
   445                           
   446                           	psect	bssBANK0
   447   000060                     __pbssBANK0:
   448                           	callstack 0
   449   000060                     _dbuf:
   450                           	callstack 0
   451   000060                     	ds	32
   452   000080                     _UART2_ParityErrorHandler:
   453                           	callstack 0
   454   000080                     	ds	3
   455   000083                     _UART2_OverrunErrorHandler:
   456                           	callstack 0
   457   000083                     	ds	3
   458   000086                     _UART2_FramingErrorHandler:
   459                           	callstack 0
   460   000086                     	ds	3
   461   000089                     _INT2_InterruptHandler:
   462                           	callstack 0
   463   000089                     	ds	3
   464   00008C                     _INT1_InterruptHandler:
   465                           	callstack 0
   466   00008C                     	ds	3
   467   00008F                     _width:
   468                           	callstack 0
   469   00008F                     	ds	2
   470   000091                     _prec:
   471                           	callstack 0
   472   000091                     	ds	2
   473   000093                     _uart2RxLastError:
   474                           	callstack 0
   475   000093                     	ds	2
   476                           
   477                           	psect	cstackCOMRAM
   478   000001                     __pcstackCOMRAM:
   479                           	callstack 0
   480   000001                     ?___lwdiv:
   481                           	callstack 0
   482   000001                     ?___lwmod:
   483                           	callstack 0
   484   000001                     _UART2_IsTxReady$832:
   485                           	callstack 0
   486   000001                     UART2_Write@txData:
   487                           	callstack 0
   488   000001                     MSdelay@val:
   489                           	callstack 0
   490   000001                     ___lwdiv@dividend:
   491                           	callstack 0
   492   000001                     ___lwmod@dividend:
   493                           	callstack 0
   494   000001                     INT0_SetInterruptHandler@InterruptHandler:
   495                           	callstack 0
   496   000001                     INT1_SetInterruptHandler@InterruptHandler:
   497                           	callstack 0
   498   000001                     INT2_SetInterruptHandler@InterruptHandler:
   499                           	callstack 0
   500   000001                     UART2_FramingErrorCallbackRegister@callbackHandler:
   501                           	callstack 0
   502   000001                     UART2_OverrunErrorCallbackRegister@callbackHandler:
   503                           	callstack 0
   504   000001                     UART2_ParityErrorCallbackRegister@callbackHandler:
   505                           	callstack 0
   506                           
   507                           ; 3 bytes @ 0x0
   508   000001                     	ds	1
   509   000002                     putch@txData:
   510                           	callstack 0
   511   000002                     TF_Luna_Send_Freq@length:
   512                           	callstack 0
   513   000002                     TF_Luna_Trigger@length:
   514                           	callstack 0
   515                           
   516                           ; 1 bytes @ 0x1
   517   000002                     	ds	1
   518   000003                     TF_Luna_Send_Freq@id:
   519                           	callstack 0
   520   000003                     TF_Luna_Trigger@id:
   521                           	callstack 0
   522   000003                     MSdelay@i:
   523                           	callstack 0
   524   000003                     ___lwdiv@divisor:
   525                           	callstack 0
   526   000003                     ___lwmod@divisor:
   527                           	callstack 0
   528   000003                     fputc@c:
   529                           	callstack 0
   530                           
   531                           ; 2 bytes @ 0x2
   532   000003                     	ds	1
   533   000004                     TF_Luna_Send_Freq@freq:
   534                           	callstack 0
   535   000004                     TF_Luna_Trigger@payload:
   536                           	callstack 0
   537                           
   538                           ; 1 bytes @ 0x3
   539   000004                     	ds	1
   540   000005                     TF_Luna_Send_Freq@freq_dec:
   541                           	callstack 0
   542   000005                     ___lwmod@counter:
   543                           	callstack 0
   544   000005                     MSdelay@j:
   545                           	callstack 0
   546   000005                     ___lwdiv@quotient:
   547                           	callstack 0
   548   000005                     fputc@fp:
   549                           	callstack 0
   550   000005                     TF_Luna_Trigger@bytes:
   551                           	callstack 0
   552                           
   553                           ; 6 bytes @ 0x4
   554   000005                     	ds	1
   555   000006                     TF_Luna_Send_Freq@checksum:
   556                           	callstack 0
   557                           
   558                           ; 1 bytes @ 0x5
   559   000006                     	ds	1
   560   000007                     ??_fputc:
   561   000007                     LCD_Command@cmd:
   562                           	callstack 0
   563   000007                     LCD_Char@dat:
   564                           	callstack 0
   565   000007                     ___lwdiv@counter:
   566                           	callstack 0
   567   000007                     TF_Luna_Send_Freq@bytes:
   568                           	callstack 0
   569                           
   570                           ; 6 bytes @ 0x6
   571   000007                     	ds	1
   572   000008                     LCD_String@msg:
   573                           	callstack 0
   574                           
   575                           ; 2 bytes @ 0x7
   576   000008                     	ds	2
   577   00000A                     LCD_String_xy@pos:
   578                           	callstack 0
   579                           
   580                           ; 1 bytes @ 0x9
   581   00000A                     	ds	1
   582   00000B                     TF_Luna_Trigger@header:
   583                           	callstack 0
   584   00000B                     LCD_String_xy@msg:
   585                           	callstack 0
   586                           
   587                           ; 2 bytes @ 0xA
   588   00000B                     	ds	1
   589   00000C                     TF_Luna_Trigger@bytes_sent:
   590                           	callstack 0
   591   00000C                     vfpfcnvrt@fp:
   592                           	callstack 0
   593                           
   594                           ; 2 bytes @ 0xB
   595   00000C                     	ds	1
   596   00000D                     LCD_String_xy@row:
   597                           	callstack 0
   598   00000D                     TF_Luna_Send_Freq@header:
   599                           	callstack 0
   600                           
   601                           ; 1 bytes @ 0xC
   602   00000D                     	ds	1
   603   00000E                     LCD_String_xy@location:
   604                           	callstack 0
   605   00000E                     TF_Luna_Send_Freq@bytes_sent:
   606                           	callstack 0
   607   00000E                     vfpfcnvrt@fmt:
   608                           	callstack 0
   609                           
   610                           ; 1 bytes @ 0xD
   611   00000E                     	ds	1
   612   00000F                     vfpfcnvrt@ap:
   613                           	callstack 0
   614                           
   615                           ; 1 bytes @ 0xE
   616   00000F                     	ds	1
   617   000010                     ??_vfpfcnvrt:
   618                           
   619                           ; 1 bytes @ 0xF
   620   000010                     	ds	1
   621   000011                     vfpfcnvrt@convarg:
   622                           	callstack 0
   623                           
   624                           ; 4 bytes @ 0x10
   625   000011                     	ds	4
   626   000015                     vfpfcnvrt@cp:
   627                           	callstack 0
   628                           
   629                           ; 1 bytes @ 0x14
   630   000015                     	ds	1
   631   000016                     vfpfcnvrt@c:
   632                           	callstack 0
   633                           
   634                           ; 1 bytes @ 0x15
   635   000016                     	ds	1
   636   000017                     ?_vfprintf:
   637                           	callstack 0
   638   000017                     vfprintf@fp:
   639                           	callstack 0
   640                           
   641                           ; 2 bytes @ 0x16
   642   000017                     	ds	2
   643   000019                     vfprintf@fmt:
   644                           	callstack 0
   645                           
   646                           ; 1 bytes @ 0x18
   647   000019                     	ds	1
   648   00001A                     vfprintf@ap:
   649                           	callstack 0
   650                           
   651                           ; 1 bytes @ 0x19
   652   00001A                     	ds	1
   653   00001B                     vfprintf@cfmt:
   654                           	callstack 0
   655                           
   656                           ; 1 bytes @ 0x1A
   657   00001B                     	ds	1
   658   00001C                     ?_printf:
   659                           	callstack 0
   660   00001C                     ?_sprintf:
   661                           	callstack 0
   662   00001C                     sprintf@s:
   663                           	callstack 0
   664   00001C                     printf@fmt:
   665                           	callstack 0
   666                           
   667                           ; 1 bytes @ 0x1B
   668   00001C                     	ds	1
   669   00001D                     sprintf@fmt:
   670                           	callstack 0
   671                           
   672                           ; 1 bytes @ 0x1C
   673   00001D                     	ds	2
   674   00001F                     printf@ap:
   675                           	callstack 0
   676                           
   677                           ; 1 bytes @ 0x1E
   678   00001F                     	ds	1
   679   000020                     sprintf@ap:
   680                           	callstack 0
   681                           
   682                           ; 1 bytes @ 0x1F
   683   000020                     	ds	1
   684   000021                     sprintf@f:
   685                           	callstack 0
   686                           
   687                           ; 12 bytes @ 0x20
   688   000021                     	ds	12
   689   00002D                     ??_read:
   690                           
   691                           ; 1 bytes @ 0x2C
   692   00002D                     	ds	2
   693   00002F                     read@data:
   694                           	callstack 0
   695                           
   696                           ; 20 bytes @ 0x2E
   697   00002F                     	ds	20
   698   000043                     read@received_bytes:
   699                           	callstack 0
   700                           
   701                           ; 9 bytes @ 0x42
   702   000043                     	ds	9
   703   00004C                     read@count:
   704                           	callstack 0
   705                           
   706                           ; 1 bytes @ 0x4B
   707   00004C                     	ds	1
   708   00004D                     read@distance_L:
   709                           	callstack 0
   710                           
   711                           ; 1 bytes @ 0x4C
   712   00004D                     	ds	1
   713   00004E                     read@distance_H:
   714                           	callstack 0
   715                           
   716                           ; 1 bytes @ 0x4D
   717   00004E                     	ds	1
   718   00004F                     read@distance:
   719                           	callstack 0
   720                           
   721                           ; 2 bytes @ 0x4E
   722   00004F                     	ds	2
   723   000051                     read@Read_header:
   724                           	callstack 0
   725                           
   726                           ; 1 bytes @ 0x50
   727   000051                     	ds	1
   728   000052                     read@byte_count:
   729                           	callstack 0
   730                           
   731                           ; 1 bytes @ 0x51
   732   000052                     	ds	1
   733   000053                     read@i:
   734                           	callstack 0
   735                           
   736                           ; 1 bytes @ 0x52
   737   000053                     	ds	1
   738   000054                     
   739                           ; 1 bytes @ 0x53
   740 ;;
   741 ;;Main: autosize = 0, tempsize = 0, incstack = 0, save=0
   742 ;;
   743 ;; *************** function _main *****************
   744 ;; Defined at:
   745 ;;		line 62 in file "main.c"
   746 ;; Parameters:    Size  Location     Type
   747 ;;		None
   748 ;; Auto vars:     Size  Location     Type
   749 ;;		None
   750 ;; Return value:  Size  Location     Type
   751 ;;                  2  526[None  ] int 
   752 ;; Registers used:
   753 ;;		wreg, fsr0l, fsr0h, fsr1l, fsr1h, fsr2l, fsr2h, status,2, status,0, pcl, pclath, pclatu, tosl, tblptrl, tblptrh, tbl
      +ptru, cstack
   754 ;; Tracked objects:
   755 ;;		On entry : 0/0
   756 ;;		On exit  : 0/0
   757 ;;		Unchanged: 0/0
   758 ;; Data sizes:     COMRAM   BANK0   BANK1   BANK2   BANK3   BANK4   BANK5   BANK6   BANK7   BANK8   BANK9  BANK10  BANK1
      +1  BANK12  BANK13  BANK14  BANK15  BANK16  BANK17  BANK18  BANK19  BANK20  BANK21  BANK22  BANK23  BANK24  BANK25  BANK2
      +6  BANK27  BANK28  BANK29  BANK30  BANK31
   759 ;;      Params:         0       0       0       0       0       0       0       0       0       0       0       0       
      +0       0       0       0       0       0       0       0       0       0       0       0       0       0       0       
      +0       0       0       0       0       0
   760 ;;      Locals:         0       0       0       0       0       0       0       0       0       0       0       0       
      +0       0       0       0       0       0       0       0       0       0       0       0       0       0       0       
      +0       0       0       0       0       0
   761 ;;      Temps:          0       0       0       0       0       0       0       0       0       0       0       0       
      +0       0       0       0       0       0       0       0       0       0       0       0       0       0       0       
      +0       0       0       0       0       0
   762 ;;      Totals:         0       0       0       0       0       0       0       0       0       0       0       0       
      +0       0       0       0       0       0       0       0       0       0       0       0       0       0       0       
      +0       0       0       0       0       0
   763 ;;Total ram usage:        0 bytes
   764 ;; Hardware stack levels required when called: 7
   765 ;; This function calls:
   766 ;;		_LCD_Clear
   767 ;;		_LCD_Init
   768 ;;		_LCD_String_xy
   769 ;;		_MSdelay
   770 ;;		_SYSTEM_Initialize
   771 ;;		_TF_Luna_Send_Freq
   772 ;;		_TF_Luna_Trigger
   773 ;;		_UART2_Initialize
   774 ;;		_UART2_ReceiveEnable
   775 ;;		_printf
   776 ;;		_read
   777 ;; This function is called by:
   778 ;;		Startup code after reset
   779 ;; This function uses a non-reentrant model
   780 ;;
   781                           
   782                           	psect	text0
   783   00265E                     __ptext0:
   784                           	callstack 0
   785   00265E                     _main:
   786                           	callstack 24
   787   00265E                     
   788                           ;main.c: 65:     SYSTEM_Initialize();
   789   00265E  ECD2  F015         	call	_SYSTEM_Initialize	;wreg free
   790                           
   791                           ;main.c: 66:     UART2_Initialize();
   792   002662  EC7A  F013         	call	_UART2_Initialize	;wreg free
   793   002666                     
   794                           ;main.c: 67:     U2CON1bits.ON = 1;
   795   002666  013D               	movlb	61	; () banked
   796   002668  8FDB               	bsf	219,7,b	;volatile
   797   00266A                     
   798                           ; BSR set to: 61
   799                           ;main.c: 68:     U2CON0bits.RXEN = 1;
   800   00266A  89DA               	bsf	218,4,b	;volatile
   801   00266C                     
   802                           ; BSR set to: 61
   803                           ;main.c: 69:     U2CON0bits.TXEN = 1;
   804   00266C  8BDA               	bsf	218,5,b	;volatile
   805   00266E                     
   806                           ; BSR set to: 61
   807                           ;main.c: 70:     UART2_ReceiveEnable();
   808   00266E  ECFC  F015         	call	_UART2_ReceiveEnable	;wreg free
   809   002672                     
   810                           ;main.c: 71:     LCD_Init();
   811   002672  EC22  F015         	call	_LCD_Init	;wreg free
   812   002676                     
   813                           ;main.c: 72:     LCD_String_xy(1,0,"programmed2");
   814   002676  0E00               	movlw	0
   815   002678  6E0A               	movwf	LCD_String_xy@pos^0,c
   816   00267A  0E5B               	movlw	low STR_3
   817   00267C  6E0B               	movwf	LCD_String_xy@msg^0,c
   818   00267E  500B               	movf	LCD_String_xy@msg^0,w,c
   819   002680  A4D8               	btfss	status,2,c
   820   002682  0E20               	movlw	high __smallconst
   821   002684  6E0C               	movwf	(LCD_String_xy@msg+1)^0,c
   822   002686  0E01               	movlw	1
   823   002688  ECE7  F014         	call	_LCD_String_xy
   824   00268C                     
   825                           ;main.c: 73:     MSdelay(1000);
   826   00268C  0E03               	movlw	3
   827   00268E  6E02               	movwf	(MSdelay@val+1)^0,c
   828   002690  0EE8               	movlw	232
   829   002692  6E01               	movwf	MSdelay@val^0,c
   830   002694  EC5A  F014         	call	_MSdelay	;wreg free
   831   002698                     
   832                           ;main.c: 75:    TF_Luna_Send_Freq(header, 0x6, freq_ID, freq, freq_dec, checksum);
   833   002698  0E06               	movlw	6
   834   00269A  6E02               	movwf	TF_Luna_Send_Freq@length^0,c
   835   00269C  0E03               	movlw	3
   836   00269E  6E03               	movwf	TF_Luna_Send_Freq@id^0,c
   837   0026A0  0E00               	movlw	0
   838   0026A2  6E04               	movwf	TF_Luna_Send_Freq@freq^0,c
   839   0026A4  0E00               	movlw	0
   840   0026A6  6E05               	movwf	TF_Luna_Send_Freq@freq_dec^0,c
   841   0026A8  0E00               	movlw	0
   842   0026AA  6E06               	movwf	TF_Luna_Send_Freq@checksum^0,c
   843   0026AC  0E5A               	movlw	90
   844   0026AE  EC8B  F012         	call	_TF_Luna_Send_Freq
   845   0026B2                     l2336:
   846                           
   847                           ;main.c: 78:    LCD_Clear();
   848   0026B2  ECF5  F015         	call	_LCD_Clear	;wreg free
   849   0026B6                     
   850                           ;main.c: 79:    MSdelay(200);
   851   0026B6  0E00               	movlw	0
   852   0026B8  6E02               	movwf	(MSdelay@val+1)^0,c
   853   0026BA  0EC8               	movlw	200
   854   0026BC  6E01               	movwf	MSdelay@val^0,c
   855   0026BE  EC5A  F014         	call	_MSdelay	;wreg free
   856   0026C2                     
   857                           ;main.c: 80:    TF_Luna_Trigger(header, 0x4, trigger, 0x00);
   858   0026C2  0E04               	movlw	4
   859   0026C4  6E02               	movwf	TF_Luna_Trigger@length^0,c
   860   0026C6  0E04               	movlw	4
   861   0026C8  6E03               	movwf	TF_Luna_Trigger@id^0,c
   862   0026CA  0E00               	movlw	0
   863   0026CC  6E04               	movwf	TF_Luna_Trigger@payload^0,c
   864   0026CE  0E5A               	movlw	90
   865   0026D0  ECDF  F012         	call	_TF_Luna_Trigger
   866   0026D4                     
   867                           ;main.c: 81:    printf("hello..\r\n");
   868   0026D4  0E67               	movlw	low STR_4
   869   0026D6  6E1C               	movwf	printf@fmt^0,c
   870   0026D8  ECAE  F015         	call	_printf	;wreg free
   871   0026DC                     
   872                           ;main.c: 82:    read();
   873   0026DC  EC0E  F011         	call	_read	;wreg free
   874   0026E0                     
   875                           ;main.c: 83:    MSdelay(1000);
   876   0026E0  0E03               	movlw	3
   877   0026E2  6E02               	movwf	(MSdelay@val+1)^0,c
   878   0026E4  0EE8               	movlw	232
   879   0026E6  6E01               	movwf	MSdelay@val^0,c
   880   0026E8  EC5A  F014         	call	_MSdelay	;wreg free
   881   0026EC  EF59  F013         	goto	l2336
   882   0026F0  EFFE  F0FF         	goto	start
   883   0026F4                     __end_of_main:
   884                           	callstack 0
   885                           
   886 ;; *************** function _read *****************
   887 ;; Defined at:
   888 ;;		line 87 in file "main.c"
   889 ;; Parameters:    Size  Location     Type
   890 ;;		None
   891 ;; Auto vars:     Size  Location     Type
   892 ;;  i               1   82[COMRAM] unsigned char 
   893 ;;  hex_string     37    0        unsigned char [37]
   894 ;;  data           20   46[COMRAM] unsigned char [20]
   895 ;;  received_byt    9   66[COMRAM] unsigned char [9]
   896 ;;  distance        2   78[COMRAM] unsigned short 
   897 ;;  byte_count      1   81[COMRAM] unsigned char 
   898 ;;  Read_header     1   80[COMRAM] unsigned char 
   899 ;;  distance_H      1   77[COMRAM] unsigned char 
   900 ;;  distance_L      1   76[COMRAM] unsigned char 
   901 ;;  count           1   75[COMRAM] unsigned char 
   902 ;; Return value:  Size  Location     Type
   903 ;;                  1    wreg      void 
   904 ;; Registers used:
   905 ;;		wreg, fsr0l, fsr0h, fsr1l, fsr1h, fsr2l, fsr2h, status,2, status,0, pcl, pclath, pclatu, tosl, tblptrl, tblptrh, tbl
      +ptru, cstack
   906 ;; Tracked objects:
   907 ;;		On entry : 0/0
   908 ;;		On exit  : 0/0
   909 ;;		Unchanged: 0/0
   910 ;; Data sizes:     COMRAM   BANK0   BANK1   BANK2   BANK3   BANK4   BANK5   BANK6   BANK7   BANK8   BANK9  BANK10  BANK1
      +1  BANK12  BANK13  BANK14  BANK15  BANK16  BANK17  BANK18  BANK19  BANK20  BANK21  BANK22  BANK23  BANK24  BANK25  BANK2
      +6  BANK27  BANK28  BANK29  BANK30  BANK31
   911 ;;      Params:         0       0       0       0       0       0       0       0       0       0       0       0       
      +0       0       0       0       0       0       0       0       0       0       0       0       0       0       0       
      +0       0       0       0       0       0
   912 ;;      Locals:        37       0       0       0       0       0       0       0       0       0       0       0       
      +0       0       0       0       0       0       0       0       0       0       0       0       0       0       0       
      +0       0       0       0       0       0
   913 ;;      Temps:          2       0       0       0       0       0       0       0       0       0       0       0       
      +0       0       0       0       0       0       0       0       0       0       0       0       0       0       0       
      +0       0       0       0       0       0
   914 ;;      Totals:        39       0       0       0       0       0       0       0       0       0       0       0       
      +0       0       0       0       0       0       0       0       0       0       0       0       0       0       0       
      +0       0       0       0       0       0
   915 ;;Total ram usage:       39 bytes
   916 ;; Hardware stack levels used: 1
   917 ;; Hardware stack levels required when called: 6
   918 ;; This function calls:
   919 ;;		_LCD_String_xy
   920 ;;		_UART2_IsRxReady
   921 ;;		_UART2_Read
   922 ;;		_printf
   923 ;;		_sprintf
   924 ;; This function is called by:
   925 ;;		_main
   926 ;; This function uses a non-reentrant model
   927 ;;
   928                           
   929                           	psect	text1
   930   00221C                     __ptext1:
   931                           	callstack 0
   932   00221C                     _read:
   933                           	callstack 24
   934   00221C                     
   935                           ;main.c: 88:     uint8_t Read_header = 0x59;
   936   00221C  0E59               	movlw	89
   937   00221E  6E51               	movwf	read@Read_header^0,c
   938                           
   939                           ;main.c: 90:     uint8_t distance_H = 0;
   940   002220  0E00               	movlw	0
   941   002222  6E4E               	movwf	read@distance_H^0,c
   942                           
   943                           ;main.c: 91:     uint16_t distance = 0;
   944   002224  0E00               	movlw	0
   945   002226  6E50               	movwf	(read@distance+1)^0,c
   946   002228  0E00               	movlw	0
   947   00222A  6E4F               	movwf	read@distance^0,c
   948                           
   949                           ;main.c: 92:     unsigned char count = 0;
   950   00222C  0E00               	movlw	0
   951   00222E  6E4C               	movwf	read@count^0,c
   952                           
   953                           ;main.c: 93:     char data[20];;main.c: 96:     uint8_t received_bytes[9];;main.c: 97:  
      +                             char hex_string[37];;main.c: 99:     uint8_t byte_count = 0;
   954   002230  0E00               	movlw	0
   955   002232  6E52               	movwf	read@byte_count^0,c
   956                           
   957                           ;main.c: 101:     while (byte_count < 9){
   958   002234  EF56  F011         	goto	l2188
   959   002238                     l2182:
   960                           
   961                           ;main.c: 103:         if (UART2.IsRxReady()) {
   962   002238  0E0D               	movlw	low (_UART2+12)
   963   00223A  6EF6               	movwf	tblptrl,c
   964   00223C                     	if	1	;There is more than 1 active tblptr byte
   965   00223C  0E20               	movlw	high __smallconst
   966   00223E  6EF7               	movwf	tblptrh,c
   967   002240                     	endif
   968   002240                     	if	0	;tblptru may be non-zero
   969   002240                     	endif
   970   002240                     	if	1	;Program memory is > 0xFFFF, there are 3 active tblptr bytes
   971   002240  0E00               	movlw	low (__smallconst shr (0+16))
   972   002242  6EF8               	movwf	tblptru,c
   973   002244                     	endif
   974   002244  D802               	call	u1078
   975   002246  EF32  F011         	goto	u1079
   976   00224A                     u1078:
   977   00224A  0005               	push	
   978   00224C  6EFA               	movwf	pclath,c
   979   00224E  0009               	tblrd		*+
   980   002250  50F5               	movf	tablat,w,c
   981   002252  6EFD               	movwf	tosl,c
   982   002254  0009               	tblrd		*+
   983   002256  50F5               	movf	tablat,w,c
   984   002258  6EFE               	movwf	tosh,c
   985   00225A  0009               	tblrd		*+
   986   00225C  50F5               	movf	tablat,w,c
   987   00225E  6EFF               	movwf	tosu,c
   988   002260  50FA               	movf	pclath,w,c
   989   002262  0012               	return		;indir
   990   002264                     u1079:
   991   002264  0900               	iorlw	0
   992   002266  B4D8               	btfsc	status,2,c
   993   002268  EF38  F011         	goto	u1081
   994   00226C  EF3A  F011         	goto	u1080
   995   002270                     u1081:
   996   002270  EF56  F011         	goto	l2188
   997   002274                     u1080:
   998   002274                     
   999                           ;main.c: 104:             received_bytes[byte_count] = UART2.Read();
  1000   002274  5052               	movf	read@byte_count^0,w,c
  1001   002276  0F43               	addlw	low read@received_bytes
  1002   002278  6ED9               	movwf	fsr2l,c
  1003   00227A  6ADA               	clrf	fsr2h,c
  1004   00227C  0E07               	movlw	low (_UART2+6)
  1005   00227E  6EF6               	movwf	tblptrl,c
  1006   002280                     	if	1	;There is more than 1 active tblptr byte
  1007   002280  0E20               	movlw	high __smallconst
  1008   002282  6EF7               	movwf	tblptrh,c
  1009   002284                     	endif
  1010   002284                     	if	0	;tblptru may be non-zero
  1011   002284                     	endif
  1012   002284                     	if	1	;Program memory is > 0xFFFF, there are 3 active tblptr bytes
  1013   002284  0E00               	movlw	low (__smallconst shr (0+16))
  1014   002286  6EF8               	movwf	tblptru,c
  1015   002288                     	endif
  1016   002288  D802               	call	u1098
  1017   00228A  EF54  F011         	goto	u1099
  1018   00228E                     u1098:
  1019   00228E  0005               	push	
  1020   002290  6EFA               	movwf	pclath,c
  1021   002292  0009               	tblrd		*+
  1022   002294  50F5               	movf	tablat,w,c
  1023   002296  6EFD               	movwf	tosl,c
  1024   002298  0009               	tblrd		*+
  1025   00229A  50F5               	movf	tablat,w,c
  1026   00229C  6EFE               	movwf	tosh,c
  1027   00229E  0009               	tblrd		*+
  1028   0022A0  50F5               	movf	tablat,w,c
  1029   0022A2  6EFF               	movwf	tosu,c
  1030   0022A4  50FA               	movf	pclath,w,c
  1031   0022A6  0012               	return		;indir
  1032   0022A8                     u1099:
  1033   0022A8  6EDF               	movwf	indf2,c
  1034   0022AA                     
  1035                           ;main.c: 105:             byte_count++;
  1036   0022AA  2A52               	incf	read@byte_count^0,f,c
  1037   0022AC                     l2188:
  1038                           
  1039                           ;main.c: 101:     while (byte_count < 9){
  1040   0022AC  0E08               	movlw	8
  1041   0022AE  6452               	cpfsgt	read@byte_count^0,c
  1042   0022B0  EF5C  F011         	goto	u1101
  1043   0022B4  EF5E  F011         	goto	u1100
  1044   0022B8                     u1101:
  1045   0022B8  EF1C  F011         	goto	l2182
  1046   0022BC                     u1100:
  1047   0022BC                     
  1048                           ;main.c: 110:         for(uint8_t i = 0; i<6;i++){
  1049   0022BC  0E00               	movlw	0
  1050   0022BE  6E53               	movwf	read@i^0,c
  1051   0022C0                     l2196:
  1052                           
  1053                           ;main.c: 111:             if(received_bytes[i] == Read_header && received_bytes[i+1] == 
      +                          Read_header){
  1054   0022C0  5053               	movf	read@i^0,w,c
  1055   0022C2  0F43               	addlw	low read@received_bytes
  1056   0022C4  6ED9               	movwf	fsr2l,c
  1057   0022C6  6ADA               	clrf	fsr2h,c
  1058   0022C8  5051               	movf	read@Read_header^0,w,c
  1059   0022CA  18DE               	xorwf	postinc2,w,c
  1060   0022CC  A4D8               	btfss	status,2,c
  1061   0022CE  EF6B  F011         	goto	u1111
  1062   0022D2  EF6D  F011         	goto	u1110
  1063   0022D6                     u1111:
  1064   0022D6  EFBF  F011         	goto	l2212
  1065   0022DA                     u1110:
  1066   0022DA  C053  F02D         	movff	read@i,??_read
  1067   0022DE  0E01               	movlw	1
  1068   0022E0  262D               	addwf	??_read^0,f,c
  1069   0022E2  502D               	movf	??_read^0,w,c
  1070   0022E4  0F43               	addlw	low read@received_bytes
  1071   0022E6  6ED9               	movwf	fsr2l,c
  1072   0022E8  6ADA               	clrf	fsr2h,c
  1073   0022EA  5051               	movf	read@Read_header^0,w,c
  1074   0022EC  18DE               	xorwf	postinc2,w,c
  1075   0022EE  A4D8               	btfss	status,2,c
  1076   0022F0  EF7C  F011         	goto	u1121
  1077   0022F4  EF7E  F011         	goto	u1120
  1078   0022F8                     u1121:
  1079   0022F8  EFBF  F011         	goto	l2212
  1080   0022FC                     u1120:
  1081   0022FC                     
  1082                           ;main.c: 112:                 distance_L = received_bytes[i+2];
  1083   0022FC  C053  F02D         	movff	read@i,??_read
  1084   002300  0E02               	movlw	2
  1085   002302  262D               	addwf	??_read^0,f,c
  1086   002304  502D               	movf	??_read^0,w,c
  1087   002306  0F43               	addlw	low read@received_bytes
  1088   002308  6ED9               	movwf	fsr2l,c
  1089   00230A  6ADA               	clrf	fsr2h,c
  1090   00230C  50DF               	movf	indf2,w,c
  1091   00230E  6E4D               	movwf	read@distance_L^0,c
  1092                           
  1093                           ;main.c: 113:                 distance_H = received_bytes[i+3];
  1094   002310  C053  F02D         	movff	read@i,??_read
  1095   002314  0E03               	movlw	3
  1096   002316  262D               	addwf	??_read^0,f,c
  1097   002318  502D               	movf	??_read^0,w,c
  1098   00231A  0F43               	addlw	low read@received_bytes
  1099   00231C  6ED9               	movwf	fsr2l,c
  1100   00231E  6ADA               	clrf	fsr2h,c
  1101   002320  50DF               	movf	indf2,w,c
  1102   002322  6E4E               	movwf	read@distance_H^0,c
  1103   002324                     
  1104                           ;main.c: 114:                 distance = ((uint16_t)distance_H << 8) | distance_L;
  1105   002324  504E               	movf	read@distance_H^0,w,c
  1106   002326  6E2D               	movwf	??_read^0,c
  1107   002328  504D               	movf	read@distance_L^0,w,c
  1108   00232A  6E4F               	movwf	read@distance^0,c
  1109   00232C  C02D  F050         	movff	??_read,read@distance+1
  1110   002330                     
  1111                           ;main.c: 115:                 sprintf(data, "%u   ", distance);
  1112   002330  0E2F               	movlw	low read@data
  1113   002332  6E1C               	movwf	sprintf@s^0,c
  1114   002334  0E81               	movlw	low STR_5
  1115   002336  6E1D               	movwf	sprintf@fmt^0,c
  1116   002338  C04F  F01E         	movff	read@distance,?_sprintf+2
  1117   00233C  C050  F01F         	movff	read@distance+1,?_sprintf+3
  1118   002340  EC07  F015         	call	_sprintf	;wreg free
  1119   002344                     
  1120                           ;main.c: 116:                 LCD_String_xy(2,0,data);
  1121   002344  0E00               	movlw	0
  1122   002346  6E0A               	movwf	LCD_String_xy@pos^0,c
  1123   002348  0E2F               	movlw	low read@data
  1124   00234A  6E0B               	movwf	LCD_String_xy@msg^0,c
  1125   00234C  6A0C               	clrf	(LCD_String_xy@msg+1)^0,c
  1126   00234E  0E02               	movlw	2
  1127   002350  ECE7  F014         	call	_LCD_String_xy
  1128   002354                     
  1129                           ;main.c: 117:                 LCD_String_xy(2,5,"CM");
  1130   002354  0E05               	movlw	5
  1131   002356  6E0A               	movwf	LCD_String_xy@pos^0,c
  1132   002358  0E87               	movlw	low STR_6
  1133   00235A  6E0B               	movwf	LCD_String_xy@msg^0,c
  1134   00235C  500B               	movf	LCD_String_xy@msg^0,w,c
  1135   00235E  A4D8               	btfss	status,2,c
  1136   002360  0E20               	movlw	high __smallconst
  1137   002362  6E0C               	movwf	(LCD_String_xy@msg+1)^0,c
  1138   002364  0E02               	movlw	2
  1139   002366  ECE7  F014         	call	_LCD_String_xy
  1140   00236A                     
  1141                           ;main.c: 119:                 printf("Distance: %u CM\r\n", distance);
  1142   00236A  0E49               	movlw	low STR_7
  1143   00236C  6E1C               	movwf	printf@fmt^0,c
  1144   00236E  C04F  F01D         	movff	read@distance,?_printf+1
  1145   002372  C050  F01E         	movff	read@distance+1,?_printf+2
  1146   002376  ECAE  F015         	call	_printf	;wreg free
  1147                           
  1148                           ;main.c: 120:                 break;
  1149   00237A  EFC8  F011         	goto	l540
  1150   00237E                     l2212:
  1151                           
  1152                           ;main.c: 123:         }
  1153   00237E  2A53               	incf	read@i^0,f,c
  1154   002380  0E05               	movlw	5
  1155   002382  6453               	cpfsgt	read@i^0,c
  1156   002384  EFC6  F011         	goto	u1131
  1157   002388  EFC8  F011         	goto	u1130
  1158   00238C                     u1131:
  1159   00238C  EF60  F011         	goto	l2196
  1160   002390                     u1130:
  1161   002390                     l540:
  1162   002390  0012               	return		;funcret
  1163   002392                     __end_of_read:
  1164                           	callstack 0
  1165                           
  1166 ;; *************** function _sprintf *****************
  1167 ;; Defined at:
  1168 ;;		line 9 in file "C:\Program Files\Microchip\xc8\v2.46\pic\sources\c99\common\nf_sprintf.c"
  1169 ;; Parameters:    Size  Location     Type
  1170 ;;  s               1   27[COMRAM] PTR unsigned char 
  1171 ;;		 -> read@data(20), 
  1172 ;;  fmt             1   28[COMRAM] PTR const unsigned char 
  1173 ;;		 -> STR_5(6), 
  1174 ;; Auto vars:     Size  Location     Type
  1175 ;;  f              12   32[COMRAM] struct _IO_FILE
  1176 ;;  ret             2    0        int 
  1177 ;;  ap              1   31[COMRAM] PTR void [1]
  1178 ;;		 -> ?_printf(2), ?_sprintf(2), 
  1179 ;; Return value:  Size  Location     Type
  1180 ;;                  2   27[COMRAM] int 
  1181 ;; Registers used:
  1182 ;;		wreg, fsr1l, fsr1h, fsr2l, fsr2h, status,2, status,0, tblptrl, tblptrh, tblptru, cstack
  1183 ;; Tracked objects:
  1184 ;;		On entry : 0/0
  1185 ;;		On exit  : 0/0
  1186 ;;		Unchanged: 0/0
  1187 ;; Data sizes:     COMRAM   BANK0   BANK1   BANK2   BANK3   BANK4   BANK5   BANK6   BANK7   BANK8   BANK9  BANK10  BANK1
      +1  BANK12  BANK13  BANK14  BANK15  BANK16  BANK17  BANK18  BANK19  BANK20  BANK21  BANK22  BANK23  BANK24  BANK25  BANK2
      +6  BANK27  BANK28  BANK29  BANK30  BANK31
  1188 ;;      Params:         4       0       0       0       0       0       0       0       0       0       0       0       
      +0       0       0       0       0       0       0       0       0       0       0       0       0       0       0       
      +0       0       0       0       0       0
  1189 ;;      Locals:        13       0       0       0       0       0       0       0       0       0       0       0       
      +0       0       0       0       0       0       0       0       0       0       0       0       0       0       0       
      +0       0       0       0       0       0
  1190 ;;      Temps:          0       0       0       0       0       0       0       0       0       0       0       0       
      +0       0       0       0       0       0       0       0       0       0       0       0       0       0       0       
      +0       0       0       0       0       0
  1191 ;;      Totals:        17       0       0       0       0       0       0       0       0       0       0       0       
      +0       0       0       0       0       0       0       0       0       0       0       0       0       0       0       
      +0       0       0       0       0       0
  1192 ;;Total ram usage:       17 bytes
  1193 ;; Hardware stack levels used: 1
  1194 ;; Hardware stack levels required when called: 5
  1195 ;; This function calls:
  1196 ;;		_vfprintf
  1197 ;; This function is called by:
  1198 ;;		_read
  1199 ;; This function uses a non-reentrant model
  1200 ;;
  1201                           
  1202                           	psect	text2
  1203   002A0E                     __ptext2:
  1204                           	callstack 0
  1205   002A0E                     _sprintf:
  1206                           	callstack 24
  1207   002A0E  0E1E               	movlw	low (?_sprintf+2)
  1208   002A10  6E20               	movwf	sprintf@ap^0,c
  1209   002A12  C01C  F021         	movff	sprintf@s,sprintf@f
  1210   002A16  0E00               	movlw	0
  1211   002A18  6E25               	movwf	(sprintf@f+4)^0,c
  1212   002A1A  0E00               	movlw	0
  1213   002A1C  6E24               	movwf	(sprintf@f+3)^0,c
  1214   002A1E  0E00               	movlw	0
  1215   002A20  6E2C               	movwf	(sprintf@f+11)^0,c
  1216   002A22  0E00               	movlw	0
  1217   002A24  6E2B               	movwf	(sprintf@f+10)^0,c
  1218   002A26  0E21               	movlw	low sprintf@f
  1219   002A28  6E17               	movwf	vfprintf@fp^0,c
  1220   002A2A  6A18               	clrf	(vfprintf@fp+1)^0,c
  1221   002A2C  C01D  F019         	movff	sprintf@fmt,vfprintf@fmt
  1222   002A30  0E20               	movlw	low sprintf@ap
  1223   002A32  6E1A               	movwf	vfprintf@ap^0,c
  1224   002A34  EC7F  F014         	call	_vfprintf	;wreg free
  1225   002A38  501C               	movf	sprintf@s^0,w,c
  1226   002A3A  2424               	addwf	(sprintf@f+3)^0,w,c
  1227   002A3C  6ED9               	movwf	fsr2l,c
  1228   002A3E  6ADA               	clrf	fsr2h,c
  1229   002A40  6ADF               	clrf	indf2,c
  1230   002A42  0012               	return		;funcret
  1231   002A44                     __end_of_sprintf:
  1232                           	callstack 0
  1233                           
  1234 ;; *************** function _printf *****************
  1235 ;; Defined at:
  1236 ;;		line 5 in file "C:\Program Files\Microchip\xc8\v2.46\pic\sources\c99\common\printf.c"
  1237 ;; Parameters:    Size  Location     Type
  1238 ;;  fmt             1   27[COMRAM] PTR const unsigned char 
  1239 ;;		 -> STR_7(18), STR_4(10), 
  1240 ;; Auto vars:     Size  Location     Type
  1241 ;;  ret             2    0        int 
  1242 ;;  ap              1   30[COMRAM] PTR void [1]
  1243 ;;		 -> ?_printf(2), ?_sprintf(2), 
  1244 ;; Return value:  Size  Location     Type
  1245 ;;                  2   27[COMRAM] int 
  1246 ;; Registers used:
  1247 ;;		wreg, fsr1l, fsr1h, fsr2l, fsr2h, status,2, status,0, tblptrl, tblptrh, tblptru, cstack
  1248 ;; Tracked objects:
  1249 ;;		On entry : 0/0
  1250 ;;		On exit  : 0/0
  1251 ;;		Unchanged: 0/0
  1252 ;; Data sizes:     COMRAM   BANK0   BANK1   BANK2   BANK3   BANK4   BANK5   BANK6   BANK7   BANK8   BANK9  BANK10  BANK1
      +1  BANK12  BANK13  BANK14  BANK15  BANK16  BANK17  BANK18  BANK19  BANK20  BANK21  BANK22  BANK23  BANK24  BANK25  BANK2
      +6  BANK27  BANK28  BANK29  BANK30  BANK31
  1253 ;;      Params:         3       0       0       0       0       0       0       0       0       0       0       0       
      +0       0       0       0       0       0       0       0       0       0       0       0       0       0       0       
      +0       0       0       0       0       0
  1254 ;;      Locals:         1       0       0       0       0       0       0       0       0       0       0       0       
      +0       0       0       0       0       0       0       0       0       0       0       0       0       0       0       
      +0       0       0       0       0       0
  1255 ;;      Temps:          0       0       0       0       0       0       0       0       0       0       0       0       
      +0       0       0       0       0       0       0       0       0       0       0       0       0       0       0       
      +0       0       0       0       0       0
  1256 ;;      Totals:         4       0       0       0       0       0       0       0       0       0       0       0       
      +0       0       0       0       0       0       0       0       0       0       0       0       0       0       0       
      +0       0       0       0       0       0
  1257 ;;Total ram usage:        4 bytes
  1258 ;; Hardware stack levels used: 1
  1259 ;; Hardware stack levels required when called: 5
  1260 ;; This function calls:
  1261 ;;		_vfprintf
  1262 ;; This function is called by:
  1263 ;;		_main
  1264 ;;		_read
  1265 ;; This function uses a non-reentrant model
  1266 ;;
  1267                           
  1268                           	psect	text3
  1269   002B5C                     __ptext3:
  1270                           	callstack 0
  1271   002B5C                     _printf:
  1272                           	callstack 24
  1273   002B5C  0E1D               	movlw	low (?_printf+1)
  1274   002B5E  6E1F               	movwf	printf@ap^0,c
  1275   002B60  0E00               	movlw	0
  1276   002B62  6E17               	movwf	vfprintf@fp^0,c
  1277   002B64  0E00               	movlw	0
  1278   002B66  6E18               	movwf	(vfprintf@fp+1)^0,c
  1279   002B68  C01C  F019         	movff	printf@fmt,vfprintf@fmt
  1280   002B6C  0E1F               	movlw	low printf@ap
  1281   002B6E  6E1A               	movwf	vfprintf@ap^0,c
  1282   002B70  EC7F  F014         	call	_vfprintf	;wreg free
  1283   002B74  0012               	return		;funcret
  1284   002B76                     __end_of_printf:
  1285                           	callstack 0
  1286                           
  1287 ;; *************** function _vfprintf *****************
  1288 ;; Defined at:
  1289 ;;		line 1817 in file "C:\Program Files\Microchip\xc8\v2.46\pic\sources\c99\common\doprnt.c"
  1290 ;; Parameters:    Size  Location     Type
  1291 ;;  fp              2   22[COMRAM] PTR struct _IO_FILE
  1292 ;;		 -> sprintf@f(12), NULL(0), 
  1293 ;;  fmt             1   24[COMRAM] PTR const unsigned char 
  1294 ;;		 -> STR_7(18), STR_5(6), STR_4(10), 
  1295 ;;  ap              1   25[COMRAM] PTR PTR void 
  1296 ;;		 -> printf@ap(1), sprintf@ap(1), 
  1297 ;; Auto vars:     Size  Location     Type
  1298 ;;  cfmt            1   26[COMRAM] PTR unsigned char 
  1299 ;;		 -> STR_7(18), STR_5(6), STR_4(10), 
  1300 ;; Return value:  Size  Location     Type
  1301 ;;                  2   22[COMRAM] int 
  1302 ;; Registers used:
  1303 ;;		wreg, fsr1l, fsr1h, fsr2l, fsr2h, status,2, status,0, tblptrl, tblptrh, tblptru, cstack
  1304 ;; Tracked objects:
  1305 ;;		On entry : 0/0
  1306 ;;		On exit  : 0/0
  1307 ;;		Unchanged: 0/0
  1308 ;; Data sizes:     COMRAM   BANK0   BANK1   BANK2   BANK3   BANK4   BANK5   BANK6   BANK7   BANK8   BANK9  BANK10  BANK1
      +1  BANK12  BANK13  BANK14  BANK15  BANK16  BANK17  BANK18  BANK19  BANK20  BANK21  BANK22  BANK23  BANK24  BANK25  BANK2
      +6  BANK27  BANK28  BANK29  BANK30  BANK31
  1309 ;;      Params:         4       0       0       0       0       0       0       0       0       0       0       0       
      +0       0       0       0       0       0       0       0       0       0       0       0       0       0       0       
      +0       0       0       0       0       0
  1310 ;;      Locals:         1       0       0       0       0       0       0       0       0       0       0       0       
      +0       0       0       0       0       0       0       0       0       0       0       0       0       0       0       
      +0       0       0       0       0       0
  1311 ;;      Temps:          0       0       0       0       0       0       0       0       0       0       0       0       
      +0       0       0       0       0       0       0       0       0       0       0       0       0       0       0       
      +0       0       0       0       0       0
  1312 ;;      Totals:         5       0       0       0       0       0       0       0       0       0       0       0       
      +0       0       0       0       0       0       0       0       0       0       0       0       0       0       0       
      +0       0       0       0       0       0
  1313 ;;Total ram usage:        5 bytes
  1314 ;; Hardware stack levels used: 1
  1315 ;; Hardware stack levels required when called: 4
  1316 ;; This function calls:
  1317 ;;		_vfpfcnvrt
  1318 ;; This function is called by:
  1319 ;;		_sprintf
  1320 ;;		_printf
  1321 ;; This function uses a non-reentrant model
  1322 ;;
  1323                           
  1324                           	psect	text4
  1325   0028FE                     __ptext4:
  1326                           	callstack 0
  1327   0028FE                     _vfprintf:
  1328                           	callstack 24
  1329   0028FE                     
  1330                           ;C:\Program Files\Microchip\xc8\v2.46\pic\sources\c99\common\doprnt.c: 1817: int vfprint
      +                          f(FILE *fp, const char *fmt, va_list ap);C:\Program Files\Microchip\xc8\v2.46\pic\source
      +                          s\c99\common\doprnt.c: 1818: {;C:\Program Files\Microchip\xc8\v2.46\pic\sources\c99\comm
      +                          on\doprnt.c: 1820:     char *cfmt;;C:\Program Files\Microchip\xc8\v2.46\pic\sources\c99\
      +                          common\doprnt.c: 1822:     cfmt = (char *)fmt;
  1331   0028FE  C019  F01B         	movff	vfprintf@fmt,vfprintf@cfmt
  1332                           
  1333                           ;C:\Program Files\Microchip\xc8\v2.46\pic\sources\c99\common\doprnt.c: 1826:     while (
      +                          *cfmt) {
  1334   002902  EF8D  F014         	goto	l2066
  1335   002906                     l2064:
  1336                           
  1337                           ;C:\Program Files\Microchip\xc8\v2.46\pic\sources\c99\common\doprnt.c: 1830:    vfpfcnvr
      +                          t(fp, &cfmt, ap);
  1338   002906  C017  F00C         	movff	vfprintf@fp,vfpfcnvrt@fp
  1339   00290A  C018  F00D         	movff	vfprintf@fp+1,vfpfcnvrt@fp+1
  1340   00290E  0E1B               	movlw	low vfprintf@cfmt
  1341   002910  6E0E               	movwf	vfpfcnvrt@fmt^0,c
  1342   002912  C01A  F00F         	movff	vfprintf@ap,vfpfcnvrt@ap
  1343   002916  EC46  F010         	call	_vfpfcnvrt	;wreg free
  1344   00291A                     l2066:
  1345                           
  1346                           ;C:\Program Files\Microchip\xc8\v2.46\pic\sources\c99\common\doprnt.c: 1826:     while (
      +                          *cfmt) {
  1347   00291A  0060  F06F  FFF6   	movff	vfprintf@cfmt,tblptrl
  1348   002920                     	if	1	;There is more than 1 active tblptr byte
  1349   002920  0E20               	movlw	high __smallconst
  1350   002922  6EF7               	movwf	tblptrh,c
  1351   002924                     	endif
  1352   002924                     	if	0	;tblptru may be non-zero
  1353   002924                     	endif
  1354   002924                     	if	1	;Program memory is > 0xFFFF, there are 3 active tblptr bytes
  1355   002924  0E00               	movlw	low (__smallconst shr (0+16))
  1356   002926  6EF8               	movwf	tblptru,c
  1357   002928                     	endif
  1358   002928  0008               	tblrd		*
  1359   00292A  50F5               	movf	tablat,w,c
  1360   00292C  0900               	iorlw	0
  1361   00292E  A4D8               	btfss	status,2,c
  1362   002930  EF9C  F014         	goto	u971
  1363   002934  EF9E  F014         	goto	u970
  1364   002938                     u971:
  1365   002938  EF83  F014         	goto	l2064
  1366   00293C                     u970:
  1367   00293C                     
  1368                           ;C:\Program Files\Microchip\xc8\v2.46\pic\sources\c99\common\doprnt.c: 1835:  return 0;
  1369   00293C  0E00               	movlw	0
  1370   00293E  6E18               	movwf	(?_vfprintf+1)^0,c
  1371   002940  0E00               	movlw	0
  1372   002942  6E17               	movwf	?_vfprintf^0,c
  1373   002944  0012               	return		;funcret
  1374   002946                     __end_of_vfprintf:
  1375                           	callstack 0
  1376                           
  1377 ;; *************** function _vfpfcnvrt *****************
  1378 ;; Defined at:
  1379 ;;		line 1177 in file "C:\Program Files\Microchip\xc8\v2.46\pic\sources\c99\common\doprnt.c"
  1380 ;; Parameters:    Size  Location     Type
  1381 ;;  fp              2   11[COMRAM] PTR struct _IO_FILE
  1382 ;;		 -> sprintf@f(12), NULL(0), 
  1383 ;;  fmt             1   13[COMRAM] PTR PTR unsigned char 
  1384 ;;		 -> vfprintf@cfmt(1), 
  1385 ;;  ap              1   14[COMRAM] PTR PTR void 
  1386 ;;		 -> printf@ap(1), sprintf@ap(1), 
  1387 ;; Auto vars:     Size  Location     Type
  1388 ;;  convarg         4   16[COMRAM] struct .
  1389 ;;  c               1   21[COMRAM] unsigned char 
  1390 ;;  cp              1   20[COMRAM] PTR unsigned char 
  1391 ;;		 -> STR_7(18), STR_5(6), STR_4(10), 
  1392 ;;  done            1    0        _Bool 
  1393 ;; Return value:  Size  Location     Type
  1394 ;;                  1    wreg      void 
  1395 ;; Registers used:
  1396 ;;		wreg, fsr1l, fsr1h, fsr2l, fsr2h, status,2, status,0, tblptrl, tblptrh, tblptru, cstack
  1397 ;; Tracked objects:
  1398 ;;		On entry : 0/0
  1399 ;;		On exit  : 0/0
  1400 ;;		Unchanged: 0/0
  1401 ;; Data sizes:     COMRAM   BANK0   BANK1   BANK2   BANK3   BANK4   BANK5   BANK6   BANK7   BANK8   BANK9  BANK10  BANK1
      +1  BANK12  BANK13  BANK14  BANK15  BANK16  BANK17  BANK18  BANK19  BANK20  BANK21  BANK22  BANK23  BANK24  BANK25  BANK2
      +6  BANK27  BANK28  BANK29  BANK30  BANK31
  1402 ;;      Params:         4       0       0       0       0       0       0       0       0       0       0       0       
      +0       0       0       0       0       0       0       0       0       0       0       0       0       0       0       
      +0       0       0       0       0       0
  1403 ;;      Locals:         6       0       0       0       0       0       0       0       0       0       0       0       
      +0       0       0       0       0       0       0       0       0       0       0       0       0       0       0       
      +0       0       0       0       0       0
  1404 ;;      Temps:          1       0       0       0       0       0       0       0       0       0       0       0       
      +0       0       0       0       0       0       0       0       0       0       0       0       0       0       0       
      +0       0       0       0       0       0
  1405 ;;      Totals:        11       0       0       0       0       0       0       0       0       0       0       0       
      +0       0       0       0       0       0       0       0       0       0       0       0       0       0       0       
      +0       0       0       0       0       0
  1406 ;;Total ram usage:       11 bytes
  1407 ;; Hardware stack levels used: 1
  1408 ;; Hardware stack levels required when called: 3
  1409 ;; This function calls:
  1410 ;;		___lwdiv
  1411 ;;		___lwmod
  1412 ;;		_fputc
  1413 ;; This function is called by:
  1414 ;;		_vfprintf
  1415 ;; This function uses a non-reentrant model
  1416 ;;
  1417                           
  1418                           	psect	text5
  1419   00208C                     __ptext5:
  1420                           	callstack 0
  1421   00208C                     _vfpfcnvrt:
  1422                           	callstack 24
  1423   00208C                     
  1424                           ;C:\Program Files\Microchip\xc8\v2.46\pic\sources\c99\common\doprnt.c: 1177: vfpfcnvrt(F
      +                          ILE *fp, char *fmt[], va_list ap);C:\Program Files\Microchip\xc8\v2.46\pic\sources\c99\c
      +                          ommon\doprnt.c: 1178: {;C:\Program Files\Microchip\xc8\v2.46\pic\sources\c99\common\dopr
      +                          nt.c: 1179:     char c, *cp;;C:\Program Files\Microchip\xc8\v2.46\pic\sources\c99\common
      +                          \doprnt.c: 1180:     _Bool done;;C:\Program Files\Microchip\xc8\v2.46\pic\sources\c99\co
      +                          mmon\doprnt.c: 1188:  } convarg;;C:\Program Files\Microchip\xc8\v2.46\pic\sources\c99\co
      +                          mmon\doprnt.c: 1201:     if ((*fmt)[0] == '%') {
  1425   00208C  500E               	movf	vfpfcnvrt@fmt^0,w,c
  1426   00208E  6ED9               	movwf	fsr2l,c
  1427   002090  6ADA               	clrf	fsr2h,c
  1428   002092  006F FF7F FFF6     	movff	indf2,tblptrl
  1429   002098                     	if	1	;There is more than 1 active tblptr byte
  1430   002098  0E20               	movlw	high __smallconst
  1431   00209A  6EF7               	movwf	tblptrh,c
  1432   00209C                     	endif
  1433   00209C                     	if	0	;tblptru may be non-zero
  1434   00209C                     	endif
  1435   00209C                     	if	1	;Program memory is > 0xFFFF, there are 3 active tblptr bytes
  1436   00209C  0E00               	movlw	low (__smallconst shr (0+16))
  1437   00209E  6EF8               	movwf	tblptru,c
  1438   0020A0                     	endif
  1439   0020A0  0008               	tblrd		*
  1440   0020A2  50F5               	movf	tablat,w,c
  1441   0020A4  0A25               	xorlw	37
  1442   0020A6  A4D8               	btfss	status,2,c
  1443   0020A8  EF58  F010         	goto	u861
  1444   0020AC  EF5A  F010         	goto	u860
  1445   0020B0                     u861:
  1446   0020B0  EFF7  F010         	goto	l2018
  1447   0020B4                     u860:
  1448   0020B4                     
  1449                           ;C:\Program Files\Microchip\xc8\v2.46\pic\sources\c99\common\doprnt.c: 1202:         ++*
      +                          fmt;
  1450   0020B4  500E               	movf	vfpfcnvrt@fmt^0,w,c
  1451   0020B6  6ED9               	movwf	fsr2l,c
  1452   0020B8  6ADA               	clrf	fsr2h,c
  1453   0020BA  2ADF               	incf	indf2,f,c
  1454   0020BC                     
  1455                           ;C:\Program Files\Microchip\xc8\v2.46\pic\sources\c99\common\doprnt.c: 1204:         fla
      +                          gs = width = 0;
  1456   0020BC  0E00               	movlw	0
  1457   0020BE  0100               	movlb	0	; () banked
  1458   0020C0  6F90               	movwf	(_width+1)& (0+255),b
  1459   0020C2  0E00               	movlw	0
  1460   0020C4  6F8F               	movwf	_width& (0+255),b
  1461   0020C6  C08F  F057         	movff	_width,_flags
  1462   0020CA                     
  1463                           ; BSR set to: 0
  1464                           ;C:\Program Files\Microchip\xc8\v2.46\pic\sources\c99\common\doprnt.c: 1205:         pre
      +                          c = -1;
  1465   0020CA  6991               	setf	_prec& (0+255),b
  1466   0020CC  6992               	setf	(_prec+1)& (0+255),b
  1467   0020CE                     
  1468                           ; BSR set to: 0
  1469                           ;C:\Program Files\Microchip\xc8\v2.46\pic\sources\c99\common\doprnt.c: 1439:   if (0
  1470   0020CE  500E               	movf	vfpfcnvrt@fmt^0,w,c
  1471   0020D0  6ED9               	movwf	fsr2l,c
  1472   0020D2  6ADA               	clrf	fsr2h,c
  1473   0020D4  50DF               	movf	indf2,w,c
  1474   0020D6  6E15               	movwf	vfpfcnvrt@cp^0,c
  1475   0020D8                     
  1476                           ; BSR set to: 0
  1477   0020D8  0060  F057  FFF6   	movff	vfpfcnvrt@cp,tblptrl
  1478   0020DE                     	if	1	;There is more than 1 active tblptr byte
  1479   0020DE  0E20               	movlw	high __smallconst
  1480   0020E0  6EF7               	movwf	tblptrh,c
  1481   0020E2                     	endif
  1482   0020E2                     	if	0	;tblptru may be non-zero
  1483   0020E2                     	endif
  1484   0020E2                     	if	1	;Program memory is > 0xFFFF, there are 3 active tblptr bytes
  1485   0020E2  0E00               	movlw	low (__smallconst shr (0+16))
  1486   0020E4  6EF8               	movwf	tblptru,c
  1487   0020E6                     	endif
  1488   0020E6  0008               	tblrd		*
  1489   0020E8  50F5               	movf	tablat,w,c
  1490   0020EA  0A75               	xorlw	117
  1491   0020EC  A4D8               	btfss	status,2,c
  1492   0020EE  EF7B  F010         	goto	u871
  1493   0020F2  EF7D  F010         	goto	u870
  1494   0020F6                     u871:
  1495   0020F6  EFF1  F010         	goto	l2014
  1496   0020FA                     u870:
  1497   0020FA                     
  1498                           ; BSR set to: 0
  1499                           ;C:\Program Files\Microchip\xc8\v2.46\pic\sources\c99\common\doprnt.c: 1452:     ) {;C:\
      +                          Program Files\Microchip\xc8\v2.46\pic\sources\c99\common\doprnt.c: 1495:    convarg.uint
      +                           = (vfpf_uint_t)(unsigned int)(*(unsigned int *)__va_arg(*(unsigned int **)ap, (unsigned
      +                           int)0));
  1500   0020FA  500F               	movf	vfpfcnvrt@ap^0,w,c
  1501   0020FC  6ED9               	movwf	fsr2l,c
  1502   0020FE  6ADA               	clrf	fsr2h,c
  1503   002100  0E02               	movlw	2
  1504   002102  26DF               	addwf	indf2,f,c
  1505   002104  5CDF               	subwf	indf2,w,c
  1506   002106  6ED9               	movwf	fsr2l,c
  1507   002108  6ADA               	clrf	fsr2h,c
  1508   00210A  006F FF78  F011    	movff	postinc2,vfpfcnvrt@convarg
  1509   002110  006F FF78  F012    	movff	postinc2,vfpfcnvrt@convarg+1
  1510   002116                     
  1511                           ; BSR set to: 0
  1512                           ;C:\Program Files\Microchip\xc8\v2.46\pic\sources\c99\common\doprnt.c: 1497:    *fmt = c
      +                          p+1;
  1513   002116  500E               	movf	vfpfcnvrt@fmt^0,w,c
  1514   002118  6ED9               	movwf	fsr2l,c
  1515   00211A  6ADA               	clrf	fsr2h,c
  1516   00211C  2815               	incf	vfpfcnvrt@cp^0,w,c
  1517   00211E  6EDF               	movwf	indf2,c
  1518                           
  1519                           ;C:\Program Files\Microchip\xc8\v2.46\pic\sources\c99\common\doprnt.c: 1498:    switch (
      +                          *cp) {
  1520   002120  EFE2  F010         	goto	l2012
  1521   002124                     l1994:
  1522                           
  1523                           ; BSR set to: 0
  1524                           ;C:\Program Files\Microchip\xc8\v2.46\pic\sources\c99\common\doprnt.c: 1525:      c = si
      +                          zeof(dbuf);
  1525   002124  0E20               	movlw	32
  1526   002126  6E16               	movwf	vfpfcnvrt@c^0,c
  1527   002128                     l1996:
  1528                           
  1529                           ;C:\Program Files\Microchip\xc8\v2.46\pic\sources\c99\common\doprnt.c: 1527:       dbuf[
      +                          --c] = (convarg.uint % 10) + '0';
  1530   002128  0616               	decf	vfpfcnvrt@c^0,f,c
  1531   00212A  5016               	movf	vfpfcnvrt@c^0,w,c
  1532   00212C  0F60               	addlw	low _dbuf
  1533   00212E  6ED9               	movwf	fsr2l,c
  1534   002130  6ADA               	clrf	fsr2h,c
  1535   002132  C011  F001         	movff	vfpfcnvrt@convarg,___lwmod@dividend
  1536   002136  C012  F002         	movff	vfpfcnvrt@convarg+1,___lwmod@dividend+1
  1537   00213A  0E00               	movlw	0
  1538   00213C  6E04               	movwf	(___lwmod@divisor+1)^0,c
  1539   00213E  0E0A               	movlw	10
  1540   002140  6E03               	movwf	___lwmod@divisor^0,c
  1541   002142  EC28  F014         	call	___lwmod	;wreg free
  1542   002146  5001               	movf	?___lwmod^0,w,c
  1543   002148  0F30               	addlw	48
  1544   00214A  6EDF               	movwf	indf2,c
  1545   00214C                     
  1546                           ;C:\Program Files\Microchip\xc8\v2.46\pic\sources\c99\common\doprnt.c: 1528:       conva
      +                          rg.uint /= 10;
  1547   00214C  C011  F001         	movff	vfpfcnvrt@convarg,___lwdiv@dividend
  1548   002150  C012  F002         	movff	vfpfcnvrt@convarg+1,___lwdiv@dividend+1
  1549   002154  0E00               	movlw	0
  1550   002156  6E04               	movwf	(___lwdiv@divisor+1)^0,c
  1551   002158  0E0A               	movlw	10
  1552   00215A  6E03               	movwf	___lwdiv@divisor^0,c
  1553   00215C  ECB5  F013         	call	___lwdiv	;wreg free
  1554   002160  C001  F011         	movff	?___lwdiv,vfpfcnvrt@convarg
  1555   002164  C002  F012         	movff	?___lwdiv+1,vfpfcnvrt@convarg+1
  1556   002168                     
  1557                           ;C:\Program Files\Microchip\xc8\v2.46\pic\sources\c99\common\doprnt.c: 1532:      } whil
      +                          e (convarg.uint != 0 && c != 0);
  1558   002168  5011               	movf	vfpfcnvrt@convarg^0,w,c
  1559   00216A  1012               	iorwf	(vfpfcnvrt@convarg+1)^0,w,c
  1560   00216C  B4D8               	btfsc	status,2,c
  1561   00216E  EFBB  F010         	goto	u881
  1562   002172  EFBD  F010         	goto	u880
  1563   002176                     u881:
  1564   002176  EFD7  F010         	goto	l2008
  1565   00217A                     u880:
  1566   00217A  5016               	movf	vfpfcnvrt@c^0,w,c
  1567   00217C  A4D8               	btfss	status,2,c
  1568   00217E  EFC3  F010         	goto	u891
  1569   002182  EFC5  F010         	goto	u890
  1570   002186                     u891:
  1571   002186  EF94  F010         	goto	l1996
  1572   00218A                     u890:
  1573   00218A  EFD7  F010         	goto	l2008
  1574   00218E                     l2004:
  1575                           
  1576                           ;C:\Program Files\Microchip\xc8\v2.46\pic\sources\c99\common\doprnt.c: 1534:       fputc
      +                          (dbuf[c++], fp);
  1577   00218E  5016               	movf	vfpfcnvrt@c^0,w,c
  1578   002190  0F60               	addlw	low _dbuf
  1579   002192  6ED9               	movwf	fsr2l,c
  1580   002194  6ADA               	clrf	fsr2h,c
  1581   002196  50DF               	movf	indf2,w,c
  1582   002198  6E10               	movwf	??_vfpfcnvrt^0,c
  1583   00219A  5010               	movf	??_vfpfcnvrt^0,w,c
  1584   00219C  6E03               	movwf	fputc@c^0,c
  1585   00219E  6A04               	clrf	(fputc@c+1)^0,c
  1586   0021A0  C00C  F005         	movff	vfpfcnvrt@fp,fputc@fp
  1587   0021A4  C00D  F006         	movff	vfpfcnvrt@fp+1,fputc@fp+1
  1588   0021A8  EC2B  F012         	call	_fputc	;wreg free
  1589   0021AC  2A16               	incf	vfpfcnvrt@c^0,f,c
  1590   0021AE                     l2008:
  1591                           
  1592                           ;C:\Program Files\Microchip\xc8\v2.46\pic\sources\c99\common\doprnt.c: 1533:      while 
      +                          (c != sizeof(dbuf)) {
  1593   0021AE  0E20               	movlw	32
  1594   0021B0  1816               	xorwf	vfpfcnvrt@c^0,w,c
  1595   0021B2  A4D8               	btfss	status,2,c
  1596   0021B4  EFDE  F010         	goto	u901
  1597   0021B8  EFE0  F010         	goto	u900
  1598   0021BC                     u901:
  1599   0021BC  EFC7  F010         	goto	l2004
  1600   0021C0                     u900:
  1601   0021C0  EF0D  F011         	goto	l1272
  1602   0021C4                     l2012:
  1603                           
  1604                           ; BSR set to: 0
  1605   0021C4  0060  F057  FFF6   	movff	vfpfcnvrt@cp,tblptrl
  1606   0021CA                     	if	1	;There is more than 1 active tblptr byte
  1607   0021CA  0E20               	movlw	high __smallconst
  1608   0021CC  6EF7               	movwf	tblptrh,c
  1609   0021CE                     	endif
  1610   0021CE                     	if	0	;tblptru may be non-zero
  1611   0021CE                     	endif
  1612   0021CE                     	if	1	;Program memory is > 0xFFFF, there are 3 active tblptr bytes
  1613   0021CE  0E00               	movlw	low (__smallconst shr (0+16))
  1614   0021D0  6EF8               	movwf	tblptru,c
  1615   0021D2                     	endif
  1616   0021D2  0008               	tblrd		*
  1617   0021D4  50F5               	movf	tablat,w,c
  1618                           
  1619                           ; Switch size 1, requested type "simple"
  1620                           ; Number of cases is 1, Range of values is 117 to 117
  1621                           ; switch strategies available:
  1622                           ; Name         Instructions Cycles
  1623                           ; simple_byte            4     3 (average)
  1624                           ;	Chosen strategy is simple_byte
  1625   0021D6  0A75               	xorlw	117	; case 117
  1626   0021D8  B4D8               	btfsc	status,2,c
  1627   0021DA  EF92  F010         	goto	l1994
  1628   0021DE  EFF1  F010         	goto	l2014
  1629   0021E2                     l2014:
  1630                           
  1631                           ;C:\Program Files\Microchip\xc8\v2.46\pic\sources\c99\common\doprnt.c: 1806:         ++*
      +                          fmt;
  1632   0021E2  500E               	movf	vfpfcnvrt@fmt^0,w,c
  1633   0021E4  6ED9               	movwf	fsr2l,c
  1634   0021E6  6ADA               	clrf	fsr2h,c
  1635   0021E8  2ADF               	incf	indf2,f,c
  1636   0021EA  EF0D  F011         	goto	l1272
  1637   0021EE                     l2018:
  1638                           
  1639                           ;C:\Program Files\Microchip\xc8\v2.46\pic\sources\c99\common\doprnt.c: 1811:     fputc((
      +                          int)(*fmt)[0], fp);
  1640   0021EE  500E               	movf	vfpfcnvrt@fmt^0,w,c
  1641   0021F0  6ED9               	movwf	fsr2l,c
  1642   0021F2  6ADA               	clrf	fsr2h,c
  1643   0021F4  006F FF7F FFF6     	movff	indf2,tblptrl
  1644   0021FA                     	if	1	;There is more than 1 active tblptr byte
  1645   0021FA  0E20               	movlw	high __smallconst
  1646   0021FC  6EF7               	movwf	tblptrh,c
  1647   0021FE                     	endif
  1648   0021FE                     	if	0	;tblptru may be non-zero
  1649   0021FE                     	endif
  1650   0021FE                     	if	1	;Program memory is > 0xFFFF, there are 3 active tblptr bytes
  1651   0021FE  0E00               	movlw	low (__smallconst shr (0+16))
  1652   002200  6EF8               	movwf	tblptru,c
  1653   002202                     	endif
  1654   002202  0008               	tblrd		*
  1655   002204  50F5               	movf	tablat,w,c
  1656   002206  6E03               	movwf	fputc@c^0,c
  1657   002208  6A04               	clrf	(fputc@c+1)^0,c
  1658   00220A  C00C  F005         	movff	vfpfcnvrt@fp,fputc@fp
  1659   00220E  C00D  F006         	movff	vfpfcnvrt@fp+1,fputc@fp+1
  1660   002212  EC2B  F012         	call	_fputc	;wreg free
  1661   002216  EFF1  F010         	goto	l2014
  1662   00221A                     l1272:
  1663   00221A  0012               	return		;funcret
  1664   00221C                     __end_of_vfpfcnvrt:
  1665                           	callstack 0
  1666                           
  1667 ;; *************** function _fputc *****************
  1668 ;; Defined at:
  1669 ;;		line 8 in file "C:\Program Files\Microchip\xc8\v2.46\pic\sources\c99\common\nf_fputc.c"
  1670 ;; Parameters:    Size  Location     Type
  1671 ;;  c               2    2[COMRAM] int 
  1672 ;;  fp              2    4[COMRAM] PTR struct _IO_FILE
  1673 ;;		 -> sprintf@f(12), NULL(0), 
  1674 ;; Auto vars:     Size  Location     Type
  1675 ;;		None
  1676 ;; Return value:  Size  Location     Type
  1677 ;;                  2    2[COMRAM] int 
  1678 ;; Registers used:
  1679 ;;		wreg, fsr1l, fsr1h, fsr2l, fsr2h, status,2, status,0, cstack
  1680 ;; Tracked objects:
  1681 ;;		On entry : 0/0
  1682 ;;		On exit  : 0/0
  1683 ;;		Unchanged: 0/0
  1684 ;; Data sizes:     COMRAM   BANK0   BANK1   BANK2   BANK3   BANK4   BANK5   BANK6   BANK7   BANK8   BANK9  BANK10  BANK1
      +1  BANK12  BANK13  BANK14  BANK15  BANK16  BANK17  BANK18  BANK19  BANK20  BANK21  BANK22  BANK23  BANK24  BANK25  BANK2
      +6  BANK27  BANK28  BANK29  BANK30  BANK31
  1685 ;;      Params:         4       0       0       0       0       0       0       0       0       0       0       0       
      +0       0       0       0       0       0       0       0       0       0       0       0       0       0       0       
      +0       0       0       0       0       0
  1686 ;;      Locals:         0       0       0       0       0       0       0       0       0       0       0       0       
      +0       0       0       0       0       0       0       0       0       0       0       0       0       0       0       
      +0       0       0       0       0       0
  1687 ;;      Temps:          5       0       0       0       0       0       0       0       0       0       0       0       
      +0       0       0       0       0       0       0       0       0       0       0       0       0       0       0       
      +0       0       0       0       0       0
  1688 ;;      Totals:         9       0       0       0       0       0       0       0       0       0       0       0       
      +0       0       0       0       0       0       0       0       0       0       0       0       0       0       0       
      +0       0       0       0       0       0
  1689 ;;Total ram usage:        9 bytes
  1690 ;; Hardware stack levels used: 1
  1691 ;; Hardware stack levels required when called: 2
  1692 ;; This function calls:
  1693 ;;		_putch
  1694 ;; This function is called by:
  1695 ;;		_vfpfcnvrt
  1696 ;; This function uses a non-reentrant model
  1697 ;;
  1698                           
  1699                           	psect	text6
  1700   002456                     __ptext6:
  1701                           	callstack 0
  1702   002456                     _fputc:
  1703                           	callstack 24
  1704   002456  5005               	movf	fputc@fp^0,w,c
  1705   002458  1006               	iorwf	(fputc@fp+1)^0,w,c
  1706   00245A  B4D8               	btfsc	status,2,c
  1707   00245C  EF32  F012         	goto	u821
  1708   002460  EF34  F012         	goto	u820
  1709   002464                     u821:
  1710   002464  EF3D  F012         	goto	l1956
  1711   002468                     u820:
  1712   002468  5005               	movf	fputc@fp^0,w,c
  1713   00246A  1006               	iorwf	(fputc@fp+1)^0,w,c
  1714   00246C  A4D8               	btfss	status,2,c
  1715   00246E  EF3B  F012         	goto	u831
  1716   002472  EF3D  F012         	goto	u830
  1717   002476                     u831:
  1718   002476  EF42  F012         	goto	l1958
  1719   00247A                     u830:
  1720   00247A                     l1956:
  1721   00247A  5003               	movf	fputc@c^0,w,c
  1722   00247C  EC81  F015         	call	_putch
  1723   002480  EF8A  F012         	goto	l1291
  1724   002484                     l1958:
  1725   002484  EE20 F00A          	lfsr	2,10
  1726   002488  5005               	movf	fputc@fp^0,w,c
  1727   00248A  26D9               	addwf	fsr2l,f,c
  1728   00248C  5006               	movf	(fputc@fp+1)^0,w,c
  1729   00248E  22DA               	addwfc	fsr2h,f,c
  1730   002490  50DE               	movf	postinc2,w,c
  1731   002492  10DE               	iorwf	postinc2,w,c
  1732   002494  B4D8               	btfsc	status,2,c
  1733   002496  EF4F  F012         	goto	u841
  1734   00249A  EF51  F012         	goto	u840
  1735   00249E                     u841:
  1736   00249E  EF6C  F012         	goto	l1962
  1737   0024A2                     u840:
  1738   0024A2  EE20 F00A          	lfsr	2,10
  1739   0024A6  5005               	movf	fputc@fp^0,w,c
  1740   0024A8  26D9               	addwf	fsr2l,f,c
  1741   0024AA  5006               	movf	(fputc@fp+1)^0,w,c
  1742   0024AC  22DA               	addwfc	fsr2h,f,c
  1743   0024AE  EE10 F003          	lfsr	1,3
  1744   0024B2  5005               	movf	fputc@fp^0,w,c
  1745   0024B4  26E1               	addwf	fsr1l,f,c
  1746   0024B6  5006               	movf	(fputc@fp+1)^0,w,c
  1747   0024B8  22E2               	addwfc	fsr1h,f,c
  1748   0024BA  50DE               	movf	postinc2,w,c
  1749   0024BC  5CE6               	subwf	postinc1,w,c
  1750   0024BE  50E6               	movf	postinc1,w,c
  1751   0024C0  0A80               	xorlw	128
  1752   0024C2  6E0B               	movwf	(??_fputc+4)^0,c
  1753   0024C4  50DE               	movf	postinc2,w,c
  1754   0024C6  0A80               	xorlw	128
  1755   0024C8  580B               	subwfb	(??_fputc+4)^0,w,c
  1756   0024CA  B0D8               	btfsc	status,0,c
  1757   0024CC  EF6A  F012         	goto	u851
  1758   0024D0  EF6C  F012         	goto	u850
  1759   0024D4                     u851:
  1760   0024D4  EF8A  F012         	goto	l1291
  1761   0024D8                     u850:
  1762   0024D8                     l1962:
  1763   0024D8  EE20 F003          	lfsr	2,3
  1764   0024DC  5005               	movf	fputc@fp^0,w,c
  1765   0024DE  26D9               	addwf	fsr2l,f,c
  1766   0024E0  5006               	movf	(fputc@fp+1)^0,w,c
  1767   0024E2  22DA               	addwfc	fsr2h,f,c
  1768   0024E4  50DF               	movf	indf2,w,c
  1769   0024E6  6E07               	movwf	??_fputc^0,c
  1770   0024E8  0060  F017  FFD9   	movff	fputc@fp,fsr2l
  1771   0024EE  0060  F01B  FFDA   	movff	fputc@fp+1,fsr2h
  1772   0024F4  50DF               	movf	indf2,w,c
  1773   0024F6  2407               	addwf	??_fputc^0,w,c
  1774   0024F8  6ED9               	movwf	fsr2l,c
  1775   0024FA  6ADA               	clrf	fsr2h,c
  1776   0024FC  0060  F00F  FFDF   	movff	fputc@c,indf2
  1777   002502  EE20 F003          	lfsr	2,3
  1778   002506  5005               	movf	fputc@fp^0,w,c
  1779   002508  26D9               	addwf	fsr2l,f,c
  1780   00250A  5006               	movf	(fputc@fp+1)^0,w,c
  1781   00250C  22DA               	addwfc	fsr2h,f,c
  1782   00250E  2ADE               	incf	postinc2,f,c
  1783   002510  0E00               	movlw	0
  1784   002512  22DD               	addwfc	postdec2,f,c
  1785   002514                     l1291:
  1786   002514  0012               	return		;funcret
  1787   002516                     __end_of_fputc:
  1788                           	callstack 0
  1789                           
  1790 ;; *************** function _putch *****************
  1791 ;; Defined at:
  1792 ;;		line 284 in file "mcc_generated_files/uart/src/uart2.c"
  1793 ;; Parameters:    Size  Location     Type
  1794 ;;  txData          1    wreg     unsigned char 
  1795 ;; Auto vars:     Size  Location     Type
  1796 ;;  txData          1    1[COMRAM] unsigned char 
  1797 ;; Return value:  Size  Location     Type
  1798 ;;                  1    wreg      void 
  1799 ;; Registers used:
  1800 ;;		wreg, status,2, cstack
  1801 ;; Tracked objects:
  1802 ;;		On entry : 0/0
  1803 ;;		On exit  : 0/0
  1804 ;;		Unchanged: 0/0
  1805 ;; Data sizes:     COMRAM   BANK0   BANK1   BANK2   BANK3   BANK4   BANK5   BANK6   BANK7   BANK8   BANK9  BANK10  BANK1
      +1  BANK12  BANK13  BANK14  BANK15  BANK16  BANK17  BANK18  BANK19  BANK20  BANK21  BANK22  BANK23  BANK24  BANK25  BANK2
      +6  BANK27  BANK28  BANK29  BANK30  BANK31
  1806 ;;      Params:         0       0       0       0       0       0       0       0       0       0       0       0       
      +0       0       0       0       0       0       0       0       0       0       0       0       0       0       0       
      +0       0       0       0       0       0
  1807 ;;      Locals:         1       0       0       0       0       0       0       0       0       0       0       0       
      +0       0       0       0       0       0       0       0       0       0       0       0       0       0       0       
      +0       0       0       0       0       0
  1808 ;;      Temps:          0       0       0       0       0       0       0       0       0       0       0       0       
      +0       0       0       0       0       0       0       0       0       0       0       0       0       0       0       
      +0       0       0       0       0       0
  1809 ;;      Totals:         1       0       0       0       0       0       0       0       0       0       0       0       
      +0       0       0       0       0       0       0       0       0       0       0       0       0       0       0       
      +0       0       0       0       0       0
  1810 ;;Total ram usage:        1 bytes
  1811 ;; Hardware stack levels used: 1
  1812 ;; Hardware stack levels required when called: 1
  1813 ;; This function calls:
  1814 ;;		_UART2_IsTxReady
  1815 ;;		_UART2_Write
  1816 ;; This function is called by:
  1817 ;;		_fputc
  1818 ;; This function uses a non-reentrant model
  1819 ;;
  1820                           
  1821                           	psect	text7
  1822   002B02                     __ptext7:
  1823                           	callstack 0
  1824   002B02                     _putch:
  1825                           	callstack 24
  1826                           
  1827                           ;incstack = 0
  1828                           ;putch@txData stored from wreg
  1829   002B02  6E02               	movwf	putch@txData^0,c
  1830   002B04                     l1892:
  1831   002B04  EC39  F015         	call	_UART2_IsTxReady	;wreg free
  1832   002B08  0900               	iorlw	0
  1833   002B0A  B4D8               	btfsc	status,2,c
  1834   002B0C  EF8A  F015         	goto	u731
  1835   002B10  EF8C  F015         	goto	u730
  1836   002B14                     u731:
  1837   002B14  EF82  F015         	goto	l1892
  1838   002B18                     u730:
  1839   002B18                     
  1840                           ;mcc_generated_files/uart/src/uart2.c: 287:     return UART2_Write(txData);;	Return valu
      +                          e of _putch is never used
  1841   002B18  5002               	movf	putch@txData^0,w,c
  1842   002B1A  ECF0  F015         	call	_UART2_Write
  1843   002B1E  0012               	return		;funcret
  1844   002B20                     __end_of_putch:
  1845                           	callstack 0
  1846                           
  1847 ;; *************** function ___lwmod *****************
  1848 ;; Defined at:
  1849 ;;		line 7 in file "C:\Program Files\Microchip\xc8\v2.46\pic\sources\c99\common\lwmod.c"
  1850 ;; Parameters:    Size  Location     Type
  1851 ;;  dividend        2    0[COMRAM] unsigned int 
  1852 ;;  divisor         2    2[COMRAM] unsigned int 
  1853 ;; Auto vars:     Size  Location     Type
  1854 ;;  counter         1    4[COMRAM] unsigned char 
  1855 ;; Return value:  Size  Location     Type
  1856 ;;                  2    0[COMRAM] unsigned int 
  1857 ;; Registers used:
  1858 ;;		wreg, status,2, status,0
  1859 ;; Tracked objects:
  1860 ;;		On entry : 0/0
  1861 ;;		On exit  : 0/0
  1862 ;;		Unchanged: 0/0
  1863 ;; Data sizes:     COMRAM   BANK0   BANK1   BANK2   BANK3   BANK4   BANK5   BANK6   BANK7   BANK8   BANK9  BANK10  BANK1
      +1  BANK12  BANK13  BANK14  BANK15  BANK16  BANK17  BANK18  BANK19  BANK20  BANK21  BANK22  BANK23  BANK24  BANK25  BANK2
      +6  BANK27  BANK28  BANK29  BANK30  BANK31
  1864 ;;      Params:         4       0       0       0       0       0       0       0       0       0       0       0       
      +0       0       0       0       0       0       0       0       0       0       0       0       0       0       0       
      +0       0       0       0       0       0
  1865 ;;      Locals:         1       0       0       0       0       0       0       0       0       0       0       0       
      +0       0       0       0       0       0       0       0       0       0       0       0       0       0       0       
      +0       0       0       0       0       0
  1866 ;;      Temps:          0       0       0       0       0       0       0       0       0       0       0       0       
      +0       0       0       0       0       0       0       0       0       0       0       0       0       0       0       
      +0       0       0       0       0       0
  1867 ;;      Totals:         5       0       0       0       0       0       0       0       0       0       0       0       
      +0       0       0       0       0       0       0       0       0       0       0       0       0       0       0       
      +0       0       0       0       0       0
  1868 ;;Total ram usage:        5 bytes
  1869 ;; Hardware stack levels used: 1
  1870 ;; This function calls:
  1871 ;;		Nothing
  1872 ;; This function is called by:
  1873 ;;		_vfpfcnvrt
  1874 ;; This function uses a non-reentrant model
  1875 ;;
  1876                           
  1877                           	psect	text8
  1878   002850                     __ptext8:
  1879                           	callstack 0
  1880   002850                     ___lwmod:
  1881                           	callstack 26
  1882   002850  5003               	movf	___lwmod@divisor^0,w,c
  1883   002852  1004               	iorwf	(___lwmod@divisor+1)^0,w,c
  1884   002854  B4D8               	btfsc	status,2,c
  1885   002856  EF2F  F014         	goto	u791
  1886   00285A  EF31  F014         	goto	u790
  1887   00285E                     u791:
  1888   00285E  EF55  F014         	goto	l1058
  1889   002862                     u790:
  1890   002862  0E01               	movlw	1
  1891   002864  6E05               	movwf	___lwmod@counter^0,c
  1892   002866  EF39  F014         	goto	l1942
  1893   00286A                     l1940:
  1894   00286A  90D8               	bcf	status,0,c
  1895   00286C  3603               	rlcf	___lwmod@divisor^0,f,c
  1896   00286E  3604               	rlcf	(___lwmod@divisor+1)^0,f,c
  1897   002870  2A05               	incf	___lwmod@counter^0,f,c
  1898   002872                     l1942:
  1899   002872  AE04               	btfss	(___lwmod@divisor+1)^0,7,c
  1900   002874  EF3E  F014         	goto	u801
  1901   002878  EF40  F014         	goto	u800
  1902   00287C                     u801:
  1903   00287C  EF35  F014         	goto	l1940
  1904   002880                     u800:
  1905   002880                     l1944:
  1906   002880  5003               	movf	___lwmod@divisor^0,w,c
  1907   002882  5C01               	subwf	___lwmod@dividend^0,w,c
  1908   002884  5004               	movf	(___lwmod@divisor+1)^0,w,c
  1909   002886  5802               	subwfb	(___lwmod@dividend+1)^0,w,c
  1910   002888  A0D8               	btfss	status,0,c
  1911   00288A  EF49  F014         	goto	u811
  1912   00288E  EF4B  F014         	goto	u810
  1913   002892                     u811:
  1914   002892  EF4F  F014         	goto	l1948
  1915   002896                     u810:
  1916   002896  5003               	movf	___lwmod@divisor^0,w,c
  1917   002898  5E01               	subwf	___lwmod@dividend^0,f,c
  1918   00289A  5004               	movf	(___lwmod@divisor+1)^0,w,c
  1919   00289C  5A02               	subwfb	(___lwmod@dividend+1)^0,f,c
  1920   00289E                     l1948:
  1921   00289E  90D8               	bcf	status,0,c
  1922   0028A0  3204               	rrcf	(___lwmod@divisor+1)^0,f,c
  1923   0028A2  3203               	rrcf	___lwmod@divisor^0,f,c
  1924   0028A4  2E05               	decfsz	___lwmod@counter^0,f,c
  1925   0028A6  EF40  F014         	goto	l1944
  1926   0028AA                     l1058:
  1927   0028AA  C001  F001         	movff	___lwmod@dividend,?___lwmod
  1928   0028AE  C002  F002         	movff	___lwmod@dividend+1,?___lwmod+1
  1929   0028B2  0012               	return		;funcret
  1930   0028B4                     __end_of___lwmod:
  1931                           	callstack 0
  1932                           
  1933 ;; *************** function ___lwdiv *****************
  1934 ;; Defined at:
  1935 ;;		line 7 in file "C:\Program Files\Microchip\xc8\v2.46\pic\sources\c99\common\lwdiv.c"
  1936 ;; Parameters:    Size  Location     Type
  1937 ;;  dividend        2    0[COMRAM] unsigned int 
  1938 ;;  divisor         2    2[COMRAM] unsigned int 
  1939 ;; Auto vars:     Size  Location     Type
  1940 ;;  quotient        2    4[COMRAM] unsigned int 
  1941 ;;  counter         1    6[COMRAM] unsigned char 
  1942 ;; Return value:  Size  Location     Type
  1943 ;;                  2    0[COMRAM] unsigned int 
  1944 ;; Registers used:
  1945 ;;		wreg, status,2, status,0
  1946 ;; Tracked objects:
  1947 ;;		On entry : 0/0
  1948 ;;		On exit  : 0/0
  1949 ;;		Unchanged: 0/0
  1950 ;; Data sizes:     COMRAM   BANK0   BANK1   BANK2   BANK3   BANK4   BANK5   BANK6   BANK7   BANK8   BANK9  BANK10  BANK1
      +1  BANK12  BANK13  BANK14  BANK15  BANK16  BANK17  BANK18  BANK19  BANK20  BANK21  BANK22  BANK23  BANK24  BANK25  BANK2
      +6  BANK27  BANK28  BANK29  BANK30  BANK31
  1951 ;;      Params:         4       0       0       0       0       0       0       0       0       0       0       0       
      +0       0       0       0       0       0       0       0       0       0       0       0       0       0       0       
      +0       0       0       0       0       0
  1952 ;;      Locals:         3       0       0       0       0       0       0       0       0       0       0       0       
      +0       0       0       0       0       0       0       0       0       0       0       0       0       0       0       
      +0       0       0       0       0       0
  1953 ;;      Temps:          0       0       0       0       0       0       0       0       0       0       0       0       
      +0       0       0       0       0       0       0       0       0       0       0       0       0       0       0       
      +0       0       0       0       0       0
  1954 ;;      Totals:         7       0       0       0       0       0       0       0       0       0       0       0       
      +0       0       0       0       0       0       0       0       0       0       0       0       0       0       0       
      +0       0       0       0       0       0
  1955 ;;Total ram usage:        7 bytes
  1956 ;; Hardware stack levels used: 1
  1957 ;; This function calls:
  1958 ;;		Nothing
  1959 ;; This function is called by:
  1960 ;;		_vfpfcnvrt
  1961 ;; This function uses a non-reentrant model
  1962 ;;
  1963                           
  1964                           	psect	text9
  1965   00276A                     __ptext9:
  1966                           	callstack 0
  1967   00276A                     ___lwdiv:
  1968                           	callstack 26
  1969   00276A  0E00               	movlw	0
  1970   00276C  6E06               	movwf	(___lwdiv@quotient+1)^0,c
  1971   00276E  0E00               	movlw	0
  1972   002770  6E05               	movwf	___lwdiv@quotient^0,c
  1973   002772  5003               	movf	___lwdiv@divisor^0,w,c
  1974   002774  1004               	iorwf	(___lwdiv@divisor+1)^0,w,c
  1975   002776  B4D8               	btfsc	status,2,c
  1976   002778  EFC0  F013         	goto	u761
  1977   00277C  EFC2  F013         	goto	u760
  1978   002780                     u761:
  1979   002780  EFEA  F013         	goto	l1048
  1980   002784                     u760:
  1981   002784  0E01               	movlw	1
  1982   002786  6E07               	movwf	___lwdiv@counter^0,c
  1983   002788  EFCA  F013         	goto	l1922
  1984   00278C                     l1920:
  1985   00278C  90D8               	bcf	status,0,c
  1986   00278E  3603               	rlcf	___lwdiv@divisor^0,f,c
  1987   002790  3604               	rlcf	(___lwdiv@divisor+1)^0,f,c
  1988   002792  2A07               	incf	___lwdiv@counter^0,f,c
  1989   002794                     l1922:
  1990   002794  AE04               	btfss	(___lwdiv@divisor+1)^0,7,c
  1991   002796  EFCF  F013         	goto	u771
  1992   00279A  EFD1  F013         	goto	u770
  1993   00279E                     u771:
  1994   00279E  EFC6  F013         	goto	l1920
  1995   0027A2                     u770:
  1996   0027A2                     l1924:
  1997   0027A2  90D8               	bcf	status,0,c
  1998   0027A4  3605               	rlcf	___lwdiv@quotient^0,f,c
  1999   0027A6  3606               	rlcf	(___lwdiv@quotient+1)^0,f,c
  2000   0027A8  5003               	movf	___lwdiv@divisor^0,w,c
  2001   0027AA  5C01               	subwf	___lwdiv@dividend^0,w,c
  2002   0027AC  5004               	movf	(___lwdiv@divisor+1)^0,w,c
  2003   0027AE  5802               	subwfb	(___lwdiv@dividend+1)^0,w,c
  2004   0027B0  A0D8               	btfss	status,0,c
  2005   0027B2  EFDD  F013         	goto	u781
  2006   0027B6  EFDF  F013         	goto	u780
  2007   0027BA                     u781:
  2008   0027BA  EFE4  F013         	goto	l1932
  2009   0027BE                     u780:
  2010   0027BE  5003               	movf	___lwdiv@divisor^0,w,c
  2011   0027C0  5E01               	subwf	___lwdiv@dividend^0,f,c
  2012   0027C2  5004               	movf	(___lwdiv@divisor+1)^0,w,c
  2013   0027C4  5A02               	subwfb	(___lwdiv@dividend+1)^0,f,c
  2014   0027C6  8005               	bsf	___lwdiv@quotient^0,0,c
  2015   0027C8                     l1932:
  2016   0027C8  90D8               	bcf	status,0,c
  2017   0027CA  3204               	rrcf	(___lwdiv@divisor+1)^0,f,c
  2018   0027CC  3203               	rrcf	___lwdiv@divisor^0,f,c
  2019   0027CE  2E07               	decfsz	___lwdiv@counter^0,f,c
  2020   0027D0  EFD1  F013         	goto	l1924
  2021   0027D4                     l1048:
  2022   0027D4  C005  F001         	movff	___lwdiv@quotient,?___lwdiv
  2023   0027D8  C006  F002         	movff	___lwdiv@quotient+1,?___lwdiv+1
  2024   0027DC  0012               	return		;funcret
  2025   0027DE                     __end_of___lwdiv:
  2026                           	callstack 0
  2027                           
  2028 ;; *************** function _UART2_Read *****************
  2029 ;; Defined at:
  2030 ;;		line 266 in file "mcc_generated_files/uart/src/uart2.c"
  2031 ;; Parameters:    Size  Location     Type
  2032 ;;		None
  2033 ;; Auto vars:     Size  Location     Type
  2034 ;;		None
  2035 ;; Return value:  Size  Location     Type
  2036 ;;                  1    wreg      unsigned char 
  2037 ;; Registers used:
  2038 ;;		wreg, status,2
  2039 ;; Tracked objects:
  2040 ;;		On entry : 0/0
  2041 ;;		On exit  : 0/0
  2042 ;;		Unchanged: 0/0
  2043 ;; Data sizes:     COMRAM   BANK0   BANK1   BANK2   BANK3   BANK4   BANK5   BANK6   BANK7   BANK8   BANK9  BANK10  BANK1
      +1  BANK12  BANK13  BANK14  BANK15  BANK16  BANK17  BANK18  BANK19  BANK20  BANK21  BANK22  BANK23  BANK24  BANK25  BANK2
      +6  BANK27  BANK28  BANK29  BANK30  BANK31
  2044 ;;      Params:         0       0       0       0       0       0       0       0       0       0       0       0       
      +0       0       0       0       0       0       0       0       0       0       0       0       0       0       0       
      +0       0       0       0       0       0
  2045 ;;      Locals:         0       0       0       0       0       0       0       0       0       0       0       0       
      +0       0       0       0       0       0       0       0       0       0       0       0       0       0       0       
      +0       0       0       0       0       0
  2046 ;;      Temps:          0       0       0       0       0       0       0       0       0       0       0       0       
      +0       0       0       0       0       0       0       0       0       0       0       0       0       0       0       
      +0       0       0       0       0       0
  2047 ;;      Totals:         0       0       0       0       0       0       0       0       0       0       0       0       
      +0       0       0       0       0       0       0       0       0       0       0       0       0       0       0       
      +0       0       0       0       0       0
  2048 ;;Total ram usage:        0 bytes
  2049 ;; Hardware stack levels used: 1
  2050 ;; This function calls:
  2051 ;;		Nothing
  2052 ;; This function is called by:
  2053 ;;		_getch
  2054 ;;		_read
  2055 ;; This function uses a non-reentrant model
  2056 ;;
  2057                           
  2058                           	psect	text10
  2059   002BF2                     __ptext10:
  2060                           	callstack 0
  2061   002BF2                     _UART2_Read:
  2062                           	callstack 29
  2063   002BF2                     
  2064                           ;mcc_generated_files/uart/src/uart2.c: 268:     return U2RXB;
  2065   002BF2  013D               	movlb	61	; () banked
  2066   002BF4  51D0               	movf	208,w,b	;volatile
  2067   002BF6                     
  2068                           ; BSR set to: 61
  2069   002BF6  0012               	return		;funcret
  2070   002BF8                     __end_of_UART2_Read:
  2071                           	callstack 0
  2072                           
  2073 ;; *************** function _UART2_IsRxReady *****************
  2074 ;; Defined at:
  2075 ;;		line 227 in file "mcc_generated_files/uart/src/uart2.c"
  2076 ;; Parameters:    Size  Location     Type
  2077 ;;		None
  2078 ;; Auto vars:     Size  Location     Type
  2079 ;;		None
  2080 ;; Return value:  Size  Location     Type
  2081 ;;                  1    wreg      _Bool 
  2082 ;; Registers used:
  2083 ;;		wreg
  2084 ;; Tracked objects:
  2085 ;;		On entry : 0/0
  2086 ;;		On exit  : 0/0
  2087 ;;		Unchanged: 0/0
  2088 ;; Data sizes:     COMRAM   BANK0   BANK1   BANK2   BANK3   BANK4   BANK5   BANK6   BANK7   BANK8   BANK9  BANK10  BANK1
      +1  BANK12  BANK13  BANK14  BANK15  BANK16  BANK17  BANK18  BANK19  BANK20  BANK21  BANK22  BANK23  BANK24  BANK25  BANK2
      +6  BANK27  BANK28  BANK29  BANK30  BANK31
  2089 ;;      Params:         0       0       0       0       0       0       0       0       0       0       0       0       
      +0       0       0       0       0       0       0       0       0       0       0       0       0       0       0       
      +0       0       0       0       0       0
  2090 ;;      Locals:         0       0       0       0       0       0       0       0       0       0       0       0       
      +0       0       0       0       0       0       0       0       0       0       0       0       0       0       0       
      +0       0       0       0       0       0
  2091 ;;      Temps:          0       0       0       0       0       0       0       0       0       0       0       0       
      +0       0       0       0       0       0       0       0       0       0       0       0       0       0       0       
      +0       0       0       0       0       0
  2092 ;;      Totals:         0       0       0       0       0       0       0       0       0       0       0       0       
      +0       0       0       0       0       0       0       0       0       0       0       0       0       0       0       
      +0       0       0       0       0       0
  2093 ;;Total ram usage:        0 bytes
  2094 ;; Hardware stack levels used: 1
  2095 ;; This function calls:
  2096 ;;		Nothing
  2097 ;; This function is called by:
  2098 ;;		_getch
  2099 ;;		_read
  2100 ;; This function uses a non-reentrant model
  2101 ;;
  2102                           
  2103                           	psect	text11
  2104   002B8E                     __ptext11:
  2105                           	callstack 0
  2106   002B8E                     _UART2_IsRxReady:
  2107                           	callstack 29
  2108   002B8E                     
  2109                           ;mcc_generated_files/uart/src/uart2.c: 229:     return (_Bool)(!U2FIFObits.RXBE);
  2110   002B8E  013D               	movlb	61	; () banked
  2111   002B90  A3DF               	btfss	223,1,b	;volatile
  2112   002B92  EFCD  F015         	goto	u281
  2113   002B96  EFD0  F015         	goto	u280
  2114   002B9A                     u281:
  2115   002B9A  0E01               	movlw	1
  2116   002B9C  EFD1  F015         	goto	u290
  2117   002BA0                     u280:
  2118   002BA0  0E00               	movlw	0
  2119   002BA2                     u290:
  2120   002BA2                     
  2121                           ; BSR set to: 61
  2122   002BA2  0012               	return		;funcret
  2123   002BA4                     __end_of_UART2_IsRxReady:
  2124                           	callstack 0
  2125                           
  2126 ;; *************** function _LCD_String_xy *****************
  2127 ;; Defined at:
  2128 ;;		line 84 in file "./LCD.h"
  2129 ;; Parameters:    Size  Location     Type
  2130 ;;  row             1    wreg     unsigned char 
  2131 ;;  pos             1    9[COMRAM] unsigned char 
  2132 ;;  msg             2   10[COMRAM] PTR const unsigned char 
  2133 ;;		 -> STR_6(3), read@data(20), STR_3(12), STR_2(7), 
  2134 ;;		 -> STR_1(9), 
  2135 ;; Auto vars:     Size  Location     Type
  2136 ;;  row             1   12[COMRAM] unsigned char 
  2137 ;;  location        1   13[COMRAM] unsigned char 
  2138 ;; Return value:  Size  Location     Type
  2139 ;;                  1    wreg      void 
  2140 ;; Registers used:
  2141 ;;		wreg, fsr0l, fsr0h, status,2, status,0, tblptrl, tblptrh, tblptru, cstack
  2142 ;; Tracked objects:
  2143 ;;		On entry : 0/0
  2144 ;;		On exit  : 0/0
  2145 ;;		Unchanged: 0/0
  2146 ;; Data sizes:     COMRAM   BANK0   BANK1   BANK2   BANK3   BANK4   BANK5   BANK6   BANK7   BANK8   BANK9  BANK10  BANK1
      +1  BANK12  BANK13  BANK14  BANK15  BANK16  BANK17  BANK18  BANK19  BANK20  BANK21  BANK22  BANK23  BANK24  BANK25  BANK2
      +6  BANK27  BANK28  BANK29  BANK30  BANK31
  2147 ;;      Params:         3       0       0       0       0       0       0       0       0       0       0       0       
      +0       0       0       0       0       0       0       0       0       0       0       0       0       0       0       
      +0       0       0       0       0       0
  2148 ;;      Locals:         2       0       0       0       0       0       0       0       0       0       0       0       
      +0       0       0       0       0       0       0       0       0       0       0       0       0       0       0       
      +0       0       0       0       0       0
  2149 ;;      Temps:          0       0       0       0       0       0       0       0       0       0       0       0       
      +0       0       0       0       0       0       0       0       0       0       0       0       0       0       0       
      +0       0       0       0       0       0
  2150 ;;      Totals:         5       0       0       0       0       0       0       0       0       0       0       0       
      +0       0       0       0       0       0       0       0       0       0       0       0       0       0       0       
      +0       0       0       0       0       0
  2151 ;;Total ram usage:        5 bytes
  2152 ;; Hardware stack levels used: 1
  2153 ;; Hardware stack levels required when called: 3
  2154 ;; This function calls:
  2155 ;;		_LCD_Command
  2156 ;;		_LCD_String
  2157 ;; This function is called by:
  2158 ;;		_main
  2159 ;;		_read
  2160 ;;		_Decision
  2161 ;; This function uses a non-reentrant model
  2162 ;;
  2163                           
  2164                           	psect	text12
  2165   0029CE                     __ptext12:
  2166                           	callstack 0
  2167   0029CE                     _LCD_String_xy:
  2168                           	callstack 26
  2169                           
  2170                           ; BSR set to: 61
  2171                           ;incstack = 0
  2172                           ;LCD_String_xy@row stored from wreg
  2173   0029CE  6E0D               	movwf	LCD_String_xy@row^0,c
  2174   0029D0                     
  2175                           ;./LCD.h: 87:     if(row<=1)
  2176   0029D0  0E02               	movlw	2
  2177   0029D2  600D               	cpfslt	LCD_String_xy@row^0,c
  2178   0029D4  EFEE  F014         	goto	u981
  2179   0029D8  EFF0  F014         	goto	u980
  2180   0029DC                     u981:
  2181   0029DC  EFF9  F014         	goto	l2102
  2182   0029E0                     u980:
  2183   0029E0                     
  2184                           ;./LCD.h: 88:     {;./LCD.h: 89:         location=(0x80) | ((pos) & 0x0f);
  2185   0029E0  500A               	movf	LCD_String_xy@pos^0,w,c
  2186   0029E2  0B0F               	andlw	15
  2187   0029E4  0980               	iorlw	128
  2188   0029E6  6E0E               	movwf	LCD_String_xy@location^0,c
  2189   0029E8                     
  2190                           ;./LCD.h: 90:         LCD_Command(location);
  2191   0029E8  500E               	movf	LCD_String_xy@location^0,w,c
  2192   0029EA  EC9F  F015         	call	_LCD_Command
  2193                           
  2194                           ;./LCD.h: 91:     }
  2195   0029EE  EF00  F015         	goto	l2106
  2196   0029F2                     l2102:
  2197                           
  2198                           ;./LCD.h: 93:     {;./LCD.h: 94:         location=(0xC0) | ((pos) & 0x0f);
  2199   0029F2  500A               	movf	LCD_String_xy@pos^0,w,c
  2200   0029F4  0B0F               	andlw	15
  2201   0029F6  09C0               	iorlw	192
  2202   0029F8  6E0E               	movwf	LCD_String_xy@location^0,c
  2203   0029FA                     
  2204                           ;./LCD.h: 95:         LCD_Command(location);
  2205   0029FA  500E               	movf	LCD_String_xy@location^0,w,c
  2206   0029FC  EC9F  F015         	call	_LCD_Command
  2207   002A00                     l2106:
  2208                           
  2209                           ;./LCD.h: 97:     LCD_String(msg);
  2210   002A00  C00B  F008         	movff	LCD_String_xy@msg,LCD_String@msg
  2211   002A04  C00C  F009         	movff	LCD_String_xy@msg+1,LCD_String@msg+1
  2212   002A08  ECEF  F013         	call	_LCD_String	;wreg free
  2213   002A0C  0012               	return		;funcret
  2214   002A0E                     __end_of_LCD_String_xy:
  2215                           	callstack 0
  2216                           
  2217 ;; *************** function _LCD_String *****************
  2218 ;; Defined at:
  2219 ;;		line 75 in file "./LCD.h"
  2220 ;; Parameters:    Size  Location     Type
  2221 ;;  msg             2    7[COMRAM] PTR const unsigned char 
  2222 ;;		 -> STR_6(3), read@data(20), STR_3(12), STR_2(7), 
  2223 ;;		 -> STR_1(9), 
  2224 ;; Auto vars:     Size  Location     Type
  2225 ;;		None
  2226 ;; Return value:  Size  Location     Type
  2227 ;;                  1    wreg      void 
  2228 ;; Registers used:
  2229 ;;		wreg, fsr0l, fsr0h, status,2, status,0, tblptrl, tblptrh, tblptru, cstack
  2230 ;; Tracked objects:
  2231 ;;		On entry : 0/0
  2232 ;;		On exit  : 0/0
  2233 ;;		Unchanged: 0/0
  2234 ;; Data sizes:     COMRAM   BANK0   BANK1   BANK2   BANK3   BANK4   BANK5   BANK6   BANK7   BANK8   BANK9  BANK10  BANK1
      +1  BANK12  BANK13  BANK14  BANK15  BANK16  BANK17  BANK18  BANK19  BANK20  BANK21  BANK22  BANK23  BANK24  BANK25  BANK2
      +6  BANK27  BANK28  BANK29  BANK30  BANK31
  2235 ;;      Params:         2       0       0       0       0       0       0       0       0       0       0       0       
      +0       0       0       0       0       0       0       0       0       0       0       0       0       0       0       
      +0       0       0       0       0       0
  2236 ;;      Locals:         0       0       0       0       0       0       0       0       0       0       0       0       
      +0       0       0       0       0       0       0       0       0       0       0       0       0       0       0       
      +0       0       0       0       0       0
  2237 ;;      Temps:          0       0       0       0       0       0       0       0       0       0       0       0       
      +0       0       0       0       0       0       0       0       0       0       0       0       0       0       0       
      +0       0       0       0       0       0
  2238 ;;      Totals:         2       0       0       0       0       0       0       0       0       0       0       0       
      +0       0       0       0       0       0       0       0       0       0       0       0       0       0       0       
      +0       0       0       0       0       0
  2239 ;;Total ram usage:        2 bytes
  2240 ;; Hardware stack levels used: 1
  2241 ;; Hardware stack levels required when called: 2
  2242 ;; This function calls:
  2243 ;;		_LCD_Char
  2244 ;; This function is called by:
  2245 ;;		_LCD_String_xy
  2246 ;; This function uses a non-reentrant model
  2247 ;;
  2248                           
  2249                           	psect	text13
  2250   0027DE                     __ptext13:
  2251                           	callstack 0
  2252   0027DE                     _LCD_String:
  2253                           	callstack 26
  2254   0027DE                     
  2255                           ;./LCD.h: 75: void LCD_String(const char *msg);./LCD.h: 76: {;./LCD.h: 77:     while((*m
      +                          sg)!=0)
  2256   0027DE  EF0A  F014         	goto	l2060
  2257   0027E2                     l2056:
  2258                           
  2259                           ;./LCD.h: 78:     {;./LCD.h: 79:       LCD_Char(*msg);
  2260   0027E2  0060  F023  FFF6   	movff	LCD_String@msg,tblptrl
  2261   0027E8  0060  F027  FFF7   	movff	LCD_String@msg+1,tblptrh
  2262   0027EE  0E00               	movlw	low (__smallconst shr (0+16))
  2263   0027F0  6EF8               	movwf	tblptru,c
  2264   0027F2  0E1F               	movlw	(high __ramtop+-1)
  2265   0027F4  64F7               	cpfsgt	tblptrh,c
  2266   0027F6  D003               	bra	u947
  2267   0027F8  0008               	tblrd		*
  2268   0027FA  50F5               	movf	tablat,w,c
  2269   0027FC  D007               	bra	u940
  2270   0027FE                     u947:
  2271   0027FE  006F FFDB FFE9     	movff	tblptrl,fsr0l
  2272   002804  006F FFDF FFEA     	movff	tblptrh,fsr0h
  2273   00280A  50EF               	movf	indf0,w,c
  2274   00280C                     u940:
  2275   00280C  EC90  F015         	call	_LCD_Char
  2276   002810                     
  2277                           ;./LCD.h: 80:       msg++;
  2278   002810  4A08               	infsnz	LCD_String@msg^0,f,c
  2279   002812  2A09               	incf	(LCD_String@msg+1)^0,f,c
  2280   002814                     l2060:
  2281                           
  2282                           ;./LCD.h: 77:     while((*msg)!=0)
  2283   002814  0060  F023  FFF6   	movff	LCD_String@msg,tblptrl
  2284   00281A  0060  F027  FFF7   	movff	LCD_String@msg+1,tblptrh
  2285   002820  0E00               	movlw	low (__smallconst shr (0+16))
  2286   002822  6EF8               	movwf	tblptru,c
  2287   002824  0E1F               	movlw	(high __ramtop+-1)
  2288   002826  64F7               	cpfsgt	tblptrh,c
  2289   002828  D003               	bra	u957
  2290   00282A  0008               	tblrd		*
  2291   00282C  50F5               	movf	tablat,w,c
  2292   00282E  D007               	bra	u950
  2293   002830                     u957:
  2294   002830  006F FFDB FFE9     	movff	tblptrl,fsr0l
  2295   002836  006F FFDF FFEA     	movff	tblptrh,fsr0h
  2296   00283C  50EF               	movf	indf0,w,c
  2297   00283E                     u950:
  2298   00283E  0900               	iorlw	0
  2299   002840  A4D8               	btfss	status,2,c
  2300   002842  EF25  F014         	goto	u961
  2301   002846  EF27  F014         	goto	u960
  2302   00284A                     u961:
  2303   00284A  EFF1  F013         	goto	l2056
  2304   00284E                     u960:
  2305   00284E  0012               	return		;funcret
  2306   002850                     __end_of_LCD_String:
  2307                           	callstack 0
  2308                           
  2309 ;; *************** function _LCD_Char *****************
  2310 ;; Defined at:
  2311 ;;		line 64 in file "./LCD.h"
  2312 ;; Parameters:    Size  Location     Type
  2313 ;;  dat             1    wreg     unsigned char 
  2314 ;; Auto vars:     Size  Location     Type
  2315 ;;  dat             1    6[COMRAM] unsigned char 
  2316 ;; Return value:  Size  Location     Type
  2317 ;;                  1    wreg      void 
  2318 ;; Registers used:
  2319 ;;		wreg, status,2, status,0, cstack
  2320 ;; Tracked objects:
  2321 ;;		On entry : 0/0
  2322 ;;		On exit  : 0/0
  2323 ;;		Unchanged: 0/0
  2324 ;; Data sizes:     COMRAM   BANK0   BANK1   BANK2   BANK3   BANK4   BANK5   BANK6   BANK7   BANK8   BANK9  BANK10  BANK1
      +1  BANK12  BANK13  BANK14  BANK15  BANK16  BANK17  BANK18  BANK19  BANK20  BANK21  BANK22  BANK23  BANK24  BANK25  BANK2
      +6  BANK27  BANK28  BANK29  BANK30  BANK31
  2325 ;;      Params:         0       0       0       0       0       0       0       0       0       0       0       0       
      +0       0       0       0       0       0       0       0       0       0       0       0       0       0       0       
      +0       0       0       0       0       0
  2326 ;;      Locals:         1       0       0       0       0       0       0       0       0       0       0       0       
      +0       0       0       0       0       0       0       0       0       0       0       0       0       0       0       
      +0       0       0       0       0       0
  2327 ;;      Temps:          0       0       0       0       0       0       0       0       0       0       0       0       
      +0       0       0       0       0       0       0       0       0       0       0       0       0       0       0       
      +0       0       0       0       0       0
  2328 ;;      Totals:         1       0       0       0       0       0       0       0       0       0       0       0       
      +0       0       0       0       0       0       0       0       0       0       0       0       0       0       0       
      +0       0       0       0       0       0
  2329 ;;Total ram usage:        1 bytes
  2330 ;; Hardware stack levels used: 1
  2331 ;; Hardware stack levels required when called: 1
  2332 ;; This function calls:
  2333 ;;		_MSdelay
  2334 ;; This function is called by:
  2335 ;;		_LCD_String
  2336 ;; This function uses a non-reentrant model
  2337 ;;
  2338                           
  2339                           	psect	text14
  2340   002B20                     __ptext14:
  2341                           	callstack 0
  2342   002B20                     _LCD_Char:
  2343                           	callstack 26
  2344                           
  2345                           ;incstack = 0
  2346                           ;LCD_Char@dat stored from wreg
  2347   002B20  6E07               	movwf	LCD_Char@dat^0,c
  2348   002B22                     
  2349                           ;./LCD.h: 64: void LCD_Char(char dat);./LCD.h: 65: {;./LCD.h: 66:     LATB= dat;
  2350   002B22  0060  F01F  FFBB   	movff	LCD_Char@dat,16315	;volatile
  2351   002B28                     
  2352                           ;./LCD.h: 67:     LATA0 = 1;
  2353   002B28  80BA               	bsf	16314,0,c	;volatile
  2354   002B2A                     
  2355                           ;./LCD.h: 68:     LATA1=1;
  2356   002B2A  82BA               	bsf	16314,1,c	;volatile
  2357   002B2C                     
  2358                           ;./LCD.h: 69:     __nop();
  2359   002B2C  0000               	nop	
  2360   002B2E                     
  2361                           ;./LCD.h: 70:     LATA1=0;
  2362   002B2E  92BA               	bcf	16314,1,c	;volatile
  2363   002B30                     
  2364                           ;./LCD.h: 71:     MSdelay(1);
  2365   002B30  0E00               	movlw	0
  2366   002B32  6E02               	movwf	(MSdelay@val+1)^0,c
  2367   002B34  0E01               	movlw	1
  2368   002B36  6E01               	movwf	MSdelay@val^0,c
  2369   002B38  EC5A  F014         	call	_MSdelay	;wreg free
  2370   002B3C  0012               	return		;funcret
  2371   002B3E                     __end_of_LCD_Char:
  2372                           	callstack 0
  2373                           
  2374 ;; *************** function _UART2_ReceiveEnable *****************
  2375 ;; Defined at:
  2376 ;;		line 174 in file "mcc_generated_files/uart/src/uart2.c"
  2377 ;; Parameters:    Size  Location     Type
  2378 ;;		None
  2379 ;; Auto vars:     Size  Location     Type
  2380 ;;		None
  2381 ;; Return value:  Size  Location     Type
  2382 ;;                  1    wreg      void 
  2383 ;; Registers used:
  2384 ;;		None
  2385 ;; Tracked objects:
  2386 ;;		On entry : 0/0
  2387 ;;		On exit  : 0/0
  2388 ;;		Unchanged: 0/0
  2389 ;; Data sizes:     COMRAM   BANK0   BANK1   BANK2   BANK3   BANK4   BANK5   BANK6   BANK7   BANK8   BANK9  BANK10  BANK1
      +1  BANK12  BANK13  BANK14  BANK15  BANK16  BANK17  BANK18  BANK19  BANK20  BANK21  BANK22  BANK23  BANK24  BANK25  BANK2
      +6  BANK27  BANK28  BANK29  BANK30  BANK31
  2390 ;;      Params:         0       0       0       0       0       0       0       0       0       0       0       0       
      +0       0       0       0       0       0       0       0       0       0       0       0       0       0       0       
      +0       0       0       0       0       0
  2391 ;;      Locals:         0       0       0       0       0       0       0       0       0       0       0       0       
      +0       0       0       0       0       0       0       0       0       0       0       0       0       0       0       
      +0       0       0       0       0       0
  2392 ;;      Temps:          0       0       0       0       0       0       0       0       0       0       0       0       
      +0       0       0       0       0       0       0       0       0       0       0       0       0       0       0       
      +0       0       0       0       0       0
  2393 ;;      Totals:         0       0       0       0       0       0       0       0       0       0       0       0       
      +0       0       0       0       0       0       0       0       0       0       0       0       0       0       0       
      +0       0       0       0       0       0
  2394 ;;Total ram usage:        0 bytes
  2395 ;; Hardware stack levels used: 1
  2396 ;; This function calls:
  2397 ;;		Nothing
  2398 ;; This function is called by:
  2399 ;;		_main
  2400 ;; This function uses a non-reentrant model
  2401 ;;
  2402                           
  2403                           	psect	text15
  2404   002BF8                     __ptext15:
  2405                           	callstack 0
  2406   002BF8                     _UART2_ReceiveEnable:
  2407                           	callstack 30
  2408   002BF8                     
  2409                           ;mcc_generated_files/uart/src/uart2.c: 176:     U2CON0bits.RXEN = 1;
  2410   002BF8  013D               	movlb	61	; () banked
  2411   002BFA  89DA               	bsf	218,4,b	;volatile
  2412   002BFC                     
  2413                           ; BSR set to: 61
  2414   002BFC  0012               	return		;funcret
  2415   002BFE                     __end_of_UART2_ReceiveEnable:
  2416                           	callstack 0
  2417                           
  2418 ;; *************** function _TF_Luna_Trigger *****************
  2419 ;; Defined at:
  2420 ;;		line 171 in file "main.c"
  2421 ;; Parameters:    Size  Location     Type
  2422 ;;  header          1    wreg     unsigned char 
  2423 ;;  length          1    1[COMRAM] unsigned char 
  2424 ;;  id              1    2[COMRAM] unsigned char 
  2425 ;;  payload         1    3[COMRAM] unsigned char 
  2426 ;; Auto vars:     Size  Location     Type
  2427 ;;  header          1   10[COMRAM] unsigned char 
  2428 ;;  bytes           6    4[COMRAM] unsigned char [6]
  2429 ;;  bytes_sent      1   11[COMRAM] unsigned char 
  2430 ;; Return value:  Size  Location     Type
  2431 ;;                  1    wreg      void 
  2432 ;; Registers used:
  2433 ;;		wreg, fsr2l, fsr2h, status,2, status,0, pcl, pclath, pclatu, tosl, tblptrl, tblptrh, tblptru, cstack
  2434 ;; Tracked objects:
  2435 ;;		On entry : 0/0
  2436 ;;		On exit  : 0/0
  2437 ;;		Unchanged: 0/0
  2438 ;; Data sizes:     COMRAM   BANK0   BANK1   BANK2   BANK3   BANK4   BANK5   BANK6   BANK7   BANK8   BANK9  BANK10  BANK1
      +1  BANK12  BANK13  BANK14  BANK15  BANK16  BANK17  BANK18  BANK19  BANK20  BANK21  BANK22  BANK23  BANK24  BANK25  BANK2
      +6  BANK27  BANK28  BANK29  BANK30  BANK31
  2439 ;;      Params:         3       0       0       0       0       0       0       0       0       0       0       0       
      +0       0       0       0       0       0       0       0       0       0       0       0       0       0       0       
      +0       0       0       0       0       0
  2440 ;;      Locals:         8       0       0       0       0       0       0       0       0       0       0       0       
      +0       0       0       0       0       0       0       0       0       0       0       0       0       0       0       
      +0       0       0       0       0       0
  2441 ;;      Temps:          0       0       0       0       0       0       0       0       0       0       0       0       
      +0       0       0       0       0       0       0       0       0       0       0       0       0       0       0       
      +0       0       0       0       0       0
  2442 ;;      Totals:        11       0       0       0       0       0       0       0       0       0       0       0       
      +0       0       0       0       0       0       0       0       0       0       0       0       0       0       0       
      +0       0       0       0       0       0
  2443 ;;Total ram usage:       11 bytes
  2444 ;; Hardware stack levels used: 1
  2445 ;; Hardware stack levels required when called: 1
  2446 ;; This function calls:
  2447 ;;		_UART2_IsTxReady
  2448 ;;		_UART2_Write
  2449 ;; This function is called by:
  2450 ;;		_main
  2451 ;; This function uses a non-reentrant model
  2452 ;;
  2453                           
  2454                           	psect	text16
  2455   0025BE                     __ptext16:
  2456                           	callstack 0
  2457   0025BE                     _TF_Luna_Trigger:
  2458                           	callstack 29
  2459                           
  2460                           ; BSR set to: 61
  2461                           ;incstack = 0
  2462                           ;TF_Luna_Trigger@header stored from wreg
  2463   0025BE  6E0B               	movwf	TF_Luna_Trigger@header^0,c
  2464   0025C0                     
  2465                           ;main.c: 172:     uint8_t bytes[6];;main.c: 173:     char bytes_sent = 0;
  2466   0025C0  0E00               	movlw	0
  2467   0025C2  6E0C               	movwf	TF_Luna_Trigger@bytes_sent^0,c
  2468   0025C4                     
  2469                           ;main.c: 175:     bytes[0] = header;
  2470   0025C4  C00B  F005         	movff	TF_Luna_Trigger@header,TF_Luna_Trigger@bytes
  2471   0025C8                     
  2472                           ;main.c: 176:     bytes[1] = length;
  2473   0025C8  C002  F006         	movff	TF_Luna_Trigger@length,TF_Luna_Trigger@bytes+1
  2474   0025CC                     
  2475                           ;main.c: 177:     bytes[2] = id;
  2476   0025CC  C003  F007         	movff	TF_Luna_Trigger@id,TF_Luna_Trigger@bytes+2
  2477   0025D0                     
  2478                           ;main.c: 178:     bytes[3] = payload;
  2479   0025D0  C004  F008         	movff	TF_Luna_Trigger@payload,TF_Luna_Trigger@bytes+3
  2480                           
  2481                           ;main.c: 180:     while(bytes_sent < 4){
  2482   0025D4  EF26  F013         	goto	l2178
  2483   0025D8                     l2172:
  2484                           
  2485                           ;main.c: 181:         if (UART2.IsTxReady()) {
  2486   0025D8  0E10               	movlw	low (_UART2+15)
  2487   0025DA  6EF6               	movwf	tblptrl,c
  2488   0025DC                     	if	1	;There is more than 1 active tblptr byte
  2489   0025DC  0E20               	movlw	high __smallconst
  2490   0025DE  6EF7               	movwf	tblptrh,c
  2491   0025E0                     	endif
  2492   0025E0                     	if	0	;tblptru may be non-zero
  2493   0025E0                     	endif
  2494   0025E0                     	if	1	;Program memory is > 0xFFFF, there are 3 active tblptr bytes
  2495   0025E0  0E00               	movlw	low (__smallconst shr (0+16))
  2496   0025E2  6EF8               	movwf	tblptru,c
  2497   0025E4                     	endif
  2498   0025E4  D802               	call	u1038
  2499   0025E6  EF02  F013         	goto	u1039
  2500   0025EA                     u1038:
  2501   0025EA  0005               	push	
  2502   0025EC  6EFA               	movwf	pclath,c
  2503   0025EE  0009               	tblrd		*+
  2504   0025F0  50F5               	movf	tablat,w,c
  2505   0025F2  6EFD               	movwf	tosl,c
  2506   0025F4  0009               	tblrd		*+
  2507   0025F6  50F5               	movf	tablat,w,c
  2508   0025F8  6EFE               	movwf	tosh,c
  2509   0025FA  0009               	tblrd		*+
  2510   0025FC  50F5               	movf	tablat,w,c
  2511   0025FE  6EFF               	movwf	tosu,c
  2512   002600  50FA               	movf	pclath,w,c
  2513   002602  0012               	return		;indir
  2514   002604                     u1039:
  2515   002604  0900               	iorlw	0
  2516   002606  B4D8               	btfsc	status,2,c
  2517   002608  EF08  F013         	goto	u1041
  2518   00260C  EF0A  F013         	goto	u1040
  2519   002610                     u1041:
  2520   002610  EF26  F013         	goto	l2178
  2521   002614                     u1040:
  2522   002614                     
  2523                           ;main.c: 182:             UART2.Write(bytes[bytes_sent]);
  2524   002614  0E0A               	movlw	low (_UART2+9)
  2525   002616  6EF6               	movwf	tblptrl,c
  2526   002618                     	if	1	;There is more than 1 active tblptr byte
  2527   002618  0E20               	movlw	high __smallconst
  2528   00261A  6EF7               	movwf	tblptrh,c
  2529   00261C                     	endif
  2530   00261C                     	if	0	;tblptru may be non-zero
  2531   00261C                     	endif
  2532   00261C                     	if	1	;Program memory is > 0xFFFF, there are 3 active tblptr bytes
  2533   00261C  0E00               	movlw	low (__smallconst shr (0+16))
  2534   00261E  6EF8               	movwf	tblptru,c
  2535   002620                     	endif
  2536   002620  D802               	call	u1058
  2537   002622  EF25  F013         	goto	u1059
  2538   002626                     u1058:
  2539   002626  0005               	push	
  2540   002628  6EFA               	movwf	pclath,c
  2541   00262A  0009               	tblrd		*+
  2542   00262C  50F5               	movf	tablat,w,c
  2543   00262E  6EFD               	movwf	tosl,c
  2544   002630  0009               	tblrd		*+
  2545   002632  50F5               	movf	tablat,w,c
  2546   002634  6EFE               	movwf	tosh,c
  2547   002636  0009               	tblrd		*+
  2548   002638  50F5               	movf	tablat,w,c
  2549   00263A  6EFF               	movwf	tosu,c
  2550   00263C  50FA               	movf	pclath,w,c
  2551   00263E  500C               	movf	TF_Luna_Trigger@bytes_sent^0,w,c
  2552   002640  0F05               	addlw	low TF_Luna_Trigger@bytes
  2553   002642  6ED9               	movwf	fsr2l,c
  2554   002644  6ADA               	clrf	fsr2h,c
  2555   002646  50DF               	movf	indf2,w,c
  2556   002648  0012               	return		;indir
  2557   00264A                     u1059:
  2558   00264A                     
  2559                           ;main.c: 183:             bytes_sent++;
  2560   00264A  2A0C               	incf	TF_Luna_Trigger@bytes_sent^0,f,c
  2561   00264C                     l2178:
  2562                           
  2563                           ;main.c: 180:     while(bytes_sent < 4){
  2564   00264C  0E03               	movlw	3
  2565   00264E  640C               	cpfsgt	TF_Luna_Trigger@bytes_sent^0,c
  2566   002650  EF2C  F013         	goto	u1061
  2567   002654  EF2E  F013         	goto	u1060
  2568   002658                     u1061:
  2569   002658  EFEC  F012         	goto	l2172
  2570   00265C                     u1060:
  2571   00265C  0012               	return		;funcret
  2572   00265E                     __end_of_TF_Luna_Trigger:
  2573                           	callstack 0
  2574                           
  2575 ;; *************** function _TF_Luna_Send_Freq *****************
  2576 ;; Defined at:
  2577 ;;		line 148 in file "main.c"
  2578 ;; Parameters:    Size  Location     Type
  2579 ;;  header          1    wreg     unsigned char 
  2580 ;;  length          1    1[COMRAM] unsigned char 
  2581 ;;  id              1    2[COMRAM] unsigned char 
  2582 ;;  freq            1    3[COMRAM] unsigned char 
  2583 ;;  freq_dec        1    4[COMRAM] unsigned char 
  2584 ;;  checksum        1    5[COMRAM] unsigned char 
  2585 ;; Auto vars:     Size  Location     Type
  2586 ;;  header          1   12[COMRAM] unsigned char 
  2587 ;;  bytes           6    6[COMRAM] unsigned char [6]
  2588 ;;  bytes_sent      1   13[COMRAM] unsigned char 
  2589 ;; Return value:  Size  Location     Type
  2590 ;;                  1    wreg      void 
  2591 ;; Registers used:
  2592 ;;		wreg, fsr2l, fsr2h, status,2, status,0, pcl, pclath, pclatu, tosl, tblptrl, tblptrh, tblptru, cstack
  2593 ;; Tracked objects:
  2594 ;;		On entry : 0/0
  2595 ;;		On exit  : 0/0
  2596 ;;		Unchanged: 0/0
  2597 ;; Data sizes:     COMRAM   BANK0   BANK1   BANK2   BANK3   BANK4   BANK5   BANK6   BANK7   BANK8   BANK9  BANK10  BANK1
      +1  BANK12  BANK13  BANK14  BANK15  BANK16  BANK17  BANK18  BANK19  BANK20  BANK21  BANK22  BANK23  BANK24  BANK25  BANK2
      +6  BANK27  BANK28  BANK29  BANK30  BANK31
  2598 ;;      Params:         5       0       0       0       0       0       0       0       0       0       0       0       
      +0       0       0       0       0       0       0       0       0       0       0       0       0       0       0       
      +0       0       0       0       0       0
  2599 ;;      Locals:         8       0       0       0       0       0       0       0       0       0       0       0       
      +0       0       0       0       0       0       0       0       0       0       0       0       0       0       0       
      +0       0       0       0       0       0
  2600 ;;      Temps:          0       0       0       0       0       0       0       0       0       0       0       0       
      +0       0       0       0       0       0       0       0       0       0       0       0       0       0       0       
      +0       0       0       0       0       0
  2601 ;;      Totals:        13       0       0       0       0       0       0       0       0       0       0       0       
      +0       0       0       0       0       0       0       0       0       0       0       0       0       0       0       
      +0       0       0       0       0       0
  2602 ;;Total ram usage:       13 bytes
  2603 ;; Hardware stack levels used: 1
  2604 ;; Hardware stack levels required when called: 1
  2605 ;; This function calls:
  2606 ;;		_UART2_IsTxReady
  2607 ;;		_UART2_Write
  2608 ;; This function is called by:
  2609 ;;		_main
  2610 ;; This function uses a non-reentrant model
  2611 ;;
  2612                           
  2613                           	psect	text17
  2614   002516                     __ptext17:
  2615                           	callstack 0
  2616   002516                     _TF_Luna_Send_Freq:
  2617                           	callstack 29
  2618                           
  2619                           ;incstack = 0
  2620                           ;TF_Luna_Send_Freq@header stored from wreg
  2621   002516  6E0D               	movwf	TF_Luna_Send_Freq@header^0,c
  2622   002518                     
  2623                           ;main.c: 149:     uint8_t bytes[6];;main.c: 152:     char bytes_sent = 0;
  2624   002518  0E00               	movlw	0
  2625   00251A  6E0E               	movwf	TF_Luna_Send_Freq@bytes_sent^0,c
  2626   00251C                     
  2627                           ;main.c: 153:     bytes[0] = header;
  2628   00251C  C00D  F007         	movff	TF_Luna_Send_Freq@header,TF_Luna_Send_Freq@bytes
  2629   002520                     
  2630                           ;main.c: 154:     bytes[1] = length;
  2631   002520  C002  F008         	movff	TF_Luna_Send_Freq@length,TF_Luna_Send_Freq@bytes+1
  2632   002524                     
  2633                           ;main.c: 155:     bytes[2] = id;
  2634   002524  C003  F009         	movff	TF_Luna_Send_Freq@id,TF_Luna_Send_Freq@bytes+2
  2635   002528                     
  2636                           ;main.c: 156:     bytes[3] = freq;
  2637   002528  C004  F00A         	movff	TF_Luna_Send_Freq@freq,TF_Luna_Send_Freq@bytes+3
  2638   00252C                     
  2639                           ;main.c: 157:     bytes[4] = freq_dec;
  2640   00252C  C005  F00B         	movff	TF_Luna_Send_Freq@freq_dec,TF_Luna_Send_Freq@bytes+4
  2641   002530                     
  2642                           ;main.c: 158:     bytes[5] = checksum;
  2643   002530  C006  F00C         	movff	TF_Luna_Send_Freq@checksum,TF_Luna_Send_Freq@bytes+5
  2644                           
  2645                           ;main.c: 161:     while(bytes_sent < 6){
  2646   002534  EFD6  F012         	goto	l2160
  2647   002538                     l2154:
  2648                           
  2649                           ;main.c: 162:         if (UART2.IsTxReady()) {
  2650   002538  0E10               	movlw	low (_UART2+15)
  2651   00253A  6EF6               	movwf	tblptrl,c
  2652   00253C                     	if	1	;There is more than 1 active tblptr byte
  2653   00253C  0E20               	movlw	high __smallconst
  2654   00253E  6EF7               	movwf	tblptrh,c
  2655   002540                     	endif
  2656   002540                     	if	0	;tblptru may be non-zero
  2657   002540                     	endif
  2658   002540                     	if	1	;Program memory is > 0xFFFF, there are 3 active tblptr bytes
  2659   002540  0E00               	movlw	low (__smallconst shr (0+16))
  2660   002542  6EF8               	movwf	tblptru,c
  2661   002544                     	endif
  2662   002544  D802               	call	u998
  2663   002546  EFB2  F012         	goto	u999
  2664   00254A                     u998:
  2665   00254A  0005               	push	
  2666   00254C  6EFA               	movwf	pclath,c
  2667   00254E  0009               	tblrd		*+
  2668   002550  50F5               	movf	tablat,w,c
  2669   002552  6EFD               	movwf	tosl,c
  2670   002554  0009               	tblrd		*+
  2671   002556  50F5               	movf	tablat,w,c
  2672   002558  6EFE               	movwf	tosh,c
  2673   00255A  0009               	tblrd		*+
  2674   00255C  50F5               	movf	tablat,w,c
  2675   00255E  6EFF               	movwf	tosu,c
  2676   002560  50FA               	movf	pclath,w,c
  2677   002562  0012               	return		;indir
  2678   002564                     u999:
  2679   002564  0900               	iorlw	0
  2680   002566  B4D8               	btfsc	status,2,c
  2681   002568  EFB8  F012         	goto	u1001
  2682   00256C  EFBA  F012         	goto	u1000
  2683   002570                     u1001:
  2684   002570  EFD6  F012         	goto	l2160
  2685   002574                     u1000:
  2686   002574                     
  2687                           ;main.c: 163:             UART2.Write(bytes[bytes_sent]);
  2688   002574  0E0A               	movlw	low (_UART2+9)
  2689   002576  6EF6               	movwf	tblptrl,c
  2690   002578                     	if	1	;There is more than 1 active tblptr byte
  2691   002578  0E20               	movlw	high __smallconst
  2692   00257A  6EF7               	movwf	tblptrh,c
  2693   00257C                     	endif
  2694   00257C                     	if	0	;tblptru may be non-zero
  2695   00257C                     	endif
  2696   00257C                     	if	1	;Program memory is > 0xFFFF, there are 3 active tblptr bytes
  2697   00257C  0E00               	movlw	low (__smallconst shr (0+16))
  2698   00257E  6EF8               	movwf	tblptru,c
  2699   002580                     	endif
  2700   002580  D802               	call	u1018
  2701   002582  EFD5  F012         	goto	u1019
  2702   002586                     u1018:
  2703   002586  0005               	push	
  2704   002588  6EFA               	movwf	pclath,c
  2705   00258A  0009               	tblrd		*+
  2706   00258C  50F5               	movf	tablat,w,c
  2707   00258E  6EFD               	movwf	tosl,c
  2708   002590  0009               	tblrd		*+
  2709   002592  50F5               	movf	tablat,w,c
  2710   002594  6EFE               	movwf	tosh,c
  2711   002596  0009               	tblrd		*+
  2712   002598  50F5               	movf	tablat,w,c
  2713   00259A  6EFF               	movwf	tosu,c
  2714   00259C  50FA               	movf	pclath,w,c
  2715   00259E  500E               	movf	TF_Luna_Send_Freq@bytes_sent^0,w,c
  2716   0025A0  0F07               	addlw	low TF_Luna_Send_Freq@bytes
  2717   0025A2  6ED9               	movwf	fsr2l,c
  2718   0025A4  6ADA               	clrf	fsr2h,c
  2719   0025A6  50DF               	movf	indf2,w,c
  2720   0025A8  0012               	return		;indir
  2721   0025AA                     u1019:
  2722   0025AA                     
  2723                           ;main.c: 164:             bytes_sent++;
  2724   0025AA  2A0E               	incf	TF_Luna_Send_Freq@bytes_sent^0,f,c
  2725   0025AC                     l2160:
  2726                           
  2727                           ;main.c: 161:     while(bytes_sent < 6){
  2728   0025AC  0E05               	movlw	5
  2729   0025AE  640E               	cpfsgt	TF_Luna_Send_Freq@bytes_sent^0,c
  2730   0025B0  EFDC  F012         	goto	u1021
  2731   0025B4  EFDE  F012         	goto	u1020
  2732   0025B8                     u1021:
  2733   0025B8  EF9C  F012         	goto	l2154
  2734   0025BC                     u1020:
  2735   0025BC  0012               	return		;funcret
  2736   0025BE                     __end_of_TF_Luna_Send_Freq:
  2737                           	callstack 0
  2738                           
  2739 ;; *************** function _UART2_Write *****************
  2740 ;; Defined at:
  2741 ;;		line 272 in file "mcc_generated_files/uart/src/uart2.c"
  2742 ;; Parameters:    Size  Location     Type
  2743 ;;  txData          1    wreg     unsigned char 
  2744 ;; Auto vars:     Size  Location     Type
  2745 ;;  txData          1    0[COMRAM] unsigned char 
  2746 ;; Return value:  Size  Location     Type
  2747 ;;                  1    wreg      void 
  2748 ;; Registers used:
  2749 ;;		wreg
  2750 ;; Tracked objects:
  2751 ;;		On entry : 0/0
  2752 ;;		On exit  : 0/0
  2753 ;;		Unchanged: 0/0
  2754 ;; Data sizes:     COMRAM   BANK0   BANK1   BANK2   BANK3   BANK4   BANK5   BANK6   BANK7   BANK8   BANK9  BANK10  BANK1
      +1  BANK12  BANK13  BANK14  BANK15  BANK16  BANK17  BANK18  BANK19  BANK20  BANK21  BANK22  BANK23  BANK24  BANK25  BANK2
      +6  BANK27  BANK28  BANK29  BANK30  BANK31
  2755 ;;      Params:         0       0       0       0       0       0       0       0       0       0       0       0       
      +0       0       0       0       0       0       0       0       0       0       0       0       0       0       0       
      +0       0       0       0       0       0
  2756 ;;      Locals:         1       0       0       0       0       0       0       0       0       0       0       0       
      +0       0       0       0       0       0       0       0       0       0       0       0       0       0       0       
      +0       0       0       0       0       0
  2757 ;;      Temps:          0       0       0       0       0       0       0       0       0       0       0       0       
      +0       0       0       0       0       0       0       0       0       0       0       0       0       0       0       
      +0       0       0       0       0       0
  2758 ;;      Totals:         1       0       0       0       0       0       0       0       0       0       0       0       
      +0       0       0       0       0       0       0       0       0       0       0       0       0       0       0       
      +0       0       0       0       0       0
  2759 ;;Total ram usage:        1 bytes
  2760 ;; Hardware stack levels used: 1
  2761 ;; This function calls:
  2762 ;;		Nothing
  2763 ;; This function is called by:
  2764 ;;		_putch
  2765 ;;		_TF_Luna_Send_Freq
  2766 ;;		_TF_Luna_Trigger
  2767 ;; This function uses a non-reentrant model
  2768 ;;
  2769                           
  2770                           	psect	text18
  2771   002BE0                     __ptext18:
  2772                           	callstack 0
  2773   002BE0                     _UART2_Write:
  2774                           	callstack 24
  2775                           
  2776                           ;incstack = 0
  2777                           ;UART2_Write@txData stored from wreg
  2778   002BE0  6E01               	movwf	UART2_Write@txData^0,c
  2779   002BE2                     
  2780                           ;mcc_generated_files/uart/src/uart2.c: 272: void UART2_Write(uint8_t txData);mcc_generat
      +                          ed_files/uart/src/uart2.c: 273: {;mcc_generated_files/uart/src/uart2.c: 274:     U2TXB =
      +                           txData;
  2781   002BE2  0060  F007  FDD2   	movff	UART2_Write@txData,15826	;volatile
  2782   002BE8  0012               	return		;funcret
  2783   002BEA                     __end_of_UART2_Write:
  2784                           	callstack 0
  2785                           
  2786 ;; *************** function _UART2_IsTxReady *****************
  2787 ;; Defined at:
  2788 ;;		line 232 in file "mcc_generated_files/uart/src/uart2.c"
  2789 ;; Parameters:    Size  Location     Type
  2790 ;;		None
  2791 ;; Auto vars:     Size  Location     Type
  2792 ;;		None
  2793 ;; Return value:  Size  Location     Type
  2794 ;;                  1    wreg      _Bool 
  2795 ;; Registers used:
  2796 ;;		wreg, status,2
  2797 ;; Tracked objects:
  2798 ;;		On entry : 0/0
  2799 ;;		On exit  : 0/0
  2800 ;;		Unchanged: 0/0
  2801 ;; Data sizes:     COMRAM   BANK0   BANK1   BANK2   BANK3   BANK4   BANK5   BANK6   BANK7   BANK8   BANK9  BANK10  BANK1
      +1  BANK12  BANK13  BANK14  BANK15  BANK16  BANK17  BANK18  BANK19  BANK20  BANK21  BANK22  BANK23  BANK24  BANK25  BANK2
      +6  BANK27  BANK28  BANK29  BANK30  BANK31
  2802 ;;      Params:         0       0       0       0       0       0       0       0       0       0       0       0       
      +0       0       0       0       0       0       0       0       0       0       0       0       0       0       0       
      +0       0       0       0       0       0
  2803 ;;      Locals:         1       0       0       0       0       0       0       0       0       0       0       0       
      +0       0       0       0       0       0       0       0       0       0       0       0       0       0       0       
      +0       0       0       0       0       0
  2804 ;;      Temps:          0       0       0       0       0       0       0       0       0       0       0       0       
      +0       0       0       0       0       0       0       0       0       0       0       0       0       0       0       
      +0       0       0       0       0       0
  2805 ;;      Totals:         1       0       0       0       0       0       0       0       0       0       0       0       
      +0       0       0       0       0       0       0       0       0       0       0       0       0       0       0       
      +0       0       0       0       0       0
  2806 ;;Total ram usage:        1 bytes
  2807 ;; Hardware stack levels used: 1
  2808 ;; This function calls:
  2809 ;;		Nothing
  2810 ;; This function is called by:
  2811 ;;		_putch
  2812 ;;		_TF_Luna_Send_Freq
  2813 ;;		_TF_Luna_Trigger
  2814 ;; This function uses a non-reentrant model
  2815 ;;
  2816                           
  2817                           	psect	text19
  2818   002A72                     __ptext19:
  2819                           	callstack 0
  2820   002A72                     _UART2_IsTxReady:
  2821                           	callstack 24
  2822   002A72                     
  2823                           ;mcc_generated_files/uart/src/uart2.c: 234:     return (_Bool)(U2FIFObits.TXBE && U2CON0
      +                          bits.TXEN);
  2824   002A72  0E00               	movlw	0
  2825   002A74  6E01               	movwf	_UART2_IsTxReady$832^0,c
  2826   002A76  013D               	movlb	61	; () banked
  2827   002A78  ABDF               	btfss	223,5,b	;volatile
  2828   002A7A  EF41  F015         	goto	u711
  2829   002A7E  EF43  F015         	goto	u710
  2830   002A82                     u711:
  2831   002A82  EF4C  F015         	goto	l352
  2832   002A86                     u710:
  2833   002A86                     
  2834                           ; BSR set to: 61
  2835   002A86  ABDA               	btfss	218,5,b	;volatile
  2836   002A88  EF48  F015         	goto	u721
  2837   002A8C  EF4A  F015         	goto	u720
  2838   002A90                     u721:
  2839   002A90  EF4C  F015         	goto	l352
  2840   002A94                     u720:
  2841   002A94                     
  2842                           ; BSR set to: 61
  2843   002A94  0E01               	movlw	1
  2844   002A96  6E01               	movwf	_UART2_IsTxReady$832^0,c
  2845   002A98                     l352:
  2846                           
  2847                           ; BSR set to: 61
  2848   002A98  5001               	movf	_UART2_IsTxReady$832^0,w,c
  2849   002A9A                     
  2850                           ; BSR set to: 61
  2851   002A9A  0012               	return		;funcret
  2852   002A9C                     __end_of_UART2_IsTxReady:
  2853                           	callstack 0
  2854                           
  2855 ;; *************** function _SYSTEM_Initialize *****************
  2856 ;; Defined at:
  2857 ;;		line 40 in file "mcc_generated_files/system/src/system.c"
  2858 ;; Parameters:    Size  Location     Type
  2859 ;;		None
  2860 ;; Auto vars:     Size  Location     Type
  2861 ;;		None
  2862 ;; Return value:  Size  Location     Type
  2863 ;;                  1    wreg      void 
  2864 ;; Registers used:
  2865 ;;		wreg, status,2, status,0, cstack
  2866 ;; Tracked objects:
  2867 ;;		On entry : 0/0
  2868 ;;		On exit  : 0/0
  2869 ;;		Unchanged: 0/0
  2870 ;; Data sizes:     COMRAM   BANK0   BANK1   BANK2   BANK3   BANK4   BANK5   BANK6   BANK7   BANK8   BANK9  BANK10  BANK1
      +1  BANK12  BANK13  BANK14  BANK15  BANK16  BANK17  BANK18  BANK19  BANK20  BANK21  BANK22  BANK23  BANK24  BANK25  BANK2
      +6  BANK27  BANK28  BANK29  BANK30  BANK31
  2871 ;;      Params:         0       0       0       0       0       0       0       0       0       0       0       0       
      +0       0       0       0       0       0       0       0       0       0       0       0       0       0       0       
      +0       0       0       0       0       0
  2872 ;;      Locals:         0       0       0       0       0       0       0       0       0       0       0       0       
      +0       0       0       0       0       0       0       0       0       0       0       0       0       0       0       
      +0       0       0       0       0       0
  2873 ;;      Temps:          0       0       0       0       0       0       0       0       0       0       0       0       
      +0       0       0       0       0       0       0       0       0       0       0       0       0       0       0       
      +0       0       0       0       0       0
  2874 ;;      Totals:         0       0       0       0       0       0       0       0       0       0       0       0       
      +0       0       0       0       0       0       0       0       0       0       0       0       0       0       0       
      +0       0       0       0       0       0
  2875 ;;Total ram usage:        0 bytes
  2876 ;; Hardware stack levels used: 1
  2877 ;; Hardware stack levels required when called: 2
  2878 ;; This function calls:
  2879 ;;		_CLOCK_Initialize
  2880 ;;		_INTERRUPT_Initialize
  2881 ;;		_PIN_MANAGER_Initialize
  2882 ;;		_UART2_Initialize
  2883 ;; This function is called by:
  2884 ;;		_main
  2885 ;; This function uses a non-reentrant model
  2886 ;;
  2887                           
  2888                           	psect	text20
  2889   002BA4                     __ptext20:
  2890                           	callstack 0
  2891   002BA4                     _SYSTEM_Initialize:
  2892                           	callstack 28
  2893   002BA4                     
  2894                           ;mcc_generated_files/system/src/system.c: 42:     CLOCK_Initialize();
  2895   002BA4  ECBB  F015         	call	_CLOCK_Initialize
  2896                           
  2897                           ;mcc_generated_files/system/src/system.c: 43:     PIN_MANAGER_Initialize();
  2898   002BA8  ECC9  F011         	call	_PIN_MANAGER_Initialize	;wreg free
  2899   002BAC                     
  2900                           ;mcc_generated_files/system/src/system.c: 44:     UART2_Initialize();
  2901   002BAC  EC7A  F013         	call	_UART2_Initialize	;wreg free
  2902   002BB0                     
  2903                           ;mcc_generated_files/system/src/system.c: 45:     INTERRUPT_Initialize();
  2904   002BB0  ECA3  F014         	call	_INTERRUPT_Initialize	;wreg free
  2905   002BB4  0012               	return		;funcret
  2906   002BB6                     __end_of_SYSTEM_Initialize:
  2907                           	callstack 0
  2908                           
  2909 ;; *************** function _UART2_Initialize *****************
  2910 ;; Defined at:
  2911 ;;		line 95 in file "mcc_generated_files/uart/src/uart2.c"
  2912 ;; Parameters:    Size  Location     Type
  2913 ;;		None
  2914 ;; Auto vars:     Size  Location     Type
  2915 ;;		None
  2916 ;; Return value:  Size  Location     Type
  2917 ;;                  1    wreg      void 
  2918 ;; Registers used:
  2919 ;;		wreg, status,2, status,0, cstack
  2920 ;; Tracked objects:
  2921 ;;		On entry : 0/0
  2922 ;;		On exit  : 0/0
  2923 ;;		Unchanged: 0/0
  2924 ;; Data sizes:     COMRAM   BANK0   BANK1   BANK2   BANK3   BANK4   BANK5   BANK6   BANK7   BANK8   BANK9  BANK10  BANK1
      +1  BANK12  BANK13  BANK14  BANK15  BANK16  BANK17  BANK18  BANK19  BANK20  BANK21  BANK22  BANK23  BANK24  BANK25  BANK2
      +6  BANK27  BANK28  BANK29  BANK30  BANK31
  2925 ;;      Params:         0       0       0       0       0       0       0       0       0       0       0       0       
      +0       0       0       0       0       0       0       0       0       0       0       0       0       0       0       
      +0       0       0       0       0       0
  2926 ;;      Locals:         0       0       0       0       0       0       0       0       0       0       0       0       
      +0       0       0       0       0       0       0       0       0       0       0       0       0       0       0       
      +0       0       0       0       0       0
  2927 ;;      Temps:          0       0       0       0       0       0       0       0       0       0       0       0       
      +0       0       0       0       0       0       0       0       0       0       0       0       0       0       0       
      +0       0       0       0       0       0
  2928 ;;      Totals:         0       0       0       0       0       0       0       0       0       0       0       0       
      +0       0       0       0       0       0       0       0       0       0       0       0       0       0       0       
      +0       0       0       0       0       0
  2929 ;;Total ram usage:        0 bytes
  2930 ;; Hardware stack levels used: 1
  2931 ;; Hardware stack levels required when called: 1
  2932 ;; This function calls:
  2933 ;;		_UART2_FramingErrorCallbackRegister
  2934 ;;		_UART2_OverrunErrorCallbackRegister
  2935 ;;		_UART2_ParityErrorCallbackRegister
  2936 ;; This function is called by:
  2937 ;;		_SYSTEM_Initialize
  2938 ;;		_main
  2939 ;; This function uses a non-reentrant model
  2940 ;;
  2941                           
  2942                           	psect	text21
  2943   0026F4                     __ptext21:
  2944                           	callstack 0
  2945   0026F4                     _UART2_Initialize:
  2946                           	callstack 29
  2947   0026F4                     
  2948                           ;mcc_generated_files/uart/src/uart2.c: 101:     U2RXB = 0x0;
  2949   0026F4  0E00               	movlw	0
  2950   0026F6  013D               	movlb	61	; () banked
  2951   0026F8  6FD0               	movwf	208,b	;volatile
  2952                           
  2953                           ;mcc_generated_files/uart/src/uart2.c: 103:     U2TXB = 0x0;
  2954   0026FA  0E00               	movlw	0
  2955   0026FC  6FD2               	movwf	210,b	;volatile
  2956                           
  2957                           ;mcc_generated_files/uart/src/uart2.c: 105:     U2P1L = 0x0;
  2958   0026FE  0E00               	movlw	0
  2959   002700  6FD4               	movwf	212,b	;volatile
  2960                           
  2961                           ;mcc_generated_files/uart/src/uart2.c: 107:     U2P2L = 0x0;
  2962   002702  0E00               	movlw	0
  2963   002704  6FD6               	movwf	214,b	;volatile
  2964                           
  2965                           ;mcc_generated_files/uart/src/uart2.c: 109:     U2P3L = 0x0;
  2966   002706  0E00               	movlw	0
  2967   002708  6FD8               	movwf	216,b	;volatile
  2968                           
  2969                           ;mcc_generated_files/uart/src/uart2.c: 111:     U2CON0 = 0xB0;
  2970   00270A  0EB0               	movlw	176
  2971   00270C  6FDA               	movwf	218,b	;volatile
  2972                           
  2973                           ;mcc_generated_files/uart/src/uart2.c: 113:     U2CON1 = 0x80;
  2974   00270E  0E80               	movlw	128
  2975   002710  6FDB               	movwf	219,b	;volatile
  2976                           
  2977                           ;mcc_generated_files/uart/src/uart2.c: 115:     U2CON2 = 0x0;
  2978   002712  0E00               	movlw	0
  2979   002714  6FDC               	movwf	220,b	;volatile
  2980                           
  2981                           ;mcc_generated_files/uart/src/uart2.c: 117:     U2BRGL = 0x19;
  2982   002716  0E19               	movlw	25
  2983   002718  6FDD               	movwf	221,b	;volatile
  2984                           
  2985                           ;mcc_generated_files/uart/src/uart2.c: 119:     U2BRGH = 0x0;
  2986   00271A  0E00               	movlw	0
  2987   00271C  6FDE               	movwf	222,b	;volatile
  2988                           
  2989                           ;mcc_generated_files/uart/src/uart2.c: 121:     U2FIFO = 0x2E;
  2990   00271E  0E2E               	movlw	46
  2991   002720  6FDF               	movwf	223,b	;volatile
  2992                           
  2993                           ;mcc_generated_files/uart/src/uart2.c: 123:     U2UIR = 0x0;
  2994   002722  0E00               	movlw	0
  2995   002724  6FE0               	movwf	224,b	;volatile
  2996                           
  2997                           ;mcc_generated_files/uart/src/uart2.c: 125:     U2ERRIR = 0x80;
  2998   002726  0E80               	movlw	128
  2999   002728  6FE1               	movwf	225,b	;volatile
  3000                           
  3001                           ;mcc_generated_files/uart/src/uart2.c: 127:     U2ERRIE = 0x0;
  3002   00272A  0E00               	movlw	0
  3003   00272C  6FE2               	movwf	226,b	;volatile
  3004   00272E                     
  3005                           ; BSR set to: 61
  3006                           ;mcc_generated_files/uart/src/uart2.c: 129:     UART2_FramingErrorCallbackRegister(UART2
      +                          _DefaultFramingErrorCallback);
  3007   00272E  0E00               	movlw	0
  3008   002730  6E01               	movwf	UART2_FramingErrorCallbackRegister@callbackHandler^0,c
  3009   002732  0E00               	movlw	0
  3010   002734  6E02               	movwf	(UART2_FramingErrorCallbackRegister@callbackHandler+1)^0,c
  3011   002736  0E00               	movlw	0
  3012   002738  6E03               	movwf	(UART2_FramingErrorCallbackRegister@callbackHandler+2)^0,c
  3013   00273A  EC70  F015         	call	_UART2_FramingErrorCallbackRegister	;wreg free
  3014   00273E                     
  3015                           ;mcc_generated_files/uart/src/uart2.c: 130:     UART2_OverrunErrorCallbackRegister(UART2
      +                          _DefaultOverrunErrorCallback);
  3016   00273E  0E00               	movlw	0
  3017   002740  6E01               	movwf	UART2_OverrunErrorCallbackRegister@callbackHandler^0,c
  3018   002742  0E00               	movlw	0
  3019   002744  6E02               	movwf	(UART2_OverrunErrorCallbackRegister@callbackHandler+1)^0,c
  3020   002746  0E00               	movlw	0
  3021   002748  6E03               	movwf	(UART2_OverrunErrorCallbackRegister@callbackHandler+2)^0,c
  3022   00274A  EC5F  F015         	call	_UART2_OverrunErrorCallbackRegister	;wreg free
  3023   00274E                     
  3024                           ;mcc_generated_files/uart/src/uart2.c: 131:     UART2_ParityErrorCallbackRegister(UART2_
      +                          DefaultParityErrorCallback);
  3025   00274E  0E00               	movlw	0
  3026   002750  6E01               	movwf	UART2_ParityErrorCallbackRegister@callbackHandler^0,c
  3027   002752  0E00               	movlw	0
  3028   002754  6E02               	movwf	(UART2_ParityErrorCallbackRegister@callbackHandler+1)^0,c
  3029   002756  0E00               	movlw	0
  3030   002758  6E03               	movwf	(UART2_ParityErrorCallbackRegister@callbackHandler+2)^0,c
  3031   00275A  EC4E  F015         	call	_UART2_ParityErrorCallbackRegister	;wreg free
  3032   00275E                     
  3033                           ;mcc_generated_files/uart/src/uart2.c: 133:     uart2RxLastError.status = 0;
  3034   00275E  0E00               	movlw	0
  3035   002760  0100               	movlb	0	; () banked
  3036   002762  6F94               	movwf	(_uart2RxLastError+1)& (0+255),b	;volatile
  3037   002764  0E00               	movlw	0
  3038   002766  6F93               	movwf	_uart2RxLastError& (0+255),b	;volatile
  3039   002768                     
  3040                           ; BSR set to: 0
  3041   002768  0012               	return		;funcret
  3042   00276A                     __end_of_UART2_Initialize:
  3043                           	callstack 0
  3044                           
  3045 ;; *************** function _UART2_ParityErrorCallbackRegister *****************
  3046 ;; Defined at:
  3047 ;;		line 325 in file "mcc_generated_files/uart/src/uart2.c"
  3048 ;; Parameters:    Size  Location     Type
  3049 ;;  callbackHand    3    0[COMRAM] PTR FTN()void 
  3050 ;;		 -> UART2_DefaultParityErrorCallback(1), 
  3051 ;; Auto vars:     Size  Location     Type
  3052 ;;		None
  3053 ;; Return value:  Size  Location     Type
  3054 ;;                  1    wreg      void 
  3055 ;; Registers used:
  3056 ;;		wreg, status,2, status,0
  3057 ;; Tracked objects:
  3058 ;;		On entry : 0/0
  3059 ;;		On exit  : 0/0
  3060 ;;		Unchanged: 0/0
  3061 ;; Data sizes:     COMRAM   BANK0   BANK1   BANK2   BANK3   BANK4   BANK5   BANK6   BANK7   BANK8   BANK9  BANK10  BANK1
      +1  BANK12  BANK13  BANK14  BANK15  BANK16  BANK17  BANK18  BANK19  BANK20  BANK21  BANK22  BANK23  BANK24  BANK25  BANK2
      +6  BANK27  BANK28  BANK29  BANK30  BANK31
  3062 ;;      Params:         3       0       0       0       0       0       0       0       0       0       0       0       
      +0       0       0       0       0       0       0       0       0       0       0       0       0       0       0       
      +0       0       0       0       0       0
  3063 ;;      Locals:         0       0       0       0       0       0       0       0       0       0       0       0       
      +0       0       0       0       0       0       0       0       0       0       0       0       0       0       0       
      +0       0       0       0       0       0
  3064 ;;      Temps:          0       0       0       0       0       0       0       0       0       0       0       0       
      +0       0       0       0       0       0       0       0       0       0       0       0       0       0       0       
      +0       0       0       0       0       0
  3065 ;;      Totals:         3       0       0       0       0       0       0       0       0       0       0       0       
      +0       0       0       0       0       0       0       0       0       0       0       0       0       0       0       
      +0       0       0       0       0       0
  3066 ;;Total ram usage:        3 bytes
  3067 ;; Hardware stack levels used: 1
  3068 ;; This function calls:
  3069 ;;		Nothing
  3070 ;; This function is called by:
  3071 ;;		_UART2_Initialize
  3072 ;; This function uses a non-reentrant model
  3073 ;;
  3074                           
  3075                           	psect	text22
  3076   002A9C                     __ptext22:
  3077                           	callstack 0
  3078   002A9C                     _UART2_ParityErrorCallbackRegister:
  3079                           	callstack 29
  3080   002A9C                     
  3081                           ;mcc_generated_files/uart/src/uart2.c: 325: void UART2_ParityErrorCallbackRegister(void 
      +                          (* callbackHandler)(void));mcc_generated_files/uart/src/uart2.c: 326: {;mcc_generated_fi
      +                          les/uart/src/uart2.c: 327:     if(((void*)0) != callbackHandler)
  3082   002A9C  5001               	movf	UART2_ParityErrorCallbackRegister@callbackHandler^0,w,c
  3083   002A9E  1002               	iorwf	(UART2_ParityErrorCallbackRegister@callbackHandler+1)^0,w,c
  3084   002AA0  1003               	iorwf	(UART2_ParityErrorCallbackRegister@callbackHandler+2)^0,w,c
  3085   002AA2  B4D8               	btfsc	status,2,c
  3086   002AA4  EF56  F015         	goto	u931
  3087   002AA8  EF58  F015         	goto	u930
  3088   002AAC                     u931:
  3089   002AAC  EF5E  F015         	goto	l402
  3090   002AB0                     u930:
  3091   002AB0                     
  3092                           ;mcc_generated_files/uart/src/uart2.c: 328:     {;mcc_generated_files/uart/src/uart2.c: 
      +                          329:         UART2_ParityErrorHandler = callbackHandler;
  3093   002AB0  C001  F080         	movff	UART2_ParityErrorCallbackRegister@callbackHandler,_UART2_ParityErrorHandler
  3094   002AB4  C002  F081         	movff	UART2_ParityErrorCallbackRegister@callbackHandler+1,_UART2_ParityErrorHandler+1
  3095   002AB8  C003  F082         	movff	UART2_ParityErrorCallbackRegister@callbackHandler+2,_UART2_ParityErrorHandler+2
  3096   002ABC                     l402:
  3097   002ABC  0012               	return		;funcret
  3098   002ABE                     __end_of_UART2_ParityErrorCallbackRegister:
  3099                           	callstack 0
  3100                           
  3101 ;; *************** function _UART2_OverrunErrorCallbackRegister *****************
  3102 ;; Defined at:
  3103 ;;		line 317 in file "mcc_generated_files/uart/src/uart2.c"
  3104 ;; Parameters:    Size  Location     Type
  3105 ;;  callbackHand    3    0[COMRAM] PTR FTN()void 
  3106 ;;		 -> UART2_DefaultOverrunErrorCallback(1), 
  3107 ;; Auto vars:     Size  Location     Type
  3108 ;;		None
  3109 ;; Return value:  Size  Location     Type
  3110 ;;                  1    wreg      void 
  3111 ;; Registers used:
  3112 ;;		wreg, status,2, status,0
  3113 ;; Tracked objects:
  3114 ;;		On entry : 0/0
  3115 ;;		On exit  : 0/0
  3116 ;;		Unchanged: 0/0
  3117 ;; Data sizes:     COMRAM   BANK0   BANK1   BANK2   BANK3   BANK4   BANK5   BANK6   BANK7   BANK8   BANK9  BANK10  BANK1
      +1  BANK12  BANK13  BANK14  BANK15  BANK16  BANK17  BANK18  BANK19  BANK20  BANK21  BANK22  BANK23  BANK24  BANK25  BANK2
      +6  BANK27  BANK28  BANK29  BANK30  BANK31
  3118 ;;      Params:         3       0       0       0       0       0       0       0       0       0       0       0       
      +0       0       0       0       0       0       0       0       0       0       0       0       0       0       0       
      +0       0       0       0       0       0
  3119 ;;      Locals:         0       0       0       0       0       0       0       0       0       0       0       0       
      +0       0       0       0       0       0       0       0       0       0       0       0       0       0       0       
      +0       0       0       0       0       0
  3120 ;;      Temps:          0       0       0       0       0       0       0       0       0       0       0       0       
      +0       0       0       0       0       0       0       0       0       0       0       0       0       0       0       
      +0       0       0       0       0       0
  3121 ;;      Totals:         3       0       0       0       0       0       0       0       0       0       0       0       
      +0       0       0       0       0       0       0       0       0       0       0       0       0       0       0       
      +0       0       0       0       0       0
  3122 ;;Total ram usage:        3 bytes
  3123 ;; Hardware stack levels used: 1
  3124 ;; This function calls:
  3125 ;;		Nothing
  3126 ;; This function is called by:
  3127 ;;		_UART2_Initialize
  3128 ;; This function uses a non-reentrant model
  3129 ;;
  3130                           
  3131                           	psect	text23
  3132   002ABE                     __ptext23:
  3133                           	callstack 0
  3134   002ABE                     _UART2_OverrunErrorCallbackRegister:
  3135                           	callstack 29
  3136   002ABE                     
  3137                           ;mcc_generated_files/uart/src/uart2.c: 317: void UART2_OverrunErrorCallbackRegister(void
      +                           (* callbackHandler)(void));mcc_generated_files/uart/src/uart2.c: 318: {;mcc_generated_f
      +                          iles/uart/src/uart2.c: 319:     if(((void*)0) != callbackHandler)
  3138   002ABE  5001               	movf	UART2_OverrunErrorCallbackRegister@callbackHandler^0,w,c
  3139   002AC0  1002               	iorwf	(UART2_OverrunErrorCallbackRegister@callbackHandler+1)^0,w,c
  3140   002AC2  1003               	iorwf	(UART2_OverrunErrorCallbackRegister@callbackHandler+2)^0,w,c
  3141   002AC4  B4D8               	btfsc	status,2,c
  3142   002AC6  EF67  F015         	goto	u921
  3143   002ACA  EF69  F015         	goto	u920
  3144   002ACE                     u921:
  3145   002ACE  EF6F  F015         	goto	l398
  3146   002AD2                     u920:
  3147   002AD2                     
  3148                           ;mcc_generated_files/uart/src/uart2.c: 320:     {;mcc_generated_files/uart/src/uart2.c: 
      +                          321:         UART2_OverrunErrorHandler = callbackHandler;
  3149   002AD2  C001  F083         	movff	UART2_OverrunErrorCallbackRegister@callbackHandler,_UART2_OverrunErrorHandler
  3150   002AD6  C002  F084         	movff	UART2_OverrunErrorCallbackRegister@callbackHandler+1,_UART2_OverrunErrorHandler+1
  3151   002ADA  C003  F085         	movff	UART2_OverrunErrorCallbackRegister@callbackHandler+2,_UART2_OverrunErrorHandler+2
  3152   002ADE                     l398:
  3153   002ADE  0012               	return		;funcret
  3154   002AE0                     __end_of_UART2_OverrunErrorCallbackRegister:
  3155                           	callstack 0
  3156                           
  3157 ;; *************** function _UART2_FramingErrorCallbackRegister *****************
  3158 ;; Defined at:
  3159 ;;		line 309 in file "mcc_generated_files/uart/src/uart2.c"
  3160 ;; Parameters:    Size  Location     Type
  3161 ;;  callbackHand    3    0[COMRAM] PTR FTN()void 
  3162 ;;		 -> UART2_DefaultFramingErrorCallback(1), 
  3163 ;; Auto vars:     Size  Location     Type
  3164 ;;		None
  3165 ;; Return value:  Size  Location     Type
  3166 ;;                  1    wreg      void 
  3167 ;; Registers used:
  3168 ;;		wreg, status,2, status,0
  3169 ;; Tracked objects:
  3170 ;;		On entry : 0/0
  3171 ;;		On exit  : 0/0
  3172 ;;		Unchanged: 0/0
  3173 ;; Data sizes:     COMRAM   BANK0   BANK1   BANK2   BANK3   BANK4   BANK5   BANK6   BANK7   BANK8   BANK9  BANK10  BANK1
      +1  BANK12  BANK13  BANK14  BANK15  BANK16  BANK17  BANK18  BANK19  BANK20  BANK21  BANK22  BANK23  BANK24  BANK25  BANK2
      +6  BANK27  BANK28  BANK29  BANK30  BANK31
  3174 ;;      Params:         3       0       0       0       0       0       0       0       0       0       0       0       
      +0       0       0       0       0       0       0       0       0       0       0       0       0       0       0       
      +0       0       0       0       0       0
  3175 ;;      Locals:         0       0       0       0       0       0       0       0       0       0       0       0       
      +0       0       0       0       0       0       0       0       0       0       0       0       0       0       0       
      +0       0       0       0       0       0
  3176 ;;      Temps:          0       0       0       0       0       0       0       0       0       0       0       0       
      +0       0       0       0       0       0       0       0       0       0       0       0       0       0       0       
      +0       0       0       0       0       0
  3177 ;;      Totals:         3       0       0       0       0       0       0       0       0       0       0       0       
      +0       0       0       0       0       0       0       0       0       0       0       0       0       0       0       
      +0       0       0       0       0       0
  3178 ;;Total ram usage:        3 bytes
  3179 ;; Hardware stack levels used: 1
  3180 ;; This function calls:
  3181 ;;		Nothing
  3182 ;; This function is called by:
  3183 ;;		_UART2_Initialize
  3184 ;; This function uses a non-reentrant model
  3185 ;;
  3186                           
  3187                           	psect	text24
  3188   002AE0                     __ptext24:
  3189                           	callstack 0
  3190   002AE0                     _UART2_FramingErrorCallbackRegister:
  3191                           	callstack 29
  3192   002AE0                     
  3193                           ;mcc_generated_files/uart/src/uart2.c: 309: void UART2_FramingErrorCallbackRegister(void
      +                           (* callbackHandler)(void));mcc_generated_files/uart/src/uart2.c: 310: {;mcc_generated_f
      +                          iles/uart/src/uart2.c: 311:     if(((void*)0) != callbackHandler)
  3194   002AE0  5001               	movf	UART2_FramingErrorCallbackRegister@callbackHandler^0,w,c
  3195   002AE2  1002               	iorwf	(UART2_FramingErrorCallbackRegister@callbackHandler+1)^0,w,c
  3196   002AE4  1003               	iorwf	(UART2_FramingErrorCallbackRegister@callbackHandler+2)^0,w,c
  3197   002AE6  B4D8               	btfsc	status,2,c
  3198   002AE8  EF78  F015         	goto	u911
  3199   002AEC  EF7A  F015         	goto	u910
  3200   002AF0                     u911:
  3201   002AF0  EF80  F015         	goto	l394
  3202   002AF4                     u910:
  3203   002AF4                     
  3204                           ;mcc_generated_files/uart/src/uart2.c: 312:     {;mcc_generated_files/uart/src/uart2.c: 
      +                          313:         UART2_FramingErrorHandler = callbackHandler;
  3205   002AF4  C001  F086         	movff	UART2_FramingErrorCallbackRegister@callbackHandler,_UART2_FramingErrorHandler
  3206   002AF8  C002  F087         	movff	UART2_FramingErrorCallbackRegister@callbackHandler+1,_UART2_FramingErrorHandler+1
  3207   002AFC  C003  F088         	movff	UART2_FramingErrorCallbackRegister@callbackHandler+2,_UART2_FramingErrorHandler+2
  3208   002B00                     l394:
  3209   002B00  0012               	return		;funcret
  3210   002B02                     __end_of_UART2_FramingErrorCallbackRegister:
  3211                           	callstack 0
  3212                           
  3213 ;; *************** function _PIN_MANAGER_Initialize *****************
  3214 ;; Defined at:
  3215 ;;		line 38 in file "mcc_generated_files/system/src/pins.c"
  3216 ;; Parameters:    Size  Location     Type
  3217 ;;		None
  3218 ;; Auto vars:     Size  Location     Type
  3219 ;;		None
  3220 ;; Return value:  Size  Location     Type
  3221 ;;                  1    wreg      void 
  3222 ;; Registers used:
  3223 ;;		wreg, status,2
  3224 ;; Tracked objects:
  3225 ;;		On entry : 0/0
  3226 ;;		On exit  : 0/0
  3227 ;;		Unchanged: 0/0
  3228 ;; Data sizes:     COMRAM   BANK0   BANK1   BANK2   BANK3   BANK4   BANK5   BANK6   BANK7   BANK8   BANK9  BANK10  BANK1
      +1  BANK12  BANK13  BANK14  BANK15  BANK16  BANK17  BANK18  BANK19  BANK20  BANK21  BANK22  BANK23  BANK24  BANK25  BANK2
      +6  BANK27  BANK28  BANK29  BANK30  BANK31
  3229 ;;      Params:         0       0       0       0       0       0       0       0       0       0       0       0       
      +0       0       0       0       0       0       0       0       0       0       0       0       0       0       0       
      +0       0       0       0       0       0
  3230 ;;      Locals:         0       0       0       0       0       0       0       0       0       0       0       0       
      +0       0       0       0       0       0       0       0       0       0       0       0       0       0       0       
      +0       0       0       0       0       0
  3231 ;;      Temps:          0       0       0       0       0       0       0       0       0       0       0       0       
      +0       0       0       0       0       0       0       0       0       0       0       0       0       0       0       
      +0       0       0       0       0       0
  3232 ;;      Totals:         0       0       0       0       0       0       0       0       0       0       0       0       
      +0       0       0       0       0       0       0       0       0       0       0       0       0       0       0       
      +0       0       0       0       0       0
  3233 ;;Total ram usage:        0 bytes
  3234 ;; Hardware stack levels used: 1
  3235 ;; This function calls:
  3236 ;;		Nothing
  3237 ;; This function is called by:
  3238 ;;		_SYSTEM_Initialize
  3239 ;; This function uses a non-reentrant model
  3240 ;;
  3241                           
  3242                           	psect	text25
  3243   002392                     __ptext25:
  3244                           	callstack 0
  3245   002392                     _PIN_MANAGER_Initialize:
  3246                           	callstack 29
  3247   002392                     
  3248                           ;mcc_generated_files/system/src/pins.c: 43:     LATA = 0x0;
  3249   002392  0E00               	movlw	0
  3250   002394  6EBA               	movwf	186,c	;volatile
  3251                           
  3252                           ;mcc_generated_files/system/src/pins.c: 44:     LATB = 0x0;
  3253   002396  0E00               	movlw	0
  3254   002398  6EBB               	movwf	187,c	;volatile
  3255                           
  3256                           ;mcc_generated_files/system/src/pins.c: 45:     LATC = 0x0;
  3257   00239A  0E00               	movlw	0
  3258   00239C  6EBC               	movwf	188,c	;volatile
  3259                           
  3260                           ;mcc_generated_files/system/src/pins.c: 46:     LATD = 0x0;
  3261   00239E  0E00               	movlw	0
  3262   0023A0  6EBD               	movwf	189,c	;volatile
  3263                           
  3264                           ;mcc_generated_files/system/src/pins.c: 47:     LATE = 0x0;
  3265   0023A2  0E00               	movlw	0
  3266   0023A4  6EBE               	movwf	190,c	;volatile
  3267   0023A6                     
  3268                           ;mcc_generated_files/system/src/pins.c: 52:     TRISA = 0xFF;
  3269   0023A6  68C2               	setf	194,c	;volatile
  3270   0023A8                     
  3271                           ;mcc_generated_files/system/src/pins.c: 53:     TRISB = 0xFF;
  3272   0023A8  68C3               	setf	195,c	;volatile
  3273   0023AA                     
  3274                           ;mcc_generated_files/system/src/pins.c: 54:     TRISC = 0xFF;
  3275   0023AA  68C4               	setf	196,c	;volatile
  3276                           
  3277                           ;mcc_generated_files/system/src/pins.c: 55:     TRISD = 0xFE;
  3278   0023AC  0EFE               	movlw	254
  3279   0023AE  6EC5               	movwf	197,c	;volatile
  3280                           
  3281                           ;mcc_generated_files/system/src/pins.c: 56:     TRISE = 0x7;
  3282   0023B0  0E07               	movlw	7
  3283   0023B2  6EC6               	movwf	198,c	;volatile
  3284   0023B4                     
  3285                           ;mcc_generated_files/system/src/pins.c: 61:     ANSELA = 0xFF;
  3286   0023B4  013A               	movlb	58	; () banked
  3287   0023B6  6940               	setf	64,b	;volatile
  3288   0023B8                     
  3289                           ; BSR set to: 58
  3290                           ;mcc_generated_files/system/src/pins.c: 62:     ANSELB = 0xFF;
  3291   0023B8  6950               	setf	80,b	;volatile
  3292   0023BA                     
  3293                           ; BSR set to: 58
  3294                           ;mcc_generated_files/system/src/pins.c: 63:     ANSELC = 0xFF;
  3295   0023BA  6960               	setf	96,b	;volatile
  3296                           
  3297                           ;mcc_generated_files/system/src/pins.c: 64:     ANSELD = 0xFC;
  3298   0023BC  0EFC               	movlw	252
  3299   0023BE  6F70               	movwf	112,b	;volatile
  3300                           
  3301                           ;mcc_generated_files/system/src/pins.c: 65:     ANSELE = 0x7;
  3302   0023C0  0E07               	movlw	7
  3303   0023C2  6F80               	movwf	128,b	;volatile
  3304                           
  3305                           ;mcc_generated_files/system/src/pins.c: 70:     WPUA = 0x0;
  3306   0023C4  0E00               	movlw	0
  3307   0023C6  6F41               	movwf	65,b	;volatile
  3308                           
  3309                           ;mcc_generated_files/system/src/pins.c: 71:     WPUB = 0x0;
  3310   0023C8  0E00               	movlw	0
  3311   0023CA  6F51               	movwf	81,b	;volatile
  3312                           
  3313                           ;mcc_generated_files/system/src/pins.c: 72:     WPUC = 0x0;
  3314   0023CC  0E00               	movlw	0
  3315   0023CE  6F61               	movwf	97,b	;volatile
  3316                           
  3317                           ;mcc_generated_files/system/src/pins.c: 73:     WPUD = 0x0;
  3318   0023D0  0E00               	movlw	0
  3319   0023D2  6F71               	movwf	113,b	;volatile
  3320                           
  3321                           ;mcc_generated_files/system/src/pins.c: 74:     WPUE = 0x0;
  3322   0023D4  0E00               	movlw	0
  3323   0023D6  6F81               	movwf	129,b	;volatile
  3324                           
  3325                           ;mcc_generated_files/system/src/pins.c: 79:     ODCONA = 0x0;
  3326   0023D8  0E00               	movlw	0
  3327   0023DA  6F42               	movwf	66,b	;volatile
  3328                           
  3329                           ;mcc_generated_files/system/src/pins.c: 80:     ODCONB = 0x0;
  3330   0023DC  0E00               	movlw	0
  3331   0023DE  6F52               	movwf	82,b	;volatile
  3332                           
  3333                           ;mcc_generated_files/system/src/pins.c: 81:     ODCONC = 0x0;
  3334   0023E0  0E00               	movlw	0
  3335   0023E2  6F62               	movwf	98,b	;volatile
  3336                           
  3337                           ;mcc_generated_files/system/src/pins.c: 82:     ODCOND = 0x0;
  3338   0023E4  0E00               	movlw	0
  3339   0023E6  6F72               	movwf	114,b	;volatile
  3340                           
  3341                           ;mcc_generated_files/system/src/pins.c: 83:     ODCONE = 0x0;
  3342   0023E8  0E00               	movlw	0
  3343   0023EA  6F82               	movwf	130,b	;volatile
  3344   0023EC                     
  3345                           ; BSR set to: 58
  3346                           ;mcc_generated_files/system/src/pins.c: 88:     SLRCONA = 0xFF;
  3347   0023EC  6943               	setf	67,b	;volatile
  3348   0023EE                     
  3349                           ; BSR set to: 58
  3350                           ;mcc_generated_files/system/src/pins.c: 89:     SLRCONB = 0xFF;
  3351   0023EE  6953               	setf	83,b	;volatile
  3352   0023F0                     
  3353                           ; BSR set to: 58
  3354                           ;mcc_generated_files/system/src/pins.c: 90:     SLRCONC = 0xFF;
  3355   0023F0  6963               	setf	99,b	;volatile
  3356   0023F2                     
  3357                           ; BSR set to: 58
  3358                           ;mcc_generated_files/system/src/pins.c: 91:     SLRCOND = 0xFF;
  3359   0023F2  6973               	setf	115,b	;volatile
  3360                           
  3361                           ;mcc_generated_files/system/src/pins.c: 92:     SLRCONE = 0x7;
  3362   0023F4  0E07               	movlw	7
  3363   0023F6  6F83               	movwf	131,b	;volatile
  3364   0023F8                     
  3365                           ; BSR set to: 58
  3366                           ;mcc_generated_files/system/src/pins.c: 97:     INLVLA = 0xFF;
  3367   0023F8  6944               	setf	68,b	;volatile
  3368   0023FA                     
  3369                           ; BSR set to: 58
  3370                           ;mcc_generated_files/system/src/pins.c: 98:     INLVLB = 0xFF;
  3371   0023FA  6954               	setf	84,b	;volatile
  3372   0023FC                     
  3373                           ; BSR set to: 58
  3374                           ;mcc_generated_files/system/src/pins.c: 99:     INLVLC = 0xFF;
  3375   0023FC  6964               	setf	100,b	;volatile
  3376   0023FE                     
  3377                           ; BSR set to: 58
  3378                           ;mcc_generated_files/system/src/pins.c: 100:     INLVLD = 0xFF;
  3379   0023FE  6974               	setf	116,b	;volatile
  3380                           
  3381                           ;mcc_generated_files/system/src/pins.c: 101:     INLVLE = 0xF;
  3382   002400  0E0F               	movlw	15
  3383   002402  6F84               	movwf	132,b	;volatile
  3384                           
  3385                           ;mcc_generated_files/system/src/pins.c: 106:     RB1I2C = 0x0;
  3386   002404  0E00               	movlw	0
  3387   002406  6F5A               	movwf	90,b	;volatile
  3388                           
  3389                           ;mcc_generated_files/system/src/pins.c: 107:     RB2I2C = 0x0;
  3390   002408  0E00               	movlw	0
  3391   00240A  6F5B               	movwf	91,b	;volatile
  3392                           
  3393                           ;mcc_generated_files/system/src/pins.c: 108:     RC3I2C = 0x0;
  3394   00240C  0E00               	movlw	0
  3395   00240E  6F6A               	movwf	106,b	;volatile
  3396                           
  3397                           ;mcc_generated_files/system/src/pins.c: 109:     RC4I2C = 0x0;
  3398   002410  0E00               	movlw	0
  3399   002412  6F6B               	movwf	107,b	;volatile
  3400                           
  3401                           ;mcc_generated_files/system/src/pins.c: 110:     RD0I2C = 0x0;
  3402   002414  0E00               	movlw	0
  3403   002416  6F7A               	movwf	122,b	;volatile
  3404                           
  3405                           ;mcc_generated_files/system/src/pins.c: 111:     RD1I2C = 0x0;
  3406   002418  0E00               	movlw	0
  3407   00241A  6F7B               	movwf	123,b	;volatile
  3408                           
  3409                           ;mcc_generated_files/system/src/pins.c: 115:     U2RXPPS = 0x19;
  3410   00241C  0E19               	movlw	25
  3411   00241E  6FE8               	movwf	232,b	;volatile
  3412                           
  3413                           ;mcc_generated_files/system/src/pins.c: 116:     RD0PPS = 0x16;
  3414   002420  0E16               	movlw	22
  3415   002422  6F18               	movwf	24,b	;volatile
  3416                           
  3417                           ;mcc_generated_files/system/src/pins.c: 121:     IOCAP = 0x0;
  3418   002424  0E00               	movlw	0
  3419   002426  6F45               	movwf	69,b	;volatile
  3420                           
  3421                           ;mcc_generated_files/system/src/pins.c: 122:     IOCAN = 0x0;
  3422   002428  0E00               	movlw	0
  3423   00242A  6F46               	movwf	70,b	;volatile
  3424                           
  3425                           ;mcc_generated_files/system/src/pins.c: 123:     IOCAF = 0x0;
  3426   00242C  0E00               	movlw	0
  3427   00242E  6F47               	movwf	71,b	;volatile
  3428                           
  3429                           ;mcc_generated_files/system/src/pins.c: 124:     IOCBP = 0x0;
  3430   002430  0E00               	movlw	0
  3431   002432  6F55               	movwf	85,b	;volatile
  3432                           
  3433                           ;mcc_generated_files/system/src/pins.c: 125:     IOCBN = 0x0;
  3434   002434  0E00               	movlw	0
  3435   002436  6F56               	movwf	86,b	;volatile
  3436                           
  3437                           ;mcc_generated_files/system/src/pins.c: 126:     IOCBF = 0x0;
  3438   002438  0E00               	movlw	0
  3439   00243A  6F57               	movwf	87,b	;volatile
  3440                           
  3441                           ;mcc_generated_files/system/src/pins.c: 127:     IOCCP = 0x0;
  3442   00243C  0E00               	movlw	0
  3443   00243E  6F65               	movwf	101,b	;volatile
  3444                           
  3445                           ;mcc_generated_files/system/src/pins.c: 128:     IOCCN = 0x0;
  3446   002440  0E00               	movlw	0
  3447   002442  6F66               	movwf	102,b	;volatile
  3448                           
  3449                           ;mcc_generated_files/system/src/pins.c: 129:     IOCCF = 0x0;
  3450   002444  0E00               	movlw	0
  3451   002446  6F67               	movwf	103,b	;volatile
  3452                           
  3453                           ;mcc_generated_files/system/src/pins.c: 130:     IOCEP = 0x0;
  3454   002448  0E00               	movlw	0
  3455   00244A  6F85               	movwf	133,b	;volatile
  3456                           
  3457                           ;mcc_generated_files/system/src/pins.c: 131:     IOCEN = 0x0;
  3458   00244C  0E00               	movlw	0
  3459   00244E  6F86               	movwf	134,b	;volatile
  3460                           
  3461                           ;mcc_generated_files/system/src/pins.c: 132:     IOCEF = 0x0;
  3462   002450  0E00               	movlw	0
  3463   002452  6F87               	movwf	135,b	;volatile
  3464   002454                     
  3465                           ; BSR set to: 58
  3466   002454  0012               	return		;funcret
  3467   002456                     __end_of_PIN_MANAGER_Initialize:
  3468                           	callstack 0
  3469                           
  3470 ;; *************** function _INTERRUPT_Initialize *****************
  3471 ;; Defined at:
  3472 ;;		line 42 in file "mcc_generated_files/system/src/interrupt.c"
  3473 ;; Parameters:    Size  Location     Type
  3474 ;;		None
  3475 ;; Auto vars:     Size  Location     Type
  3476 ;;		None
  3477 ;; Return value:  Size  Location     Type
  3478 ;;                  1    wreg      void 
  3479 ;; Registers used:
  3480 ;;		wreg, status,2, status,0, cstack
  3481 ;; Tracked objects:
  3482 ;;		On entry : 0/0
  3483 ;;		On exit  : 0/0
  3484 ;;		Unchanged: 0/0
  3485 ;; Data sizes:     COMRAM   BANK0   BANK1   BANK2   BANK3   BANK4   BANK5   BANK6   BANK7   BANK8   BANK9  BANK10  BANK1
      +1  BANK12  BANK13  BANK14  BANK15  BANK16  BANK17  BANK18  BANK19  BANK20  BANK21  BANK22  BANK23  BANK24  BANK25  BANK2
      +6  BANK27  BANK28  BANK29  BANK30  BANK31
  3486 ;;      Params:         0       0       0       0       0       0       0       0       0       0       0       0       
      +0       0       0       0       0       0       0       0       0       0       0       0       0       0       0       
      +0       0       0       0       0       0
  3487 ;;      Locals:         0       0       0       0       0       0       0       0       0       0       0       0       
      +0       0       0       0       0       0       0       0       0       0       0       0       0       0       0       
      +0       0       0       0       0       0
  3488 ;;      Temps:          0       0       0       0       0       0       0       0       0       0       0       0       
      +0       0       0       0       0       0       0       0       0       0       0       0       0       0       0       
      +0       0       0       0       0       0
  3489 ;;      Totals:         0       0       0       0       0       0       0       0       0       0       0       0       
      +0       0       0       0       0       0       0       0       0       0       0       0       0       0       0       
      +0       0       0       0       0       0
  3490 ;;Total ram usage:        0 bytes
  3491 ;; Hardware stack levels used: 1
  3492 ;; Hardware stack levels required when called: 1
  3493 ;; This function calls:
  3494 ;;		_INT0_SetInterruptHandler
  3495 ;;		_INT1_SetInterruptHandler
  3496 ;;		_INT2_SetInterruptHandler
  3497 ;; This function is called by:
  3498 ;;		_SYSTEM_Initialize
  3499 ;; This function uses a non-reentrant model
  3500 ;;
  3501                           
  3502                           	psect	text26
  3503   002946                     __ptext26:
  3504                           	callstack 0
  3505   002946                     _INTERRUPT_Initialize:
  3506                           	callstack 28
  3507   002946                     
  3508                           ;mcc_generated_files/system/src/interrupt.c: 45:     INTCON0bits.IPEN = 0;
  3509   002946  9AD2               	bcf	210,5,c	;volatile
  3510                           
  3511                           ;mcc_generated_files/system/src/interrupt.c: 49:     (PIR1bits.INT0IF = 0);
  3512   002948  0139               	movlb	57	; () banked
  3513   00294A  91A1               	bcf	161,0,b	;volatile
  3514                           
  3515                           ;mcc_generated_files/system/src/interrupt.c: 50:     (INTCON0bits.INT0EDG = 1);
  3516   00294C  80D2               	bsf	210,0,c	;volatile
  3517   00294E                     
  3518                           ; BSR set to: 57
  3519                           ;mcc_generated_files/system/src/interrupt.c: 52:     INT0_SetInterruptHandler(INT0_Defau
      +                          ltInterruptHandler);
  3520   00294E  0E00               	movlw	0
  3521   002950  6E01               	movwf	INT0_SetInterruptHandler@InterruptHandler^0,c
  3522   002952  0E00               	movlw	0
  3523   002954  6E02               	movwf	(INT0_SetInterruptHandler@InterruptHandler+1)^0,c
  3524   002956  0E00               	movlw	0
  3525   002958  6E03               	movwf	(INT0_SetInterruptHandler@InterruptHandler+2)^0,c
  3526   00295A  ECE9  F015         	call	_INT0_SetInterruptHandler	;wreg free
  3527   00295E                     
  3528                           ;mcc_generated_files/system/src/interrupt.c: 57:     (PIR5bits.INT1IF = 0);
  3529   00295E  0139               	movlb	57	; () banked
  3530   002960  91A5               	bcf	165,0,b	;volatile
  3531   002962                     
  3532                           ; BSR set to: 57
  3533                           ;mcc_generated_files/system/src/interrupt.c: 58:     (INTCON0bits.INT1EDG = 1);
  3534   002962  82D2               	bsf	210,1,c	;volatile
  3535                           
  3536                           ;mcc_generated_files/system/src/interrupt.c: 60:     INT1_SetInterruptHandler(INT1_Defau
      +                          ltInterruptHandler);
  3537   002964  0E00               	movlw	0
  3538   002966  6E01               	movwf	INT1_SetInterruptHandler@InterruptHandler^0,c
  3539   002968  0E00               	movlw	0
  3540   00296A  6E02               	movwf	(INT1_SetInterruptHandler@InterruptHandler+1)^0,c
  3541   00296C  0E00               	movlw	0
  3542   00296E  6E03               	movwf	(INT1_SetInterruptHandler@InterruptHandler+2)^0,c
  3543   002970  ECE2  F015         	call	_INT1_SetInterruptHandler	;wreg free
  3544   002974                     
  3545                           ;mcc_generated_files/system/src/interrupt.c: 65:     (PIR7bits.INT2IF = 0);
  3546   002974  0139               	movlb	57	; () banked
  3547   002976  9BA7               	bcf	167,5,b	;volatile
  3548   002978                     
  3549                           ; BSR set to: 57
  3550                           ;mcc_generated_files/system/src/interrupt.c: 66:     (INTCON0bits.INT2EDG = 1);
  3551   002978  84D2               	bsf	210,2,c	;volatile
  3552                           
  3553                           ;mcc_generated_files/system/src/interrupt.c: 68:     INT2_SetInterruptHandler(INT2_Defau
      +                          ltInterruptHandler);
  3554   00297A  0E00               	movlw	0
  3555   00297C  6E01               	movwf	INT2_SetInterruptHandler@InterruptHandler^0,c
  3556   00297E  0E00               	movlw	0
  3557   002980  6E02               	movwf	(INT2_SetInterruptHandler@InterruptHandler+1)^0,c
  3558   002982  0E00               	movlw	0
  3559   002984  6E03               	movwf	(INT2_SetInterruptHandler@InterruptHandler+2)^0,c
  3560   002986  ECDB  F015         	call	_INT2_SetInterruptHandler	;wreg free
  3561   00298A  0012               	return		;funcret
  3562   00298C                     __end_of_INTERRUPT_Initialize:
  3563                           	callstack 0
  3564                           
  3565 ;; *************** function _INT2_SetInterruptHandler *****************
  3566 ;; Defined at:
  3567 ;;		line 144 in file "mcc_generated_files/system/src/interrupt.c"
  3568 ;; Parameters:    Size  Location     Type
  3569 ;;  InterruptHan    3    0[COMRAM] PTR FTN()void 
  3570 ;;		 -> INT2_DefaultInterruptHandler(1), 
  3571 ;; Auto vars:     Size  Location     Type
  3572 ;;		None
  3573 ;; Return value:  Size  Location     Type
  3574 ;;                  1    wreg      void 
  3575 ;; Registers used:
  3576 ;;		wreg, status,2, status,0
  3577 ;; Tracked objects:
  3578 ;;		On entry : 0/0
  3579 ;;		On exit  : 0/0
  3580 ;;		Unchanged: 0/0
  3581 ;; Data sizes:     COMRAM   BANK0   BANK1   BANK2   BANK3   BANK4   BANK5   BANK6   BANK7   BANK8   BANK9  BANK10  BANK1
      +1  BANK12  BANK13  BANK14  BANK15  BANK16  BANK17  BANK18  BANK19  BANK20  BANK21  BANK22  BANK23  BANK24  BANK25  BANK2
      +6  BANK27  BANK28  BANK29  BANK30  BANK31
  3582 ;;      Params:         3       0       0       0       0       0       0       0       0       0       0       0       
      +0       0       0       0       0       0       0       0       0       0       0       0       0       0       0       
      +0       0       0       0       0       0
  3583 ;;      Locals:         0       0       0       0       0       0       0       0       0       0       0       0       
      +0       0       0       0       0       0       0       0       0       0       0       0       0       0       0       
      +0       0       0       0       0       0
  3584 ;;      Temps:          0       0       0       0       0       0       0       0       0       0       0       0       
      +0       0       0       0       0       0       0       0       0       0       0       0       0       0       0       
      +0       0       0       0       0       0
  3585 ;;      Totals:         3       0       0       0       0       0       0       0       0       0       0       0       
      +0       0       0       0       0       0       0       0       0       0       0       0       0       0       0       
      +0       0       0       0       0       0
  3586 ;;Total ram usage:        3 bytes
  3587 ;; Hardware stack levels used: 1
  3588 ;; This function calls:
  3589 ;;		Nothing
  3590 ;; This function is called by:
  3591 ;;		_INTERRUPT_Initialize
  3592 ;; This function uses a non-reentrant model
  3593 ;;
  3594                           
  3595                           	psect	text27
  3596   002BB6                     __ptext27:
  3597                           	callstack 0
  3598   002BB6                     _INT2_SetInterruptHandler:
  3599                           	callstack 28
  3600   002BB6                     
  3601                           ;mcc_generated_files/system/src/interrupt.c: 145:     INT2_InterruptHandler = InterruptH
      +                          andler;
  3602   002BB6  C001  F089         	movff	INT2_SetInterruptHandler@InterruptHandler,_INT2_InterruptHandler
  3603   002BBA  C002  F08A         	movff	INT2_SetInterruptHandler@InterruptHandler+1,_INT2_InterruptHandler+1
  3604   002BBE  C003  F08B         	movff	INT2_SetInterruptHandler@InterruptHandler+2,_INT2_InterruptHandler+2
  3605   002BC2  0012               	return		;funcret
  3606   002BC4                     __end_of_INT2_SetInterruptHandler:
  3607                           	callstack 0
  3608                           
  3609 ;; *************** function _INT1_SetInterruptHandler *****************
  3610 ;; Defined at:
  3611 ;;		line 118 in file "mcc_generated_files/system/src/interrupt.c"
  3612 ;; Parameters:    Size  Location     Type
  3613 ;;  InterruptHan    3    0[COMRAM] PTR FTN()void 
  3614 ;;		 -> INT1_DefaultInterruptHandler(1), 
  3615 ;; Auto vars:     Size  Location     Type
  3616 ;;		None
  3617 ;; Return value:  Size  Location     Type
  3618 ;;                  1    wreg      void 
  3619 ;; Registers used:
  3620 ;;		wreg, status,2, status,0
  3621 ;; Tracked objects:
  3622 ;;		On entry : 0/0
  3623 ;;		On exit  : 0/0
  3624 ;;		Unchanged: 0/0
  3625 ;; Data sizes:     COMRAM   BANK0   BANK1   BANK2   BANK3   BANK4   BANK5   BANK6   BANK7   BANK8   BANK9  BANK10  BANK1
      +1  BANK12  BANK13  BANK14  BANK15  BANK16  BANK17  BANK18  BANK19  BANK20  BANK21  BANK22  BANK23  BANK24  BANK25  BANK2
      +6  BANK27  BANK28  BANK29  BANK30  BANK31
  3626 ;;      Params:         3       0       0       0       0       0       0       0       0       0       0       0       
      +0       0       0       0       0       0       0       0       0       0       0       0       0       0       0       
      +0       0       0       0       0       0
  3627 ;;      Locals:         0       0       0       0       0       0       0       0       0       0       0       0       
      +0       0       0       0       0       0       0       0       0       0       0       0       0       0       0       
      +0       0       0       0       0       0
  3628 ;;      Temps:          0       0       0       0       0       0       0       0       0       0       0       0       
      +0       0       0       0       0       0       0       0       0       0       0       0       0       0       0       
      +0       0       0       0       0       0
  3629 ;;      Totals:         3       0       0       0       0       0       0       0       0       0       0       0       
      +0       0       0       0       0       0       0       0       0       0       0       0       0       0       0       
      +0       0       0       0       0       0
  3630 ;;Total ram usage:        3 bytes
  3631 ;; Hardware stack levels used: 1
  3632 ;; This function calls:
  3633 ;;		Nothing
  3634 ;; This function is called by:
  3635 ;;		_INTERRUPT_Initialize
  3636 ;; This function uses a non-reentrant model
  3637 ;;
  3638                           
  3639                           	psect	text28
  3640   002BC4                     __ptext28:
  3641                           	callstack 0
  3642   002BC4                     _INT1_SetInterruptHandler:
  3643                           	callstack 28
  3644   002BC4                     
  3645                           ;mcc_generated_files/system/src/interrupt.c: 119:     INT1_InterruptHandler = InterruptH
      +                          andler;
  3646   002BC4  C001  F08C         	movff	INT1_SetInterruptHandler@InterruptHandler,_INT1_InterruptHandler
  3647   002BC8  C002  F08D         	movff	INT1_SetInterruptHandler@InterruptHandler+1,_INT1_InterruptHandler+1
  3648   002BCC  C003  F08E         	movff	INT1_SetInterruptHandler@InterruptHandler+2,_INT1_InterruptHandler+2
  3649   002BD0  0012               	return		;funcret
  3650   002BD2                     __end_of_INT1_SetInterruptHandler:
  3651                           	callstack 0
  3652                           
  3653 ;; *************** function _INT0_SetInterruptHandler *****************
  3654 ;; Defined at:
  3655 ;;		line 92 in file "mcc_generated_files/system/src/interrupt.c"
  3656 ;; Parameters:    Size  Location     Type
  3657 ;;  InterruptHan    3    0[COMRAM] PTR FTN()void 
  3658 ;;		 -> INT0_DefaultInterruptHandler(1), 
  3659 ;; Auto vars:     Size  Location     Type
  3660 ;;		None
  3661 ;; Return value:  Size  Location     Type
  3662 ;;                  1    wreg      void 
  3663 ;; Registers used:
  3664 ;;		wreg, status,2, status,0
  3665 ;; Tracked objects:
  3666 ;;		On entry : 0/0
  3667 ;;		On exit  : 0/0
  3668 ;;		Unchanged: 0/0
  3669 ;; Data sizes:     COMRAM   BANK0   BANK1   BANK2   BANK3   BANK4   BANK5   BANK6   BANK7   BANK8   BANK9  BANK10  BANK1
      +1  BANK12  BANK13  BANK14  BANK15  BANK16  BANK17  BANK18  BANK19  BANK20  BANK21  BANK22  BANK23  BANK24  BANK25  BANK2
      +6  BANK27  BANK28  BANK29  BANK30  BANK31
  3670 ;;      Params:         3       0       0       0       0       0       0       0       0       0       0       0       
      +0       0       0       0       0       0       0       0       0       0       0       0       0       0       0       
      +0       0       0       0       0       0
  3671 ;;      Locals:         0       0       0       0       0       0       0       0       0       0       0       0       
      +0       0       0       0       0       0       0       0       0       0       0       0       0       0       0       
      +0       0       0       0       0       0
  3672 ;;      Temps:          0       0       0       0       0       0       0       0       0       0       0       0       
      +0       0       0       0       0       0       0       0       0       0       0       0       0       0       0       
      +0       0       0       0       0       0
  3673 ;;      Totals:         3       0       0       0       0       0       0       0       0       0       0       0       
      +0       0       0       0       0       0       0       0       0       0       0       0       0       0       0       
      +0       0       0       0       0       0
  3674 ;;Total ram usage:        3 bytes
  3675 ;; Hardware stack levels used: 1
  3676 ;; This function calls:
  3677 ;;		Nothing
  3678 ;; This function is called by:
  3679 ;;		_INTERRUPT_Initialize
  3680 ;; This function uses a non-reentrant model
  3681 ;;
  3682                           
  3683                           	psect	text29
  3684   002BD2                     __ptext29:
  3685                           	callstack 0
  3686   002BD2                     _INT0_SetInterruptHandler:
  3687                           	callstack 28
  3688   002BD2                     
  3689                           ;mcc_generated_files/system/src/interrupt.c: 93:     INT0_InterruptHandler = InterruptHa
      +                          ndler;
  3690   002BD2  C001  F054         	movff	INT0_SetInterruptHandler@InterruptHandler,_INT0_InterruptHandler
  3691   002BD6  C002  F055         	movff	INT0_SetInterruptHandler@InterruptHandler+1,_INT0_InterruptHandler+1
  3692   002BDA  C003  F056         	movff	INT0_SetInterruptHandler@InterruptHandler+2,_INT0_InterruptHandler+2
  3693   002BDE  0012               	return		;funcret
  3694   002BE0                     __end_of_INT0_SetInterruptHandler:
  3695                           	callstack 0
  3696                           
  3697 ;; *************** function _CLOCK_Initialize *****************
  3698 ;; Defined at:
  3699 ;;		line 37 in file "mcc_generated_files/system/src/clock.c"
  3700 ;; Parameters:    Size  Location     Type
  3701 ;;		None
  3702 ;; Auto vars:     Size  Location     Type
  3703 ;;		None
  3704 ;; Return value:  Size  Location     Type
  3705 ;;                  1    wreg      void 
  3706 ;; Registers used:
  3707 ;;		wreg, status,2
  3708 ;; Tracked objects:
  3709 ;;		On entry : 0/0
  3710 ;;		On exit  : 0/0
  3711 ;;		Unchanged: 0/0
  3712 ;; Data sizes:     COMRAM   BANK0   BANK1   BANK2   BANK3   BANK4   BANK5   BANK6   BANK7   BANK8   BANK9  BANK10  BANK1
      +1  BANK12  BANK13  BANK14  BANK15  BANK16  BANK17  BANK18  BANK19  BANK20  BANK21  BANK22  BANK23  BANK24  BANK25  BANK2
      +6  BANK27  BANK28  BANK29  BANK30  BANK31
  3713 ;;      Params:         0       0       0       0       0       0       0       0       0       0       0       0       
      +0       0       0       0       0       0       0       0       0       0       0       0       0       0       0       
      +0       0       0       0       0       0
  3714 ;;      Locals:         0       0       0       0       0       0       0       0       0       0       0       0       
      +0       0       0       0       0       0       0       0       0       0       0       0       0       0       0       
      +0       0       0       0       0       0
  3715 ;;      Temps:          0       0       0       0       0       0       0       0       0       0       0       0       
      +0       0       0       0       0       0       0       0       0       0       0       0       0       0       0       
      +0       0       0       0       0       0
  3716 ;;      Totals:         0       0       0       0       0       0       0       0       0       0       0       0       
      +0       0       0       0       0       0       0       0       0       0       0       0       0       0       0       
      +0       0       0       0       0       0
  3717 ;;Total ram usage:        0 bytes
  3718 ;; Hardware stack levels used: 1
  3719 ;; This function calls:
  3720 ;;		Nothing
  3721 ;; This function is called by:
  3722 ;;		_SYSTEM_Initialize
  3723 ;; This function uses a non-reentrant model
  3724 ;;
  3725                           
  3726                           	psect	text30
  3727   002B76                     __ptext30:
  3728                           	callstack 0
  3729   002B76                     _CLOCK_Initialize:
  3730                           	callstack 29
  3731   002B76                     
  3732                           ;mcc_generated_files/system/src/clock.c: 41:     OSCCON1 = 0x60;
  3733   002B76  0E60               	movlw	96
  3734   002B78  0139               	movlb	57	; () banked
  3735   002B7A  6FD9               	movwf	217,b	;volatile
  3736                           
  3737                           ;mcc_generated_files/system/src/clock.c: 43:     OSCCON3 = 0x0;
  3738   002B7C  0E00               	movlw	0
  3739   002B7E  6FDB               	movwf	219,b	;volatile
  3740                           
  3741                           ;mcc_generated_files/system/src/clock.c: 45:     OSCEN = 0x0;
  3742   002B80  0E00               	movlw	0
  3743   002B82  6FDD               	movwf	221,b	;volatile
  3744                           
  3745                           ;mcc_generated_files/system/src/clock.c: 47:     OSCFRQ = 0x4;
  3746   002B84  0E04               	movlw	4
  3747   002B86  6FDF               	movwf	223,b	;volatile
  3748                           
  3749                           ;mcc_generated_files/system/src/clock.c: 49:     OSCTUNE = 0x0;
  3750   002B88  0E00               	movlw	0
  3751   002B8A  6FDE               	movwf	222,b	;volatile
  3752   002B8C                     
  3753                           ; BSR set to: 57
  3754   002B8C  0012               	return		;funcret
  3755   002B8E                     __end_of_CLOCK_Initialize:
  3756                           	callstack 0
  3757                           
  3758 ;; *************** function _LCD_Init *****************
  3759 ;; Defined at:
  3760 ;;		line 38 in file "./LCD.h"
  3761 ;; Parameters:    Size  Location     Type
  3762 ;;		None
  3763 ;; Auto vars:     Size  Location     Type
  3764 ;;		None
  3765 ;; Return value:  Size  Location     Type
  3766 ;;                  1    wreg      void 
  3767 ;; Registers used:
  3768 ;;		wreg, status,2, status,0, cstack
  3769 ;; Tracked objects:
  3770 ;;		On entry : 0/0
  3771 ;;		On exit  : 0/0
  3772 ;;		Unchanged: 0/0
  3773 ;; Data sizes:     COMRAM   BANK0   BANK1   BANK2   BANK3   BANK4   BANK5   BANK6   BANK7   BANK8   BANK9  BANK10  BANK1
      +1  BANK12  BANK13  BANK14  BANK15  BANK16  BANK17  BANK18  BANK19  BANK20  BANK21  BANK22  BANK23  BANK24  BANK25  BANK2
      +6  BANK27  BANK28  BANK29  BANK30  BANK31
  3774 ;;      Params:         0       0       0       0       0       0       0       0       0       0       0       0       
      +0       0       0       0       0       0       0       0       0       0       0       0       0       0       0       
      +0       0       0       0       0       0
  3775 ;;      Locals:         0       0       0       0       0       0       0       0       0       0       0       0       
      +0       0       0       0       0       0       0       0       0       0       0       0       0       0       0       
      +0       0       0       0       0       0
  3776 ;;      Temps:          0       0       0       0       0       0       0       0       0       0       0       0       
      +0       0       0       0       0       0       0       0       0       0       0       0       0       0       0       
      +0       0       0       0       0       0
  3777 ;;      Totals:         0       0       0       0       0       0       0       0       0       0       0       0       
      +0       0       0       0       0       0       0       0       0       0       0       0       0       0       0       
      +0       0       0       0       0       0
  3778 ;;Total ram usage:        0 bytes
  3779 ;; Hardware stack levels used: 1
  3780 ;; Hardware stack levels required when called: 2
  3781 ;; This function calls:
  3782 ;;		_LCD_Command
  3783 ;;		_MSdelay
  3784 ;; This function is called by:
  3785 ;;		_main
  3786 ;; This function uses a non-reentrant model
  3787 ;;
  3788                           
  3789                           	psect	text31
  3790   002A44                     __ptext31:
  3791                           	callstack 0
  3792   002A44                     _LCD_Init:
  3793                           	callstack 28
  3794   002A44                     
  3795                           ;./LCD.h: 40:     MSdelay(15);
  3796   002A44  0E00               	movlw	0
  3797   002A46  6E02               	movwf	(MSdelay@val+1)^0,c
  3798   002A48  0E0F               	movlw	15
  3799   002A4A  6E01               	movwf	MSdelay@val^0,c
  3800   002A4C  EC5A  F014         	call	_MSdelay	;wreg free
  3801   002A50                     
  3802                           ;./LCD.h: 41:     TRISB = 0x00;
  3803   002A50  0E00               	movlw	0
  3804   002A52  6EC3               	movwf	195,c	;volatile
  3805   002A54                     
  3806                           ;./LCD.h: 42:     TRISA = 0x00;
  3807   002A54  0E00               	movlw	0
  3808   002A56  6EC2               	movwf	194,c	;volatile
  3809                           
  3810                           ;./LCD.h: 43:     LCD_Command(0x01);
  3811   002A58  0E01               	movlw	1
  3812   002A5A  EC9F  F015         	call	_LCD_Command
  3813                           
  3814                           ;./LCD.h: 44:     LCD_Command(0x38);
  3815   002A5E  0E38               	movlw	56
  3816   002A60  EC9F  F015         	call	_LCD_Command
  3817                           
  3818                           ;./LCD.h: 45:     LCD_Command(0x0c);
  3819   002A64  0E0C               	movlw	12
  3820   002A66  EC9F  F015         	call	_LCD_Command
  3821                           
  3822                           ;./LCD.h: 46:     LCD_Command(0x06);
  3823   002A6A  0E06               	movlw	6
  3824   002A6C  EC9F  F015         	call	_LCD_Command
  3825   002A70  0012               	return		;funcret
  3826   002A72                     __end_of_LCD_Init:
  3827                           	callstack 0
  3828                           
  3829 ;; *************** function _LCD_Clear *****************
  3830 ;; Defined at:
  3831 ;;		line 49 in file "./LCD.h"
  3832 ;; Parameters:    Size  Location     Type
  3833 ;;		None
  3834 ;; Auto vars:     Size  Location     Type
  3835 ;;		None
  3836 ;; Return value:  Size  Location     Type
  3837 ;;                  1    wreg      void 
  3838 ;; Registers used:
  3839 ;;		wreg, status,2, status,0, cstack
  3840 ;; Tracked objects:
  3841 ;;		On entry : 0/0
  3842 ;;		On exit  : 0/0
  3843 ;;		Unchanged: 0/0
  3844 ;; Data sizes:     COMRAM   BANK0   BANK1   BANK2   BANK3   BANK4   BANK5   BANK6   BANK7   BANK8   BANK9  BANK10  BANK1
      +1  BANK12  BANK13  BANK14  BANK15  BANK16  BANK17  BANK18  BANK19  BANK20  BANK21  BANK22  BANK23  BANK24  BANK25  BANK2
      +6  BANK27  BANK28  BANK29  BANK30  BANK31
  3845 ;;      Params:         0       0       0       0       0       0       0       0       0       0       0       0       
      +0       0       0       0       0       0       0       0       0       0       0       0       0       0       0       
      +0       0       0       0       0       0
  3846 ;;      Locals:         0       0       0       0       0       0       0       0       0       0       0       0       
      +0       0       0       0       0       0       0       0       0       0       0       0       0       0       0       
      +0       0       0       0       0       0
  3847 ;;      Temps:          0       0       0       0       0       0       0       0       0       0       0       0       
      +0       0       0       0       0       0       0       0       0       0       0       0       0       0       0       
      +0       0       0       0       0       0
  3848 ;;      Totals:         0       0       0       0       0       0       0       0       0       0       0       0       
      +0       0       0       0       0       0       0       0       0       0       0       0       0       0       0       
      +0       0       0       0       0       0
  3849 ;;Total ram usage:        0 bytes
  3850 ;; Hardware stack levels used: 1
  3851 ;; Hardware stack levels required when called: 2
  3852 ;; This function calls:
  3853 ;;		_LCD_Command
  3854 ;; This function is called by:
  3855 ;;		_main
  3856 ;; This function uses a non-reentrant model
  3857 ;;
  3858                           
  3859                           	psect	text32
  3860   002BEA                     __ptext32:
  3861                           	callstack 0
  3862   002BEA                     _LCD_Clear:
  3863                           	callstack 28
  3864   002BEA                     
  3865                           ;./LCD.h: 51:         LCD_Command(0x01);
  3866   002BEA  0E01               	movlw	1
  3867   002BEC  EC9F  F015         	call	_LCD_Command
  3868   002BF0  0012               	return		;funcret
  3869   002BF2                     __end_of_LCD_Clear:
  3870                           	callstack 0
  3871                           
  3872 ;; *************** function _LCD_Command *****************
  3873 ;; Defined at:
  3874 ;;		line 54 in file "./LCD.h"
  3875 ;; Parameters:    Size  Location     Type
  3876 ;;  cmd             1    wreg     unsigned char 
  3877 ;; Auto vars:     Size  Location     Type
  3878 ;;  cmd             1    6[COMRAM] unsigned char 
  3879 ;; Return value:  Size  Location     Type
  3880 ;;                  1    wreg      void 
  3881 ;; Registers used:
  3882 ;;		wreg, status,2, status,0, cstack
  3883 ;; Tracked objects:
  3884 ;;		On entry : 0/0
  3885 ;;		On exit  : 0/0
  3886 ;;		Unchanged: 0/0
  3887 ;; Data sizes:     COMRAM   BANK0   BANK1   BANK2   BANK3   BANK4   BANK5   BANK6   BANK7   BANK8   BANK9  BANK10  BANK1
      +1  BANK12  BANK13  BANK14  BANK15  BANK16  BANK17  BANK18  BANK19  BANK20  BANK21  BANK22  BANK23  BANK24  BANK25  BANK2
      +6  BANK27  BANK28  BANK29  BANK30  BANK31
  3888 ;;      Params:         0       0       0       0       0       0       0       0       0       0       0       0       
      +0       0       0       0       0       0       0       0       0       0       0       0       0       0       0       
      +0       0       0       0       0       0
  3889 ;;      Locals:         1       0       0       0       0       0       0       0       0       0       0       0       
      +0       0       0       0       0       0       0       0       0       0       0       0       0       0       0       
      +0       0       0       0       0       0
  3890 ;;      Temps:          0       0       0       0       0       0       0       0       0       0       0       0       
      +0       0       0       0       0       0       0       0       0       0       0       0       0       0       0       
      +0       0       0       0       0       0
  3891 ;;      Totals:         1       0       0       0       0       0       0       0       0       0       0       0       
      +0       0       0       0       0       0       0       0       0       0       0       0       0       0       0       
      +0       0       0       0       0       0
  3892 ;;Total ram usage:        1 bytes
  3893 ;; Hardware stack levels used: 1
  3894 ;; Hardware stack levels required when called: 1
  3895 ;; This function calls:
  3896 ;;		_MSdelay
  3897 ;; This function is called by:
  3898 ;;		_LCD_Init
  3899 ;;		_LCD_Clear
  3900 ;;		_LCD_String_xy
  3901 ;; This function uses a non-reentrant model
  3902 ;;
  3903                           
  3904                           	psect	text33
  3905   002B3E                     __ptext33:
  3906                           	callstack 0
  3907   002B3E                     _LCD_Command:
  3908                           	callstack 27
  3909                           
  3910                           ;incstack = 0
  3911                           ;LCD_Command@cmd stored from wreg
  3912   002B3E  6E07               	movwf	LCD_Command@cmd^0,c
  3913   002B40                     
  3914                           ;./LCD.h: 54: void LCD_Command(char cmd );./LCD.h: 55: {;./LCD.h: 56:     LATB= cmd;
  3915   002B40  0060  F01F  FFBB   	movff	LCD_Command@cmd,16315	;volatile
  3916   002B46                     
  3917                           ;./LCD.h: 57:     LATA0 = 0;
  3918   002B46  90BA               	bcf	16314,0,c	;volatile
  3919   002B48                     
  3920                           ;./LCD.h: 58:     LATA1 = 1;
  3921   002B48  82BA               	bsf	16314,1,c	;volatile
  3922   002B4A                     
  3923                           ;./LCD.h: 59:     __nop();
  3924   002B4A  0000               	nop	
  3925   002B4C                     
  3926                           ;./LCD.h: 60:     LATA1 = 0;
  3927   002B4C  92BA               	bcf	16314,1,c	;volatile
  3928   002B4E                     
  3929                           ;./LCD.h: 61:     MSdelay(3);
  3930   002B4E  0E00               	movlw	0
  3931   002B50  6E02               	movwf	(MSdelay@val+1)^0,c
  3932   002B52  0E03               	movlw	3
  3933   002B54  6E01               	movwf	MSdelay@val^0,c
  3934   002B56  EC5A  F014         	call	_MSdelay	;wreg free
  3935   002B5A  0012               	return		;funcret
  3936   002B5C                     __end_of_LCD_Command:
  3937                           	callstack 0
  3938                           
  3939 ;; *************** function _MSdelay *****************
  3940 ;; Defined at:
  3941 ;;		line 101 in file "./LCD.h"
  3942 ;; Parameters:    Size  Location     Type
  3943 ;;  val             2    0[COMRAM] unsigned int 
  3944 ;; Auto vars:     Size  Location     Type
  3945 ;;  j               2    4[COMRAM] unsigned int 
  3946 ;;  i               2    2[COMRAM] unsigned int 
  3947 ;; Return value:  Size  Location     Type
  3948 ;;                  1    wreg      void 
  3949 ;; Registers used:
  3950 ;;		wreg, status,2, status,0
  3951 ;; Tracked objects:
  3952 ;;		On entry : 0/0
  3953 ;;		On exit  : 0/0
  3954 ;;		Unchanged: 0/0
  3955 ;; Data sizes:     COMRAM   BANK0   BANK1   BANK2   BANK3   BANK4   BANK5   BANK6   BANK7   BANK8   BANK9  BANK10  BANK1
      +1  BANK12  BANK13  BANK14  BANK15  BANK16  BANK17  BANK18  BANK19  BANK20  BANK21  BANK22  BANK23  BANK24  BANK25  BANK2
      +6  BANK27  BANK28  BANK29  BANK30  BANK31
  3956 ;;      Params:         2       0       0       0       0       0       0       0       0       0       0       0       
      +0       0       0       0       0       0       0       0       0       0       0       0       0       0       0       
      +0       0       0       0       0       0
  3957 ;;      Locals:         4       0       0       0       0       0       0       0       0       0       0       0       
      +0       0       0       0       0       0       0       0       0       0       0       0       0       0       0       
      +0       0       0       0       0       0
  3958 ;;      Temps:          0       0       0       0       0       0       0       0       0       0       0       0       
      +0       0       0       0       0       0       0       0       0       0       0       0       0       0       0       
      +0       0       0       0       0       0
  3959 ;;      Totals:         6       0       0       0       0       0       0       0       0       0       0       0       
      +0       0       0       0       0       0       0       0       0       0       0       0       0       0       0       
      +0       0       0       0       0       0
  3960 ;;Total ram usage:        6 bytes
  3961 ;; Hardware stack levels used: 1
  3962 ;; This function calls:
  3963 ;;		Nothing
  3964 ;; This function is called by:
  3965 ;;		_LCD_Init
  3966 ;;		_LCD_Command
  3967 ;;		_LCD_Char
  3968 ;;		_main
  3969 ;;		_LightScan
  3970 ;;		_Decision
  3971 ;; This function uses a non-reentrant model
  3972 ;;
  3973                           
  3974                           	psect	text34
  3975   0028B4                     __ptext34:
  3976                           	callstack 0
  3977   0028B4                     _MSdelay:
  3978                           	callstack 26
  3979   0028B4                     
  3980                           ;./LCD.h: 101: void MSdelay(unsigned int val);./LCD.h: 102: {;./LCD.h: 103:      unsigne
      +                          d int i,j;;./LCD.h: 104:         for(i=0;i<val;i++)
  3981   0028B4  0E00               	movlw	0
  3982   0028B6  6E04               	movwf	(MSdelay@i+1)^0,c
  3983   0028B8  0E00               	movlw	0
  3984   0028BA  6E03               	movwf	MSdelay@i^0,c
  3985   0028BC  EF73  F014         	goto	l1912
  3986   0028C0                     l1900:
  3987                           
  3988                           ;./LCD.h: 105:             for(j=0;j<165;j++);
  3989   0028C0  0E00               	movlw	0
  3990   0028C2  6E06               	movwf	(MSdelay@j+1)^0,c
  3991   0028C4  0E00               	movlw	0
  3992   0028C6  6E05               	movwf	MSdelay@j^0,c
  3993   0028C8                     l1906:
  3994   0028C8  4A05               	infsnz	MSdelay@j^0,f,c
  3995   0028CA  2A06               	incf	(MSdelay@j+1)^0,f,c
  3996   0028CC  5006               	movf	(MSdelay@j+1)^0,w,c
  3997   0028CE  E109               	bnz	u740
  3998   0028D0  0EA5               	movlw	165
  3999   0028D2  5C05               	subwf	MSdelay@j^0,w,c
  4000   0028D4  A0D8               	btfss	status,0,c
  4001   0028D6  EF6F  F014         	goto	u741
  4002   0028DA  EF71  F014         	goto	u740
  4003   0028DE                     u741:
  4004   0028DE  EF64  F014         	goto	l1906
  4005   0028E2                     u740:
  4006   0028E2  4A03               	infsnz	MSdelay@i^0,f,c
  4007   0028E4  2A04               	incf	(MSdelay@i+1)^0,f,c
  4008   0028E6                     l1912:
  4009   0028E6  5001               	movf	MSdelay@val^0,w,c
  4010   0028E8  5C03               	subwf	MSdelay@i^0,w,c
  4011   0028EA  5002               	movf	(MSdelay@val+1)^0,w,c
  4012   0028EC  5804               	subwfb	(MSdelay@i+1)^0,w,c
  4013   0028EE  A0D8               	btfss	status,0,c
  4014   0028F0  EF7C  F014         	goto	u751
  4015   0028F4  EF7E  F014         	goto	u750
  4016   0028F8                     u751:
  4017   0028F8  EF60  F014         	goto	l1900
  4018   0028FC                     u750:
  4019   0028FC  0012               	return		;funcret
  4020   0028FE                     __end_of_MSdelay:
  4021                           	callstack 0
  4022                           
  4023                           	psect	rparam
  4024   000000                     
  4025                           	psect	config
  4026                           
  4027                           ;Config register CONFIG1L @ 0x300000
  4028                           ;	External Oscillator Selection
  4029                           ;	FEXTOSC = ECH, EC (external clock) above 8 MHz; PFM set to high power
  4030                           ;	Reset Oscillator Selection
  4031                           ;	RSTOSC = HFINTOSC_64MHZ, HFINTOSC with HFFRQ = 64 MHz and CDIV = 1:1
  4032   300000                     	org	3145728
  4033   300000  8F                 	db	143
  4034                           
  4035                           ;Config register CONFIG1H @ 0x300001
  4036                           ;	Clock out Enable bit
  4037                           ;	CLKOUTEN = OFF, CLKOUT function is disabled
  4038                           ;	PRLOCKED One-Way Set Enable bit
  4039                           ;	PR1WAY = ON, PRLOCK bit can be cleared and set only once
  4040                           ;	Clock Switch Enable bit
  4041                           ;	CSWEN = ON, Writing to NOSC and NDIV is allowed
  4042                           ;	Fail-Safe Clock Monitor Enable bit
  4043                           ;	FCMEN = ON, Fail-Safe Clock Monitor enabled
  4044   300001                     	org	3145729
  4045   300001  FF                 	db	255
  4046                           
  4047                           ;Config register CONFIG2L @ 0x300002
  4048                           ;	MCLR Enable bit
  4049                           ;	MCLRE = EXTMCLR, If LVP = 0, MCLR pin is MCLR; If LVP = 1, RE3 pin function is MCLR
  4050                           ;	Power-up timer selection bits
  4051                           ;	PWRTS = PWRT_OFF, PWRT is disabled
  4052                           ;	Multi-vector enable bit
  4053                           ;	MVECEN = OFF, Interrupt contoller does not use vector table to prioritze interrupts
  4054                           ;	IVTLOCK bit One-way set enable bit
  4055                           ;	IVT1WAY = ON, IVTLOCK bit can be cleared and set only once
  4056                           ;	Low Power BOR Enable bit
  4057                           ;	LPBOREN = OFF, ULPBOR disabled
  4058                           ;	Brown-out Reset Enable bits
  4059                           ;	BOREN = SBORDIS, Brown-out Reset enabled , SBOREN bit is ignored
  4060   300002                     	org	3145730
  4061   300002  F7                 	db	247
  4062                           
  4063                           ;Config register CONFIG2H @ 0x300003
  4064                           ;	Brown-out Reset Voltage Selection bits
  4065                           ;	BORV = VBOR_2P45, Brown-out Reset Voltage (VBOR) set to 2.45V
  4066                           ;	ZCD Disable bit
  4067                           ;	ZCD = OFF, ZCD disabled. ZCD can be enabled by setting the ZCDSEN bit of ZCDCON
  4068                           ;	PPSLOCK bit One-Way Set Enable bit
  4069                           ;	PPS1WAY = ON, PPSLOCK bit can be cleared and set only once; PPS registers remain locke
      +                          d after one clear/set cycle
  4070                           ;	Stack Full/Underflow Reset Enable bit
  4071                           ;	STVREN = ON, Stack full/underflow will cause Reset
  4072                           ;	Debugger Enable bit
  4073                           ;	DEBUG = 0x1, unprogrammed default
  4074                           ;	Extended Instruction Set Enable bit
  4075                           ;	XINST = OFF, Extended Instruction Set and Indexed Addressing Mode disabled
  4076   300003                     	org	3145731
  4077   300003  FF                 	db	255
  4078                           
  4079                           ;Config register CONFIG3L @ 0x300004
  4080                           ;	WDT Period selection bits
  4081                           ;	WDTCPS = WDTCPS_31, Divider ratio 1:65536; software control of WDTPS
  4082                           ;	WDT operating mode
  4083                           ;	WDTE = OFF, WDT Disabled; SWDTEN is ignored
  4084   300004                     	org	3145732
  4085   300004  9F                 	db	159
  4086                           
  4087                           ;Config register CONFIG3H @ 0x300005
  4088                           ;	WDT Window Select bits
  4089                           ;	WDTCWS = WDTCWS_7, window always open (100%); software control; keyed access not requi
      +                          red
  4090                           ;	WDT input clock selector
  4091                           ;	WDTCCS = SC, Software Control
  4092   300005                     	org	3145733
  4093   300005  FF                 	db	255
  4094                           
  4095                           ;Config register CONFIG4L @ 0x300006
  4096                           ;	Boot Block Size selection bits
  4097                           ;	BBSIZE = BBSIZE_512, Boot Block size is 512 words
  4098                           ;	Boot Block enable bit
  4099                           ;	BBEN = OFF, Boot block disabled
  4100                           ;	Storage Area Flash enable bit
  4101                           ;	SAFEN = OFF, SAF disabled
  4102                           ;	Application Block write protection bit
  4103                           ;	WRTAPP = OFF, Application Block not write protected
  4104   300006                     	org	3145734
  4105   300006  FF                 	db	255
  4106                           
  4107                           ;Config register CONFIG4H @ 0x300007
  4108                           ;	Boot Block Write Protection bit
  4109                           ;	WRTB = OFF, Boot Block not write-protected
  4110                           ;	Configuration Register Write Protection bit
  4111                           ;	WRTC = OFF, Configuration registers not write-protected
  4112                           ;	Data EEPROM Write Protection bit
  4113                           ;	WRTD = OFF, Data EEPROM not write-protected
  4114                           ;	SAF Write protection bit
  4115                           ;	WRTSAF = OFF, SAF not Write Protected
  4116                           ;	Low Voltage Programming Enable bit
  4117                           ;	LVP = ON, Low voltage programming enabled. MCLR/VPP pin function is MCLR. MCLRE config
      +                          uration bit is ignored
  4118   300007                     	org	3145735
  4119   300007  FF                 	db	255
  4120                           
  4121                           ;Config register CONFIG5L @ 0x300008
  4122                           ;	PFM and Data EEPROM Code Protection bit
  4123                           ;	CP = OFF, PFM and Data EEPROM code protection disabled
  4124   300008                     	org	3145736
  4125   300008  FF                 	db	255
  4126                           
  4127                           ;Config register CONFIG5H @ 0x300009
  4128                           ;	unspecified, using default values
  4129   300009                     	org	3145737
  4130   300009  FF                 	db	255
  4131                           tosu	equ	0x3FFF
  4132                           tosh	equ	0x3FFE
  4133                           tosl	equ	0x3FFD
  4134                           stkptr	equ	0x3FFC
  4135                           pclatu	equ	0x3FFB
  4136                           pclath	equ	0x3FFA
  4137                           pcl	equ	0x3FF9
  4138                           tblptru	equ	0x3FF8
  4139                           tblptrh	equ	0x3FF7
  4140                           tblptrl	equ	0x3FF6
  4141                           tablat	equ	0x3FF5
  4142                           prodh	equ	0x3FF4
  4143                           prodl	equ	0x3FF3
  4144                           indf0	equ	0x3FEF
  4145                           postinc0	equ	0x3FEE
  4146                           postdec0	equ	0x3FED
  4147                           preinc0	equ	0x3FEC
  4148                           plusw0	equ	0x3FEB
  4149                           fsr0h	equ	0x3FEA
  4150                           fsr0l	equ	0x3FE9
  4151                           wreg	equ	0x3FE8
  4152                           indf1	equ	0x3FE7
  4153                           postinc1	equ	0x3FE6
  4154                           postdec1	equ	0x3FE5
  4155                           preinc1	equ	0x3FE4
  4156                           plusw1	equ	0x3FE3
  4157                           fsr1h	equ	0x3FE2
  4158                           fsr1l	equ	0x3FE1
  4159                           bsr	equ	0x3FE0
  4160                           indf2	equ	0x3FDF
  4161                           postinc2	equ	0x3FDE
  4162                           postdec2	equ	0x3FDD
  4163                           preinc2	equ	0x3FDC
  4164                           plusw2	equ	0x3FDB
  4165                           fsr2h	equ	0x3FDA
  4166                           fsr2l	equ	0x3FD9
  4167                           status	equ	0x3FD8

Data Sizes:
    Strings     65
    Constant    72
    Data        3
    BSS         61
    Persistent  0
    Stack       0

Auto Spaces:
    Space          Size  Autos    Used
    COMRAM           95     83      94
    BANK0           160      0      53
    BANK1           256      0       0
    BANK2           256      0       0
    BANK3           256      0       0
    BANK4           256      0       0
    BANK5           256      0       0
    BANK6           256      0       0
    BANK7           256      0       0
    BANK8           256      0       0
    BANK9           256      0       0
    BANK10          256      0       0
    BANK11          256      0       0
    BANK12          256      0       0
    BANK13          256      0       0
    BANK14          256      0       0
    BANK15          256      0       0
    BANK16          256      0       0
    BANK17          256      0       0
    BANK18          256      0       0
    BANK19          256      0       0
    BANK20          256      0       0
    BANK21          256      0       0
    BANK22          256      0       0
    BANK23          256      0       0
    BANK24          256      0       0
    BANK25          256      0       0
    BANK26          256      0       0
    BANK27          256      0       0
    BANK28          256      0       0
    BANK29          256      0       0
    BANK30          256      0       0
    BANK31          256      0       0

Pointer List with Targets:

    f$.$buffer	PTR unsigned char  size(2) Largest target is 0

    f$.$source	PTR const unsigned char  size(2) Largest target is 0

    fputc@fp	PTR struct _IO_FILE size(2) Largest target is 12
		 -> sprintf@f(COMRAM[12]), NULL(NULL[0]), 

    fputc@fp$.$buffer	PTR unsigned char  size(2) Largest target is 0

    fputc@fp$.$source	PTR const unsigned char  size(2) Largest target is 0

    INT0_InterruptHandler	PTR FTN()void  size(3) Largest target is 1
		 -> INT0_DefaultInterruptHandler(), NULL(), 

    INT0_SetInterruptHandler@InterruptHandler	PTR FTN()void  size(3) Largest target is 1
		 -> INT0_DefaultInterruptHandler(), 

    INT1_InterruptHandler	PTR FTN()void  size(3) Largest target is 1
		 -> INT1_DefaultInterruptHandler(), NULL(), 

    INT1_SetInterruptHandler@InterruptHandler	PTR FTN()void  size(3) Largest target is 1
		 -> INT1_DefaultInterruptHandler(), 

    INT2_InterruptHandler	PTR FTN()void  size(3) Largest target is 1
		 -> INT2_DefaultInterruptHandler(), NULL(), 

    INT2_SetInterruptHandler@InterruptHandler	PTR FTN()void  size(3) Largest target is 1
		 -> INT2_DefaultInterruptHandler(), 

    LCD_String@msg	PTR const unsigned char  size(2) Largest target is 20
		 -> read@data(COMRAM[20]), STR_1(CODE[9]), STR_2(CODE[7]), STR_3(CODE[12]), 
		 -> STR_6(CODE[3]), 

    LCD_String_xy@msg	PTR const unsigned char  size(2) Largest target is 20
		 -> read@data(COMRAM[20]), STR_1(CODE[9]), STR_2(CODE[7]), STR_3(CODE[12]), 
		 -> STR_6(CODE[3]), 

    printf@ap	PTR void [1] size(1) Largest target is 2
		 -> ?_printf(COMRAM[2]), ?_sprintf(COMRAM[2]), 

    printf@fmt	PTR const unsigned char  size(1) Largest target is 18
		 -> STR_4(CODE[10]), STR_7(CODE[18]), 

    S1646$buffer	PTR unsigned char  size(2) Largest target is 0

    S1646$source	PTR const unsigned char  size(2) Largest target is 0

    S329$20$0	PTR FTN()void  size(3) Largest target is 1
		 -> UART2_DefaultFramingErrorCallback(), 

    S329$21$0	PTR FTN()void  size(3) Largest target is 1
		 -> UART2_DefaultOverrunErrorCallback(), 

    S329$22$0	PTR FTN()void  size(3) Largest target is 1
		 -> UART2_DefaultParityErrorCallback(), 

    S329$AutoBaudEventEnableGet	PTR FTN()_Bool  size(3) Largest target is 1
		 -> NULL(), 

    S329$AutoBaudQuery	PTR FTN()_Bool  size(3) Largest target is 1
		 -> UART2_AutoBaudQuery(), 

    S329$AutoBaudSet	PTR FTN(_Bool ,)void  size(3) Largest target is 1
		 -> UART2_AutoBaudSet(), 

    S329$BaudRateGet	PTR FTN()unsigned long  size(3) Largest target is 1
		 -> NULL(), 

    S329$BaudRateSet	PTR FTN(unsigned long ,)void  size(3) Largest target is 1
		 -> NULL(), 

    S329$BRGCountGet	PTR FTN()unsigned long  size(3) Largest target is 1
		 -> NULL(), 

    S329$BRGCountSet	PTR FTN(unsigned long ,)void  size(3) Largest target is 1
		 -> NULL(), 

    S329$Deinitialize	PTR FTN()void  size(3) Largest target is 1
		 -> UART2_Deinitialize(), 

    S329$ErrorGet	PTR FTN()unsigned int  size(3) Largest target is 2
		 -> UART2_ErrorGet(), 

    S329$EventCallbackRegister	PTR FTN(PTR FTN()void ,)void  size(3) Largest target is 1
		 -> NULL(), 

    S329$FramingErrorCallbackRegister	PTR FTN(PTR FTN()void ,)void  size(3) Largest target is 1
		 -> UART2_FramingErrorCallbackRegister(), 

    S329$Initialize	PTR FTN()void  size(3) Largest target is 1
		 -> UART2_Initialize(), 

    S329$IsRxReady	PTR FTN()_Bool  size(3) Largest target is 1
		 -> UART2_IsRxReady(), 

    S329$IsTxDone	PTR FTN()_Bool  size(3) Largest target is 1
		 -> UART2_IsTxDone(), 

    S329$IsTxReady	PTR FTN()_Bool  size(3) Largest target is 1
		 -> UART2_IsTxReady(), 

    S329$OverrunErrorCallbackRegister	PTR FTN(PTR FTN()void ,)void  size(3) Largest target is 1
		 -> UART2_OverrunErrorCallbackRegister(), 

    S329$ParityErrorCallbackRegister	PTR FTN(PTR FTN()void ,)void  size(3) Largest target is 1
		 -> UART2_ParityErrorCallbackRegister(), 

    S329$Read	PTR FTN()unsigned char  size(3) Largest target is 1
		 -> UART2_Read(), 

    S329$RxCompleteCallbackRegister	PTR FTN(PTR FTN()void ,)void  size(3) Largest target is 1
		 -> NULL(), 

    S329$TransmitDisable	PTR FTN()void  size(3) Largest target is 1
		 -> UART2_TransmitDisable(), 

    S329$TransmitEnable	PTR FTN()void  size(3) Largest target is 1
		 -> UART2_TransmitEnable(), 

    S329$TxCollisionCallbackRegister	PTR FTN(PTR FTN()void ,)void  size(3) Largest target is 1
		 -> NULL(), 

    S329$TxCompleteCallbackRegister	PTR FTN(PTR FTN()void ,)void  size(3) Largest target is 1
		 -> NULL(), 

    S329$Write	PTR FTN(unsigned char ,)void  size(3) Largest target is 1
		 -> UART2_Write(), 

    sprintf@ap	PTR void [1] size(1) Largest target is 2
		 -> ?_printf(COMRAM[2]), ?_sprintf(COMRAM[2]), 

    sprintf@fmt	PTR const unsigned char  size(1) Largest target is 6
		 -> STR_5(CODE[6]), 

    sprintf@s	PTR unsigned char  size(1) Largest target is 20
		 -> read@data(COMRAM[20]), 

    UART2$AutoBaudEventEnableGet	PTR FTN()_Bool  size(3) Largest target is 1
		 -> NULL(), 

    UART2$AutoBaudQuery	PTR FTN()_Bool  size(3) Largest target is 1
		 -> UART2_AutoBaudQuery(), 

    UART2$AutoBaudSet	PTR FTN(_Bool ,)void  size(3) Largest target is 1
		 -> UART2_AutoBaudSet(), 

    UART2$BaudRateGet	PTR FTN()unsigned long  size(3) Largest target is 1
		 -> NULL(), 

    UART2$BaudRateSet	PTR FTN(unsigned long ,)void  size(3) Largest target is 1
		 -> NULL(), 

    UART2$BRGCountGet	PTR FTN()unsigned long  size(3) Largest target is 1
		 -> NULL(), 

    UART2$BRGCountSet	PTR FTN(unsigned long ,)void  size(3) Largest target is 1
		 -> NULL(), 

    UART2$Deinitialize	PTR FTN()void  size(3) Largest target is 1
		 -> UART2_Deinitialize(), 

    UART2$ErrorGet	PTR FTN()unsigned int  size(3) Largest target is 2
		 -> UART2_ErrorGet(), 

    UART2$EventCallbackRegister	PTR FTN(PTR FTN()void ,)void  size(3) Largest target is 1
		 -> NULL(), 

    UART2$FramingErrorCallbackRegister	PTR FTN(PTR FTN()void ,)void  size(3) Largest target is 1
		 -> UART2_FramingErrorCallbackRegister(), 

    UART2$Initialize	PTR FTN()void  size(3) Largest target is 1
		 -> UART2_Initialize(), 

    UART2$IsRxReady	PTR FTN()_Bool  size(3) Largest target is 1
		 -> UART2_IsRxReady(), 

    UART2$IsTxDone	PTR FTN()_Bool  size(3) Largest target is 1
		 -> UART2_IsTxDone(), 

    UART2$IsTxReady	PTR FTN()_Bool  size(3) Largest target is 1
		 -> UART2_IsTxReady(), 

    UART2$OverrunErrorCallbackRegister	PTR FTN(PTR FTN()void ,)void  size(3) Largest target is 1
		 -> UART2_OverrunErrorCallbackRegister(), 

    UART2$ParityErrorCallbackRegister	PTR FTN(PTR FTN()void ,)void  size(3) Largest target is 1
		 -> UART2_ParityErrorCallbackRegister(), 

    UART2$Read	PTR FTN()unsigned char  size(3) Largest target is 1
		 -> UART2_Read(), 

    UART2$RxCompleteCallbackRegister	PTR FTN(PTR FTN()void ,)void  size(3) Largest target is 1
		 -> NULL(), 

    UART2$TransmitDisable	PTR FTN()void  size(3) Largest target is 1
		 -> UART2_TransmitDisable(), 

    UART2$TransmitEnable	PTR FTN()void  size(3) Largest target is 1
		 -> UART2_TransmitEnable(), 

    UART2$TxCollisionCallbackRegister	PTR FTN(PTR FTN()void ,)void  size(3) Largest target is 1
		 -> NULL(), 

    UART2$TxCompleteCallbackRegister	PTR FTN(PTR FTN()void ,)void  size(3) Largest target is 1
		 -> NULL(), 

    UART2$Write	PTR FTN(unsigned char ,)void  size(3) Largest target is 1
		 -> UART2_Write(), 

    UART2_FramingErrorCallbackRegister@callbackHandler	PTR FTN()void  size(3) Largest target is 1
		 -> UART2_DefaultFramingErrorCallback(), 

    UART2_FramingErrorHandler	PTR FTN()void  size(3) Largest target is 1
		 -> UART2_DefaultFramingErrorCallback(), NULL(), 

    UART2_OverrunErrorCallbackRegister@callbackHandler	PTR FTN()void  size(3) Largest target is 1
		 -> UART2_DefaultOverrunErrorCallback(), 

    UART2_OverrunErrorHandler	PTR FTN()void  size(3) Largest target is 1
		 -> UART2_DefaultOverrunErrorCallback(), NULL(), 

    UART2_ParityErrorCallbackRegister@callbackHandler	PTR FTN()void  size(3) Largest target is 1
		 -> UART2_DefaultParityErrorCallback(), 

    UART2_ParityErrorHandler	PTR FTN()void  size(3) Largest target is 1
		 -> UART2_DefaultParityErrorCallback(), NULL(), 

    vfpfcnvrt@ap	PTR PTR void  size(1) Largest target is 1
		 -> printf@ap(COMRAM[1]), sprintf@ap(COMRAM[1]), 

    vfpfcnvrt@cp	PTR unsigned char  size(1) Largest target is 18
		 -> STR_4(CODE[10]), STR_5(CODE[6]), STR_7(CODE[18]), 

    vfpfcnvrt@fmt	PTR PTR unsigned char  size(1) Largest target is 1
		 -> vfprintf@cfmt(COMRAM[1]), 

    vfpfcnvrt@fp	PTR struct _IO_FILE size(2) Largest target is 12
		 -> sprintf@f(COMRAM[12]), NULL(NULL[0]), 

    vfprintf@ap	PTR PTR void  size(1) Largest target is 1
		 -> printf@ap(COMRAM[1]), sprintf@ap(COMRAM[1]), 

    vfprintf@cfmt	PTR unsigned char  size(1) Largest target is 18
		 -> STR_4(CODE[10]), STR_5(CODE[6]), STR_7(CODE[18]), 

    vfprintf@fmt	PTR const unsigned char  size(1) Largest target is 18
		 -> STR_4(CODE[10]), STR_5(CODE[6]), STR_7(CODE[18]), 

    vfprintf@fp	PTR struct _IO_FILE size(2) Largest target is 12
		 -> sprintf@f(COMRAM[12]), NULL(NULL[0]), 


Critical Paths under _main in COMRAM

    _main->_read
    _read->_sprintf
    _sprintf->_vfprintf
    _printf->_vfprintf
    _vfprintf->_vfpfcnvrt
    _vfpfcnvrt->_fputc
    _fputc->_putch
    _putch->_UART2_IsTxReady
    _putch->_UART2_Write
    _LCD_String_xy->_LCD_String
    _LCD_String->_LCD_Char
    _LCD_Char->_MSdelay
    _TF_Luna_Trigger->_UART2_IsTxReady
    _TF_Luna_Trigger->_UART2_Write
    _TF_Luna_Send_Freq->_UART2_IsTxReady
    _TF_Luna_Send_Freq->_UART2_Write
    _UART2_Initialize->_UART2_FramingErrorCallbackRegister
    _UART2_Initialize->_UART2_OverrunErrorCallbackRegister
    _UART2_Initialize->_UART2_ParityErrorCallbackRegister
    _INTERRUPT_Initialize->_INT0_SetInterruptHandler
    _INTERRUPT_Initialize->_INT1_SetInterruptHandler
    _INTERRUPT_Initialize->_INT2_SetInterruptHandler
    _LCD_Init->_LCD_Command
    _LCD_Clear->_LCD_Command
    _LCD_Command->_MSdelay

Critical Paths under _main in BANK0

    None.

Critical Paths under _main in BANK1

    None.

Critical Paths under _main in BANK2

    None.

Critical Paths under _main in BANK3

    None.

Critical Paths under _main in BANK4

    None.

Critical Paths under _main in BANK5

    None.

Critical Paths under _main in BANK6

    None.

Critical Paths under _main in BANK7

    None.

Critical Paths under _main in BANK8

    None.

Critical Paths under _main in BANK9

    None.

Critical Paths under _main in BANK10

    None.

Critical Paths under _main in BANK11

    None.

Critical Paths under _main in BANK12

    None.

Critical Paths under _main in BANK13

    None.

Critical Paths under _main in BANK14

    None.

Critical Paths under _main in BANK15

    None.

Critical Paths under _main in BANK16

    None.

Critical Paths under _main in BANK17

    None.

Critical Paths under _main in BANK18

    None.

Critical Paths under _main in BANK19

    None.

Critical Paths under _main in BANK20

    None.

Critical Paths under _main in BANK21

    None.

Critical Paths under _main in BANK22

    None.

Critical Paths under _main in BANK23

    None.

Critical Paths under _main in BANK24

    None.

Critical Paths under _main in BANK25

    None.

Critical Paths under _main in BANK26

    None.

Critical Paths under _main in BANK27

    None.

Critical Paths under _main in BANK28

    None.

Critical Paths under _main in BANK29

    None.

Critical Paths under _main in BANK30

    None.

Critical Paths under _main in BANK31

    None.

Call Graph Tables:

 ---------------------------------------------------------------------------------
 (Depth) Function   	        Calls       Base Space   Used Autos Params    Refs
 ---------------------------------------------------------------------------------
 (0) _main                                                 0     0      0   22497
                          _LCD_Clear
                           _LCD_Init
                      _LCD_String_xy
                            _MSdelay
                  _SYSTEM_Initialize
                  _TF_Luna_Send_Freq
                    _TF_Luna_Trigger
                   _UART2_Initialize
                _UART2_ReceiveEnable
                             _printf
                               _read
 ---------------------------------------------------------------------------------
 (1) _read                                                76    76      0    9715
                                             44 COMRAM    39    39      0
                      _LCD_String_xy
                    _UART2_IsRxReady *
                         _UART2_Read *
                             _printf
                            _sprintf
 ---------------------------------------------------------------------------------
 (2) _sprintf                                             19    15      4    3077
                                             27 COMRAM    17    13      4
                           _vfprintf
 ---------------------------------------------------------------------------------
 (2) _printf                                               6     3      3    2932
                                             27 COMRAM     4     1      3
                           _vfprintf
 ---------------------------------------------------------------------------------
 (3) _vfprintf                                             5     1      4    2726
                                             22 COMRAM     5     1      4
                          _vfpfcnvrt
 ---------------------------------------------------------------------------------
 (4) _vfpfcnvrt                                           12     8      4    2148
                                             11 COMRAM    11     7      4
                            ___lwdiv
                            ___lwmod
                              _fputc
 ---------------------------------------------------------------------------------
 (5) _fputc                                                9     5      4     850
                                              2 COMRAM     9     5      4
                              _putch
 ---------------------------------------------------------------------------------
 (6) _putch                                                1     1      0      68
                                              1 COMRAM     1     1      0
                    _UART2_IsTxReady
                        _UART2_Write
 ---------------------------------------------------------------------------------
 (5) ___lwmod                                              5     1      4     311
                                              0 COMRAM     5     1      4
 ---------------------------------------------------------------------------------
 (5) ___lwdiv                                              7     3      4     314
                                              0 COMRAM     7     3      4
 ---------------------------------------------------------------------------------
 (2) _UART2_Read                                           0     0      0       0
 ---------------------------------------------------------------------------------
 (2) _UART2_IsRxReady                                      0     0      0       0
 ---------------------------------------------------------------------------------
 (2) _LCD_String_xy                                        5     2      3    3220
                                              9 COMRAM     5     2      3
                        _LCD_Command
                         _LCD_String
 ---------------------------------------------------------------------------------
 (3) _LCD_String                                           2     0      2    1223
                                              7 COMRAM     2     0      2
                           _LCD_Char
 ---------------------------------------------------------------------------------
 (4) _LCD_Char                                             1     1      0    1102
                                              6 COMRAM     1     1      0
                            _MSdelay
 ---------------------------------------------------------------------------------
 (1) _UART2_ReceiveEnable                                  0     0      0       0
 ---------------------------------------------------------------------------------
 (1) _TF_Luna_Trigger                                     11     8      3     504
                                              1 COMRAM    11     8      3
                    _UART2_IsTxReady *
                        _UART2_Write *
 ---------------------------------------------------------------------------------
 (1) _TF_Luna_Send_Freq                                   13     8      5     748
                                              1 COMRAM    13     8      5
                    _UART2_IsTxReady *
                        _UART2_Write *
 ---------------------------------------------------------------------------------
 (7) _UART2_Write                                          1     1      0      22
                                              0 COMRAM     1     1      0
 ---------------------------------------------------------------------------------
 (7) _UART2_IsTxReady                                      1     1      0      24
                                              0 COMRAM     1     1      0
 ---------------------------------------------------------------------------------
 (1) _SYSTEM_Initialize                                    0     0      0     654
                   _CLOCK_Initialize
               _INTERRUPT_Initialize
             _PIN_MANAGER_Initialize
                   _UART2_Initialize
 ---------------------------------------------------------------------------------
 (1) _UART2_Initialize                                     0     0      0     360
 _UART2_FramingErrorCallbackRegister
 _UART2_OverrunErrorCallbackRegister
  _UART2_ParityErrorCallbackRegister
 ---------------------------------------------------------------------------------
 (2) _UART2_ParityErrorCallbackRegister                    3     0      3     120
                                              0 COMRAM     3     0      3
 ---------------------------------------------------------------------------------
 (2) _UART2_OverrunErrorCallbackRegister                   3     0      3     120
                                              0 COMRAM     3     0      3
 ---------------------------------------------------------------------------------
 (2) _UART2_FramingErrorCallbackRegister                   3     0      3     120
                                              0 COMRAM     3     0      3
 ---------------------------------------------------------------------------------
 (2) _PIN_MANAGER_Initialize                               0     0      0       0
 ---------------------------------------------------------------------------------
 (2) _INTERRUPT_Initialize                                 0     0      0     294
           _INT0_SetInterruptHandler
           _INT1_SetInterruptHandler
           _INT2_SetInterruptHandler
 ---------------------------------------------------------------------------------
 (3) _INT2_SetInterruptHandler                             3     0      3      98
                                              0 COMRAM     3     0      3
 ---------------------------------------------------------------------------------
 (3) _INT1_SetInterruptHandler                             3     0      3      98
                                              0 COMRAM     3     0      3
 ---------------------------------------------------------------------------------
 (3) _INT0_SetInterruptHandler                             3     0      3      98
                                              0 COMRAM     3     0      3
 ---------------------------------------------------------------------------------
 (2) _CLOCK_Initialize                                     0     0      0       0
 ---------------------------------------------------------------------------------
 (1) _LCD_Init                                             0     0      0    2182
                        _LCD_Command
                            _MSdelay
 ---------------------------------------------------------------------------------
 (1) _LCD_Clear                                            0     0      0    1102
                        _LCD_Command
 ---------------------------------------------------------------------------------
 (3) _LCD_Command                                          1     1      0    1102
                                              6 COMRAM     1     1      0
                            _MSdelay
 ---------------------------------------------------------------------------------
 (5) _MSdelay                                              6     4      2    1080
                                              0 COMRAM     6     4      2
 ---------------------------------------------------------------------------------
 Estimated maximum stack depth 7
 ---------------------------------------------------------------------------------

 Call Graph Graphs:

 _main (ROOT)
   _LCD_Clear
     _LCD_Command
       _MSdelay
   _LCD_Init
     _LCD_Command
     _MSdelay
   _LCD_String_xy
     _LCD_Command
     _LCD_String
       _LCD_Char
         _MSdelay
   _MSdelay
   _SYSTEM_Initialize
     _CLOCK_Initialize
     _INTERRUPT_Initialize
       _INT0_SetInterruptHandler
       _INT1_SetInterruptHandler
       _INT2_SetInterruptHandler
     _PIN_MANAGER_Initialize
     _UART2_Initialize
       _UART2_FramingErrorCallbackRegister
       _UART2_OverrunErrorCallbackRegister
       _UART2_ParityErrorCallbackRegister
   _TF_Luna_Send_Freq
     _UART2_IsTxReady *
     _UART2_Write *
   _TF_Luna_Trigger
     _UART2_IsTxReady *
     _UART2_Write *
   _UART2_Initialize
   _UART2_ReceiveEnable
   _printf
     _vfprintf
       _vfpfcnvrt
         ___lwdiv
         ___lwmod
         _fputc
           _putch
             _UART2_IsTxReady
             _UART2_Write
   _read
     _LCD_String_xy
     _UART2_IsRxReady *
     _UART2_Read *
     _printf *
     _sprintf *
       _vfprintf

 Address spaces:
Name               Size   Autos  Total    Cost      Usage
BIGRAM            1FFF      0       0      97        0.0%
EEDATA             400      0       0       0        0.0%
BITBIGSFRlhhhhh    2E7      0       0      80        0.0%
BITBIGSFRlhhhhh    1D7      0       0      74        0.0%
BITBIGSFRllll      1A1      0       0      96        0.0%
BITBANK31          100      0       0      67        0.0%
BANK31             100      0       0      68        0.0%
BITBANK30          100      0       0      65        0.0%
BANK30             100      0       0      66        0.0%
BITBANK29          100      0       0      63        0.0%
BANK29             100      0       0      64        0.0%
BITBANK28          100      0       0      61        0.0%
BANK28             100      0       0      62        0.0%
BITBANK27          100      0       0      59        0.0%
BANK27             100      0       0      60        0.0%
BITBANK26          100      0       0      57        0.0%
BANK26             100      0       0      58        0.0%
BITBANK25          100      0       0      55        0.0%
BANK25             100      0       0      56        0.0%
BITBANK24          100      0       0      53        0.0%
BANK24             100      0       0      54        0.0%
BITBANK23          100      0       0      51        0.0%
BANK23             100      0       0      52        0.0%
BITBANK22          100      0       0      49        0.0%
BANK22             100      0       0      50        0.0%
BITBANK21          100      0       0      47        0.0%
BANK21             100      0       0      48        0.0%
BITBANK20          100      0       0      45        0.0%
BANK20             100      0       0      46        0.0%
BITBANK19          100      0       0      43        0.0%
BANK19             100      0       0      44        0.0%
BITBANK18          100      0       0      41        0.0%
BANK18             100      0       0      42        0.0%
BITBANK17          100      0       0      39        0.0%
BANK17             100      0       0      40        0.0%
BITBANK16          100      0       0      37        0.0%
BANK16             100      0       0      38        0.0%
BITBANK15          100      0       0      35        0.0%
BANK15             100      0       0      36        0.0%
BITBANK14          100      0       0      33        0.0%
BANK14             100      0       0      34        0.0%
BITBANK13          100      0       0      31        0.0%
BANK13             100      0       0      32        0.0%
BITBANK12          100      0       0      29        0.0%
BANK12             100      0       0      30        0.0%
BITBANK11          100      0       0      27        0.0%
BANK11             100      0       0      28        0.0%
BITBANK10          100      0       0      25        0.0%
BANK10             100      0       0      26        0.0%
BITBANK9           100      0       0      23        0.0%
BANK9              100      0       0      24        0.0%
BITBANK8           100      0       0      21        0.0%
BANK8              100      0       0      22        0.0%
BITBANK7           100      0       0      19        0.0%
BANK7              100      0       0      20        0.0%
BITBANK6           100      0       0      17        0.0%
BANK6              100      0       0      18        0.0%
BITBANK5           100      0       0      15        0.0%
BANK5              100      0       0      16        0.0%
BITBANK4           100      0       0      13        0.0%
BANK4              100      0       0      14        0.0%
BITBANK3           100      0       0      10        0.0%
BANK3              100      0       0      11        0.0%
BITBANK2           100      0       0       8        0.0%
BANK2              100      0       0       9        0.0%
BITBANK1           100      0       0       6        0.0%
BANK1              100      0       0       7        0.0%
BITBANK0            A0      0       0       4        0.0%
BANK0               A0      0      35       5       33.1%
BITBIGSFRlhhhhh     60      0       0      81        0.0%
BITCOMRAM           5F      0       0       0        0.0%
COMRAM              5F     53      5E       1       98.9%
BITBIGSFRlllhhh     38      0       0      90        0.0%
BITBIGSFRlllhhh     31      0       0      93        0.0%
BITBIGSFRhhh        2D      0       0      69        0.0%
BITBIGSFRllh        27      0       0      89        0.0%
BITBIGSFRlhl         8      0       0      88        0.0%
BITBIGSFRhhlhh       5      0       0      70        0.0%
BITBIGSFRlhhhhl      5      0       0      83        0.0%
BITBIGSFRlhhhhl      4      0       0      82        0.0%
BITBIGSFRlhhhlh      4      0       0      84        0.0%
BITBIGSFRlhhlh       4      0       0      86        0.0%
BITBIGSFRlllhl       3      0       0      95        0.0%
BITBIGSFRhhll        3      0       0      72        0.0%
BITBIGSFRhl          3      0       0      73        0.0%
BITBIGSFRlhhhll      2      0       0      85        0.0%
BITBIGSFRlhhll       2      0       0      87        0.0%
BITBIGSFRhhlhl       1      0       0      71        0.0%
BITBIGSFRlhhhhh      1      0       0      75        0.0%
BITBIGSFRlhhhhh      1      0       0      76        0.0%
BITBIGSFRlhhhhh      1      0       0      77        0.0%
BITBIGSFRlhhhhh      1      0       0      78        0.0%
BITBIGSFRlhhhhh      1      0       0      79        0.0%
BITBIGSFRlllhhh      1      0       0      91        0.0%
BITBIGSFRlllhhh      1      0       0      92        0.0%
BITBIGSFRlllhhl      1      0       0      94        0.0%
BIGSFR               0      0       0     200        0.0%
BITSFR_8             0      0       0     200        0.0%
SFR_8                0      0       0     200        0.0%
BITSFR_7             0      0       0     200        0.0%
SFR_7                0      0       0     200        0.0%
BITSFR_6             0      0       0     200        0.0%
SFR_6                0      0       0     200        0.0%
BITSFR_5             0      0       0     200        0.0%
SFR_5                0      0       0     200        0.0%
BITSFR_4             0      0       0     200        0.0%
SFR_4                0      0       0     200        0.0%
BITSFR_3             0      0       0     200        0.0%
SFR_3                0      0       0     200        0.0%
BITSFR_2             0      0       0     200        0.0%
SFR_2                0      0       0     200        0.0%
BITSFR_1             0      0       0     200        0.0%
SFR_1                0      0       0     200        0.0%
BITSFR               0      0       0     200        0.0%
SFR                  0      0       0     200        0.0%
STACK                0      0       0       2        0.0%
NULL                 0      0       0       0        0.0%
ABS                  0      0      93      12        0.0%
DATA                 0      0      93       3        0.0%
CODE                 0      0       0       0        0.0%


Microchip Technology PIC18 Macro Assembler V2.46 build 20240104201356 
Symbol Table                                                                                   Tue May 14 12:49:46 2024

                                     ?_LCD_Command 0001                                                 l11 2BB4  
                                      ?_LCD_String 0008                                                l124 2454  
                                              l301 2768                                                l214 2B8C  
                                              l162 298A                                                l402 2ABC  
                                              l172 2BDE                                                l319 2BFC  
                                              l352 2A98                                                l185 2BD0  
                                              l353 2A9A                                                l451 2A70  
                                              l460 2B3C                                                l348 2BA2  
                                              l540 2390                                                l381 2B1E  
                                              l454 2BF0                                                l198 2BC2  
                                              l366 2BF6                                                l471 2A0C  
                                              l457 2B5A                                                l369 2BE8  
                                              l394 2B00                                                l554 265C  
                                              l466 284E                                                l547 25BC  
                                              l398 2ADE                                                l479 28FC  
                                              u280 2BA0                                                u281 2B9A  
                                              u290 2BA2                                                u710 2A86  
                                              u711 2A82                                                u720 2A94  
                                              u800 2880                                                u721 2A90  
                                              u801 287C                                                u810 2896  
                                              u730 2B18                                                u811 2892  
                                              u731 2B14                                                u740 28E2  
                                              u820 2468                                                u900 21C0  
                                              u741 28DE                                                u821 2464  
                                              u901 21BC                                                u750 28FC  
                                              u910 2AF4                                                u830 247A  
                                              u751 28F8                                                u911 2AF0  
                                              u831 2476                                                u920 2AD2  
                                              u760 2784                                                u840 24A2  
                                              u921 2ACE                                                u761 2780  
                                              u841 249E                                                u930 2AB0  
                                              u770 27A2                                                u850 24D8  
                                              u931 2AAC                                                u771 279E  
                                              u851 24D4                                                u940 280C  
                                              u780 27BE                                                u860 20B4  
                                              u781 27BA                                                u861 20B0  
                                              u950 283E                                                u790 2862  
                                              u870 20FA                                                u791 285E  
                                              u871 20F6                                                u960 284E  
                                              u880 217A                                                u961 284A  
                                              u881 2176                                                u890 218A  
                                              u970 293C                                                u947 27FE  
                                              u891 2186                                                u971 2938  
                                              u980 29E0                                                u957 2830  
                                              u981 29DC                                                u998 254A  
                                              u999 2564                         ??_INT0_SetInterruptHandler 0004  
       __end_of_UART2_FramingErrorCallbackRegister 2B02               ??_UART2_FramingErrorCallbackRegister 0004  
              ?_UART2_FramingErrorCallbackRegister 0001                 _UART2_FramingErrorCallbackRegister 2AE0  
                        TF_Luna_Send_Freq@checksum 0006                                                tosl 3FFD  
                                              wreg 3FE8                                        LCD_Char@dat 0007  
                                   _UART2_IsTxDone 0000                                               l2000 2168  
                                             l2002 217A                                               l2100 29E8  
                                             l2004 218E                                               l2012 21C4  
                                             l2030 2AE0                                               l2102 29F2  
                                             l2006 21AC                                               l2014 21E2  
                                             l2110 2B60                                               l1055 27DC  
                                             l2024 2BD2                                               l2032 2AF4  
                                             l2040 2AB0                                               l2104 29FA  
                                             l1048 27D4                                               l2008 21AE  
                                             l2120 2A26                                               l2200 22FC  
                                             l1065 28B2                                               l2050 2B4C  
                                             l2042 2B40                                               l2026 2BC4  
                                             l2034 2ABE                                               l2130 2BB0  
                                             l2106 2A00                                               l1058 28AA  
                                             l2018 21EE                                               l1306 2B74  
                                             l2122 2A38                                               l2114 2A0E  
                                             l2210 236A                                               l2202 2324  
                                             l1235 2A42                                               l2052 2B4E  
                                             l2044 2B46                                               l2132 2A44  
                                             l2028 2BB6                                               l2036 2AD2  
                                             l2140 2518                                               l2060 2814  
                                             l2108 2B5C                                               l2116 2A16  
                                             l2204 2330                                               l2212 237E  
                                             l2046 2B48                                               l2134 2A50  
                                             l1502 2B76                                               l1510 23AA  
                                             l2038 2A9C                                               l2126 2BA4  
                                             l2150 252C                                               l2142 251C  
                                             l2054 27DE                                               l2062 28FE  
                                             l2118 2A1E                                               l2214 2380  
                                             l2206 2344                                               l2048 2B4A  
                                             l2136 2A54                                               l1520 23EE  
                                             l1512 23B4                                               l1504 2392  
                                             l2080 275E                                               l2072 26F4  
                                             l2128 2BAC                                               l2160 25AC  
                                             l2152 2530                                               l2144 2520  
                                             l2056 27E2                                               l1272 221A  
                                             l2064 2906                                               l2208 2354  
                                             l2320 2666                                               l2138 2BEA  
                                             l2090 2974                                               l2082 2946  
                                             l1530 23FC                                               l1522 23F0  
                                             l1514 23B8                                               l1506 23A6  
                                             l2074 272E                                               l2154 2538  
                                             l2146 2524                                               l2170 25D0  
                                             l2162 25C0                                               l1602 2BF8  
                                             l2058 2810                                               l2066 291A  
                                             l2330 2676                                               l2322 266A  
                                             l1291 2514                                               l2092 2978  
                                             l2084 294E                                               l1532 23FE  
                                             l1524 23F2                                               l1516 23BA  
                                             l1508 23A8                                               l2076 273E  
                                             l2156 2574                                               l2148 2528  
                                             l2172 25D8                                               l2164 25C4  
                                             l2068 293C                                               l2180 221C  
                                             l2340 26C2                                               l2332 268C  
                                             l2324 266C                                               l2086 295E  
                                             l1526 23F8                                               l1518 23EC  
                                             l2078 274E                                               l2158 25AA  
                                             l2174 2614                                               l2166 25C8  
                                             l2094 29D0                                               l2190 22BC  
                                             l2182 2238                                               l2342 26D4  
                                             l2334 2698                                               l2326 266E  
                                             l2318 265E                                               l1279 2944  
                                             l2088 2962                                               l1528 23FA  
                                             l2176 264A                                               l2168 25CC  
                                             l2096 29D0                                               l1560 2BF2  
                                             l2184 2274                                               l2344 26DC  
                                             l2336 26B2                                               l2328 2672  
                                             l2178 264C                                               l2098 29E0  
                                             l2186 22AA                                               l2346 26E0  
                                             l2338 26B6                                               l1900 28C0  
                                             l1556 2B8E                                               l2196 22C0  
                                             l2188 22AC                                               l1910 28E2  
                                             l2198 22DA                                               l1912 28E6  
                                             l1920 278C                                               l1906 28C8  
                                             l1930 27C6                                               l1922 2794  
                                             l1914 276A                                               l1908 28CC  
                                             l1932 27C8                                               l1924 27A2  
                                             l1916 2772                                               l1940 286A  
                                             l1934 27CE                                               l1926 27A8  
                                             l1918 2784                                               l1950 28A4  
                                             l1942 2872                                               l1880 2A76  
                                             l1928 27BE                                               l1944 2880  
                                             l1936 2850                                               l1960 24A2  
                                             l1952 2456                                               l1882 2A86  
                                             l1970 2B2A                                               l1946 2896  
                                             l1938 2862                                               l1890 2B04  
                                             l1962 24D8                                               l1954 2468  
                                             l1884 2A94                                               l1972 2B2C  
                                             l1948 289E                                               l1892 2B04  
                                             l1956 247A                                               l1980 20B4  
                                             l1878 2A72                                               l1974 2B2E  
                                             l1966 2B22                                               l1894 2B18  
                                             l1958 2484                                               l1990 20FA  
                                             l1982 20BC                                               l1888 2BE2  
                                             l1976 2B30                                               l1968 2B28  
                                             l1992 2116                                               l1984 20CA  
                                             l1898 28B4                                               l1994 2124  
                                             l1986 20CE                                               l1978 208C  
                                             l1996 2128                                               l1988 20D8  
                                             l1998 214C                                               STR_1 2071  
                                             STR_2 207A                                               STR_3 205B  
                                             STR_4 2067                                               STR_5 2081  
                                             STR_6 2087                                               STR_7 2049  
                                             u1000 2574                                               u1001 2570  
                                             u1020 25BC                                               u1100 22BC  
                                             u1021 25B8                                               u1101 22B8  
                                             u1110 22DA                                               u1111 22D6  
                                             u1040 2614                                               u1120 22FC  
                                             u1041 2610                                               u1121 22F8  
                                             u1018 2586                                               u1130 2390  
                                             u1019 25AA                                               u1131 238C  
                                             u1060 265C                                               u1061 2658  
                                             u1038 25EA                                               u1039 2604  
                                             u1080 2274                                               u1081 2270  
                                             u1058 2626                                               u1059 264A  
                                             _LATA 3FBA                                               u1078 224A  
                                             _LATB 3FBB                                               u1079 2264  
                                             _LATC 3FBC                                               _LATD 3FBD  
                                             _LATE 3FBE                                               u1098 228E  
                                             u1099 22A8                          TF_Luna_Send_Freq@freq_dec 0005  
                                             _WPUA 3A41                                               _WPUB 3A51  
                                             _WPUC 3A61                                               _WPUD 3A71  
                                             _WPUE 3A81                                     _UART2_ErrorGet 0000  
                                             _dbuf 0060                                               _main 265E  
                                             _freq 005A                                               _read 221C  
                                             _prec 0091                                               fsr0h 3FEA  
                                             fsr1h 3FE2                                               indf0 3FEF  
                                             fsr2h 3FDA                                               fsr0l 3FE9  
                                             indf2 3FDF                                               fsr1l 3FE1  
                                             fsr2l 3FD9                          ?_INT2_SetInterruptHandler 0001  
                                             start FFFC                                    __end_of_MSdelay 28FE  
                                    _LCD_String_xy 29CE                                       ___param_bank 0000  
                                      ?_UART2_Read 0001                                   __end_of_LCD_Char 2B3E  
                                 __end_of_LCD_Init 2A72                                    _UART2_IsRxReady 2B8E  
                                  _UART2_IsTxReady 2A72                                              ?_main 0001  
                                            ?_read 0001                                              _LATA0 1FDD0  
                                            _LATA1 1FDD1                                              _U2P1L 3DD4  
                                            _U2P2L 3DD6                                              _U2P3L 3DD8  
                                            _IOCAF 3A47                                              _IOCBF 3A57  
                                            _IOCCF 3A67                                              _IOCEF 3A87  
                                            _IOCAN 3A46                                              _IOCBN 3A56  
                                            _IOCAP 3A45                                              _IOCCN 3A66  
                                            _IOCBP 3A55                                              _IOCCP 3A65  
                                            _IOCEN 3A86                                              _IOCEP 3A85  
                                  __end_of___lwdiv 27DE                                              _U2UIR 3DE0  
                                  __end_of___lwmod 28B4                                              _U2RXB 3DD0  
                                            _U2TXB 3DD2                                              _OSCEN 39DD  
                                            _UART2 2001                          TF_Luna_Trigger@bytes_sent 000C  
                                     vfpfcnvrt@fmt 000E                        __end_of_UART2_ReceiveEnable 2BFE  
                                            _TRISA 3FC2                                              _TRISB 3FC3  
                                            _TRISC 3FC4                                              _TRISD 3FC5  
                                            _TRISE 3FC6                                              _flags 0057  
                                            _fputc 2456                                              _width 008F  
                                            _putch 2B02                           _INT1_SetInterruptHandler 2BC4  
                                            read@i 0053                                              pclath 3FFA  
                                            tablat 3FF5                                              status 3FD8  
                                  __end_of_sprintf 2A44                                     ?_LCD_String_xy 000A  
                                  __initialization 298C                                       __end_of_main 26F4  
                                     __end_of_read 2392                                       ?_UART2_Write 0001  
                                           ??_main 0054                                             ??_read 002D  
                            TF_Luna_Send_Freq@freq 0004                                  __end_of_LCD_Clear 2BF2  
                                    __activetblptr 0003         __end_of_UART2_OverrunErrorCallbackRegister 2AE0  
             ??_UART2_OverrunErrorCallbackRegister 0004                ?_UART2_OverrunErrorCallbackRegister 0001  
               _UART2_OverrunErrorCallbackRegister 2ABE   UART2_ParityErrorCallbackRegister@callbackHandler 0001  
UART2_OverrunErrorCallbackRegister@callbackHandler 0001  UART2_FramingErrorCallbackRegister@callbackHandler 0001  
                                           ?_fputc 0003                                             _ANSELA 3A40  
                                           ?_putch 0001                                             _ANSELB 3A50  
                                           _ANSELC 3A60                                             _ANSELD 3A70  
                                           _ANSELE 3A80                                             _RB1I2C 3A5A  
                                           _RB2I2C 3A5B                                             _RD0I2C 3A7A  
                                           _RD1I2C 3A7B                                             _RC3I2C 3A6A  
                                           _RC4I2C 3A6B                                             _U2CON0 3DDA  
                                           _U2CON1 3DDB                                             _U2CON2 3DDC  
                                           _U2BRGH 3DDE                                             _U2FIFO 3DDF  
                                           _U2BRGL 3DDD                                   LCD_String_xy@msg 000B  
                                ??_TF_Luna_Trigger 0005                                   LCD_String_xy@pos 000A  
                                 LCD_String_xy@row 000D                                             _RD0PPS 3A18  
                                           _ODCONA 3A42                                             _ODCONB 3A52  
                                           _ODCONC 3A62                                             _ODCOND 3A72  
                                           _ODCONE 3A82                                          ??_MSdelay 0003  
                                           _INLVLA 3A44                                             _INLVLB 3A54  
                                           _INLVLC 3A64                                             _INLVLD 3A74  
                                           _INLVLE 3A84                                             _OSCFRQ 39DF  
                          __end_of_UART2_IsRxReady 2BA4                                   _UART2_Initialize 26F4  
                          __end_of_UART2_IsTxReady 2A9C                          _UART2_OverrunErrorHandler 0083  
                                     vfprintf@cfmt 001B                                             _header 005E  
                                        ??___lwdiv 0005                                          ??___lwmod 0005  
                            TF_Luna_Trigger@header 000B                                             clear_0 29B6  
                                           clear_1 29C2                   _UART2_DefaultParityErrorCallback 0000  
                                           isa$std 0001                              TF_Luna_Trigger@length 0002  
                                           _printf 2B5C                                  ?_CLOCK_Initialize 0001  
                                           fputc@c 0003                       _INT2_DefaultInterruptHandler 0000  
                                     __pdataCOMRAM 005C                                 ??_CLOCK_Initialize 0001  
                                     __mediumconst 0000                                             tblptrh 3FF7  
                                           tblptrl 3FF6                                             tblptru 3FF8  
                                 __end_of_vfprintf 2946           INT2_SetInterruptHandler@InterruptHandler 0001  
         INT1_SetInterruptHandler@InterruptHandler 0001           INT0_SetInterruptHandler@InterruptHandler 0001  
                                        ??_sprintf 0020                                  _SYSTEM_Initialize 2BA4  
                                        ?_LCD_Char 0001                                         __accesstop 0060  
                          __end_of__initialization 29C8                                          ?_LCD_Init 0001  
                                  ??_LCD_String_xy 000D                                    read@Read_header 0051  
                               ?_SYSTEM_Initialize 0001                                      ___rparam_used 0001  
                              _UART2_AutoBaudQuery 0000                                      __end_of_UART2 2049  
                                   __pcstackCOMRAM 0001                                ??_SYSTEM_Initialize 0004  
                                    __end_of_fputc 2516                                      __end_of_putch 2B20  
                                     ??_LCD_String 000A                  _UART2_DefaultFramingErrorCallback 0000  
                 __end_of_INT2_SetInterruptHandler 2BC4                                            ??_fputc 0007  
                        __end_of_SYSTEM_Initialize 2BB6                             TF_Luna_Send_Freq@bytes 0007  
                                          ??_putch 0002                                         __pbssBANK0 0060  
                                _UART2_AutoBaudSet 0000                                         ??_LCD_Char 0007  
                              _UART2_IsTxReady$832 0001                                         ??_LCD_Init 0008  
                            _INT0_InterruptHandler 0054                                 __end_of_LCD_String 2850  
                                 ?_UART2_IsRxReady 0001                                   ?_UART2_IsTxReady 0001  
                                     read@distance 004F                                       ??_UART2_Read 0001  
                                          ?_printf 001C                                     read@distance_H 004E  
                                   read@distance_L 004D                              _UART2_TransmitDisable 0000  
                                          _U2ERRIE 3DE2                                            _U2ERRIR 3DE1  
                       ??_INT1_SetInterruptHandler 0004                                            _U2RXPPS 3AE8  
                                          _OSCCON1 39D9                                            _OSCCON3 39DB  
                                          _OSCTUNE 39DE                                            _SLRCONA 3A43  
                                          _SLRCONB 3A53                                            _SLRCONC 3A63  
                                          _SLRCOND 3A73                                            _SLRCONE 3A83  
                                          _MSdelay 28B4                                 __end_of_UART2_Read 2BF8  
                                   read@byte_count 0052                          ?_INT0_SetInterruptHandler 0001  
                                    LCD_String@msg 0008                                            __Hparam 0000  
                                          __Lparam 0000                                            ___lwdiv 276A  
                                          ___lwmod 2850                                          ?_vfprintf 0017  
                                     __psmallconst 2000                                            __pcinit 298C  
                                          __ramtop 2000                                            __ptext0 265E  
                                          __ptext1 221C                                            __ptext2 2A0E  
                                          __ptext3 2B5C                                            __ptext4 28FE  
                                          __ptext5 208C                                            __ptext6 2456  
                                          __ptext7 2B02                                            __ptext8 2850  
                                          __ptext9 276A                                            _freq_ID 005D  
                                  _TF_Luna_Trigger 25BE                  _UART2_DefaultOverrunErrorCallback 0000  
                         ??_PIN_MANAGER_Initialize 0001                           __end_of_UART2_Initialize 276A  
                                        _LCD_Clear 2BEA                                            _trigger 005C  
                                    _received_data 005B                                            _sprintf 2A0E  
                           TF_Luna_Trigger@payload 0004                               end_of_initialization 29C8  
                         _INT2_SetInterruptHandler 2BB6                                          _U2UIRbits 3DE0  
        __end_of_UART2_ParityErrorCallbackRegister 2ABE                ??_UART2_ParityErrorCallbackRegister 0004  
               ?_UART2_ParityErrorCallbackRegister 0001                  _UART2_ParityErrorCallbackRegister 2A9C  
                                          fputc@fp 0005                                     LCD_Command@cmd 0007  
                               _UART2_Deinitialize 0000                                  __end_of_vfpfcnvrt 221C  
                                          postdec2 3FDD                                            postinc0 3FEE  
                                          postinc1 3FE6                                            postinc2 3FDE  
                                 vfpfcnvrt@convarg 0011                                         ??_vfprintf 001B  
                                        _PORTAbits 3FCA                              _INT1_InterruptHandler 008C  
                                        _PORTCbits 3FCC                                         ?_LCD_Clear 0001  
                              TF_Luna_Send_Freq@id 0003                            __end_of_TF_Luna_Trigger 265E  
                     __end_of_INTERRUPT_Initialize 298C                                      ??_LCD_Command 0007  
                     _INT0_DefaultInterruptHandler 0000                                        vfpfcnvrt@ap 000F  
                                      vfpfcnvrt@cp 0015                                        vfpfcnvrt@fp 000C  
                                    __pidataCOMRAM 2BFE                                     __end_of_printf 2B76  
                              start_initialization 298C                                        putch@txData 0002  
                            __end_of_LCD_String_xy 2A0E                                 read@received_bytes 0043  
                                      vfprintf@fmt 0019                               TF_Luna_Trigger@bytes 0005  
                          TF_Luna_Send_Freq@header 000D                                  UART2_Write@txData 0001  
                          TF_Luna_Send_Freq@length 0002                                           ??_printf 001F  
                              __end_of_LCD_Command 2B5C                                        __pbssCOMRAM 0054  
                 __end_of_INT0_SetInterruptHandler 2BE0                          _UART2_FramingErrorHandler 0086  
                                      ??_LCD_Clear 0008                                           ?_MSdelay 0001  
                            _INT2_InterruptHandler 0089                                  _TF_Luna_Send_Freq 2516  
                                 ___lwdiv@dividend 0001                             _PIN_MANAGER_Initialize 2392  
                               ?_TF_Luna_Send_Freq 0002                                   ?_TF_Luna_Trigger 0002  
                                         ?___lwdiv 0001                                           ?___lwmod 0001  
                             _UART2_TransmitEnable 0000                                _UART2_ReceiveEnable 2BF8  
                              ??_TF_Luna_Send_Freq 0007                                      ??_UART2_Write 0001  
                                      __smallconst 2000                         ??_INT2_SetInterruptHandler 0004  
                                TF_Luna_Trigger@id 0003                                  ?_UART2_Initialize 0001  
                                 ___lwdiv@quotient 0005                              LCD_String_xy@location 000E  
                         _UART2_ParityErrorHandler 0080                                           ?_sprintf 001C  
                             ?_UART2_ReceiveEnable 0001                                 ??_UART2_Initialize 0004  
                             _INTERRUPT_Initialize 2946                                   _uart2RxLastError 0093  
                        __end_of_TF_Luna_Send_Freq 25BE                                           MSdelay@i 0003  
                                         MSdelay@j 0005                                   _CLOCK_Initialize 2B76  
                                         _LCD_Char 2B20                                        _U2ERRIRbits 3DE1  
                                         _LCD_Init 2A44                          ?_INT1_SetInterruptHandler 0001  
                                         _PIR1bits 39A1                                           _PIR5bits 39A5  
                                         _PIR7bits 39A7                                        _LCD_Command 2B3E  
                                        _vfpfcnvrt 208C                                __end_of_UART2_Write 2BEA  
                                       vfpfcnvrt@c 0016                              ??_UART2_ReceiveEnable 0001  
                                      _INTCON0bits 3FD2                              ?_INTERRUPT_Initialize 0001  
                         _INT0_SetInterruptHandler 2BD2                                          read@count 004C  
                                         __Hrparam 0000                        TF_Luna_Send_Freq@bytes_sent 000E  
                                       vfprintf@ap 001A                                           __Lrparam 0000  
                                       vfprintf@fp 0017                                         ?_vfpfcnvrt 000C  
                                       sprintf@fmt 001D                                           _checksum 0058  
                                  ___lwdiv@divisor 0003                                    ___lwdiv@counter 0007  
                                ??_UART2_IsRxReady 0001                                           __ptext10 2BF2  
                                         __ptext11 2B8E                                           __ptext20 2BA4  
                                         __ptext12 29CE                                           __ptext21 26F4  
                                         __ptext13 27DE                                           __ptext30 2B76  
                                         __ptext22 2A9C                                           __ptext14 2B20  
                                         __ptext31 2A44                                           __ptext23 2ABE  
                                         __ptext15 2BF8                                           __ptext32 2BEA  
                                         __ptext24 2AE0                                           __ptext16 25BE  
                                         __ptext33 2B3E                                           __ptext25 2392  
                                         __ptext17 2516                                           __ptext34 28B4  
                                         __ptext26 2946                                           __ptext18 2BE0  
                                         __ptext27 2BB6                                           __ptext19 2A72  
                                         __ptext28 2BC4                                           __ptext29 2BD2  
                                ??_UART2_IsTxReady 0001                                         _U2CON0bits 3DDA  
                                       _U2CON1bits 3DDB                                           _freq_dec 0059  
                                       _U2FIFObits 3DDF                                         MSdelay@val 0001  
                                         isa$xinst 0000                                           _vfprintf 28FE  
                                        printf@fmt 001C                                         _LCD_String 27DE  
                     _INT1_DefaultInterruptHandler 0000                                        _UART2_Write 2BE0  
                                         read@data 002F                             ??_INTERRUPT_Initialize 0004  
                                        sprintf@ap 0020                                   ___lwmod@dividend 0001  
                          ?_PIN_MANAGER_Initialize 0001                                           printf@ap 001F  
                                       _UART2_Read 2BF2                                        ??_vfpfcnvrt 0010  
                         __end_of_CLOCK_Initialize 2B8E                                           sprintf@f 0021  
                                         sprintf@s 001C                                    ___lwmod@divisor 0003  
                                  ___lwmod@counter 0005                   __end_of_INT1_SetInterruptHandler 2BD2  
                   __end_of_PIN_MANAGER_Initialize 2456  
