

Microchip MPLAB XC8 Assembler V2.46 build 20240104201356 
                                                                                               Fri May 03 10:52:45 2024

Microchip MPLAB XC8 C Compiler v2.46 (Free license) build 20240104201356 Og1 
     1                           	processor	18F47K42
     2                           	fnconf	rparam,??,?,0
     3                           	pagewidth 120
     4                           	opt	flic
     5                           	psect	smallconst,global,reloc=2,class=SMALLCONST,delta=1,noexec
     6                           	psect	cinit,global,reloc=2,class=CODE,delta=1
     7                           	psect	bssCOMRAM,global,class=COMRAM,space=1,delta=1,lowdata,noexec
     8                           	psect	bssBANK0,global,class=BANK0,space=1,delta=1,lowdata,noexec
     9                           	psect	cstackBANK0,global,class=BANK0,space=1,delta=1,lowdata,noexec
    10                           	psect	cstackCOMRAM,global,class=COMRAM,space=1,delta=1,lowdata,noexec
    11                           	psect	text0,global,reloc=2,class=CODE,delta=1
    12                           	psect	text1,global,reloc=2,class=CODE,delta=1,group=3
    13                           	psect	text2,global,reloc=2,class=CODE,delta=1,group=3
    14                           	psect	text3,global,reloc=2,class=CODE,delta=1,group=1
    15                           	psect	text4,global,reloc=2,class=CODE,delta=1,group=1
    16                           	psect	text5,global,reloc=2,class=CODE,delta=1,group=1
    17                           	psect	text6,global,reloc=2,class=CODE,delta=1,group=1
    18                           	psect	text7,global,reloc=2,class=CODE,delta=1,group=3
    19                           	psect	text8,global,reloc=2,class=CODE,delta=1,group=3
    20                           	psect	text9,global,reloc=2,class=CODE,delta=1
    21                           	psect	text10,global,reloc=2,class=CODE,delta=1
    22                           	psect	text11,global,reloc=2,class=CODE,delta=1
    23                           	psect	text12,global,reloc=2,class=CODE,delta=1,group=1
    24                           	psect	text13,global,reloc=2,class=CODE,delta=1,group=2
    25                           	psect	text14,global,reloc=2,class=CODE,delta=1,inline
    26                           	psect	text15,global,reloc=2,class=CODE,delta=1
    27                           	psect	text16,global,reloc=2,class=CODE,delta=1
    28                           	psect	text17,global,reloc=2,class=CODE,delta=1
    29                           	psect	text18,global,reloc=2,class=CODE,delta=1
    30                           	psect	text19,global,reloc=2,class=CODE,delta=1
    31                           	psect	text20,global,reloc=2,class=CODE,delta=1
    32                           	psect	text21,global,reloc=2,class=CODE,delta=1
    33                           	psect	text22,global,reloc=2,class=CODE,delta=1
    34                           	psect	text23,global,reloc=2,class=CODE,delta=1
    35                           	psect	text24,global,reloc=2,class=CODE,delta=1
    36                           	psect	text25,global,reloc=2,class=CODE,delta=1
    37                           	psect	text26,global,reloc=2,class=CODE,delta=1
    38                           	psect	text27,global,reloc=2,class=CODE,delta=1
    39                           	psect	text28,global,reloc=2,class=CODE,delta=1
    40                           	psect	text29,global,reloc=2,class=CODE,delta=1
    41                           	psect	text30,global,reloc=2,class=CODE,delta=1
    42                           	psect	text31,global,reloc=2,class=CODE,delta=1
    43                           	psect	text32,global,reloc=2,class=CODE,delta=1
    44                           	psect	text33,global,reloc=2,class=CODE,delta=1
    45                           	psect	text34,global,reloc=2,class=CODE,delta=1
    46                           	psect	intsave_regs,global,class=BIGRAM,space=1,delta=1,noexec
    47                           	psect	rparam,global,class=COMRAM,space=1,delta=1,noexec
    48                           	psect	config,global,abs,ovrld,class=CONFIG,space=4,delta=1,noexec
    49   000000                     
    50                           ; Generated 12/10/2023 GMT
    51                           ; 
    52                           ; Copyright © 2023, Microchip Technology Inc. and its subsidiaries ("Microchip")
    53                           ; All rights reserved.
    54                           ; 
    55                           ; This software is developed by Microchip Technology Inc. and its subsidiaries ("Microch
      +                          ip").
    56                           ; 
    57                           ; Redistribution and use in source and binary forms, with or without modification, are
    58                           ; permitted provided that the following conditions are met:
    59                           ; 
    60                           ;     1. Redistributions of source code must retain the above copyright notice, this lis
      +                          t of
    61                           ;        conditions and the following disclaimer.
    62                           ; 
    63                           ;     2. Redistributions in binary form must reproduce the above copyright notice, this 
      +                          list
    64                           ;        of conditions and the following disclaimer in the documentation and/or other
    65                           ;        materials provided with the distribution. Publication is not required when
    66                           ;        this file is used in an embedded application.
    67                           ; 
    68                           ;     3. Microchip's name may not be used to endorse or promote products derived from th
      +                          is
    69                           ;        software without specific prior written permission.
    70                           ; 
    71                           ; THIS SOFTWARE IS PROVIDED BY MICROCHIP "AS IS" AND ANY EXPRESS OR IMPLIED WARRANTIES,
    72                           ; INCLUDING, BUT NOT LIMITED TO, THE IMPLIED WARRANTIES OF MERCHANTABILITY AND FITNESS F
      +                          OR
    73                           ; PURPOSE ARE DISCLAIMED.  IN NO EVENT SHALL MICROCHIP BE LIABLE FOR ANY DIRECT, INDIREC
      +                          T,
    74                           ; INCIDENTAL, SPECIAL, EXEMPLARY, OR CONSEQUENTIAL DAMAGES (INCLUDING BUT NOT LIMITED TO
    75                           ; PROCUREMENT OF SUBSTITUTE GOODS OR SERVICES; LOSS OF USE, DATA OR PROFITS; OR BUSINESS
    76                           ; INTERRUPTION) HOWSOEVER CAUSED AND ON ANY THEORY OF LIABILITY, WHETHER IN CONTRACT, ST
      +                          RICT
    77                           ; LIABILITY, OR TORT (INCLUDING NEGLIGENCE OR OTHERWISE) ARISING IN ANY WAY OUT OF THE U
      +                          SE OF
    78                           ; THIS SOFTWARE, EVEN IF ADVISED OF THE POSSIBILITY OF SUCH DAMAGE.
    79                           ; 
    80                           ; 
    81                           ; Code-generator required, PIC18F47K42 Definitions
    82                           ; 
    83                           ; SFR Addresses
    84   000000                     
    85 ;; Function _INT0_DefaultInterruptHandler is unused but had its address taken
    86   000000                     
    87 ;; Function _INT1_DefaultInterruptHandler is unused but had its address taken
    88   000000                     
    89 ;; Function _INT2_DefaultInterruptHandler is unused but had its address taken
    90   000000                     
    91 ;; Function _UART2_Deinitialize is unused but had its address taken
    92   000000                     
    93 ;; Function _UART2_TransmitEnable is unused but had its address taken
    94   000000                     
    95 ;; Function _UART2_TransmitDisable is unused but had its address taken
    96   000000                     
    97 ;; Function _UART2_AutoBaudSet is unused but had its address taken
    98   000000                     
    99 ;; Function _UART2_AutoBaudQuery is unused but had its address taken
   100   000000                     
   101 ;; Function _UART2_IsTxDone is unused but had its address taken
   102   000000                     
   103 ;; Function _UART2_ErrorGet is unused but had its address taken
   104   000000                     
   105 ;; Function _UART2_DefaultFramingErrorCallback is unused but had its address taken
   106   000000                     
   107 ;; Function _UART2_DefaultOverrunErrorCallback is unused but had its address taken
   108   000000                     
   109 ;; Function _UART2_DefaultParityErrorCallback is unused but had its address taken
   110   000000                     
   111                           	psect	smallconst
   112   002000                     __psmallconst:
   113                           	callstack 0
   114   002000  00                 	db	0
   115   002001                     _UART2:
   116                           	callstack 0
   117   002001  88                 	db	low _UART2_Initialize
   118   002002  26                 	db	high _UART2_Initialize
   119   002003  00                 	db	low (_UART2_Initialize shr (0+16))
   120   002004  00                 	db	0
   121   002005  00                 	db	0
   122   002006  00                 	db	0
   123   002007  02                 	db	low _UART2_Read
   124   002008  2B                 	db	high _UART2_Read
   125   002009  00                 	db	low (_UART2_Read shr (0+16))
   126   00200A  EA                 	db	low _UART2_Write
   127   00200B  2A                 	db	high _UART2_Write
   128   00200C  00                 	db	low (_UART2_Write shr (0+16))
   129   00200D  98                 	db	low _UART2_IsRxReady
   130   00200E  2A                 	db	high _UART2_IsRxReady
   131   00200F  00                 	db	low (_UART2_IsRxReady shr (0+16))
   132   002010  4E                 	db	low _UART2_IsTxReady
   133   002011  29                 	db	high _UART2_IsTxReady
   134   002012  00                 	db	low (_UART2_IsTxReady shr (0+16))
   135   002013  00                 	db	0
   136   002014  00                 	db	0
   137   002015  00                 	db	0
   138   002016  00                 	db	0
   139   002017  00                 	db	0
   140   002018  00                 	db	0
   141   002019  00                 	db	0
   142   00201A  00                 	db	0
   143   00201B  00                 	db	0
   144   00201C  00                 	db	0
   145   00201D  00                 	db	0
   146   00201E  00                 	db	0
   147   00201F  00                 	db	0
   148   002020  00                 	db	0
   149   002021  00                 	db	0
   150   002022  00                 	db	0
   151   002023  00                 	db	0
   152   002024  00                 	db	0
   153   002025  00                 	db	0
   154   002026  00                 	db	0
   155   002027  00                 	db	0
   156   002028  00                 	db	0
   157   002029  00                 	db	0
   158   00202A  00                 	db	0
   159   00202B  00                 	db	0
   160   00202C  00                 	db	0
   161   00202D  00                 	db	0
   162   00202E  00                 	db	0
   163   00202F  00                 	db	0
   164   002030  00                 	db	0
   165   002031  00                 	db	0
   166   002032  00                 	db	0
   167   002033  00                 	db	0
   168   002034  00                 	db	0
   169   002035  00                 	db	0
   170   002036  00                 	db	0
   171   002037  00                 	db	0
   172   002038  00                 	db	0
   173   002039  00                 	db	0
   174   00203A  00                 	db	0
   175   00203B  00                 	db	0
   176   00203C  00                 	db	0
   177   00203D  E6                 	db	low _UART2_FramingErrorCallbackRegister
   178   00203E  29                 	db	high _UART2_FramingErrorCallbackRegister
   179   00203F  00                 	db	low (_UART2_FramingErrorCallbackRegister shr (0+16))
   180   002040  C4                 	db	low _UART2_OverrunErrorCallbackRegister
   181   002041  29                 	db	high _UART2_OverrunErrorCallbackRegister
   182   002042  00                 	db	low (_UART2_OverrunErrorCallbackRegister shr (0+16))
   183   002043  A2                 	db	low _UART2_ParityErrorCallbackRegister
   184   002044  29                 	db	high _UART2_ParityErrorCallbackRegister
   185   002045  00                 	db	low (_UART2_ParityErrorCallbackRegister shr (0+16))
   186   002046  00                 	db	0
   187   002047  00                 	db	0
   188   002048  00                 	db	0
   189   002049                     __end_of_UART2:
   190                           	callstack 0
   191   000000                     _OSCTUNE	set	14814
   192   000000                     _OSCFRQ	set	14815
   193   000000                     _U2FIFObits	set	15839
   194   000000                     _U2ERRIRbits	set	15841
   195   000000                     _U2UIRbits	set	15840
   196   000000                     _U2CON0bits	set	15834
   197   000000                     _U2CON1bits	set	15835
   198   000000                     _LATA1	set	130513
   199   000000                     _LATA0	set	130512
   200   000000                     _PIR1bits	set	14753
   201   000000                     _RD1PPS	set	14873
   202   000000                     _ANSELA	set	14912
   203   000000                     _LATA	set	16314
   204   000000                     _TRISA	set	16322
   205   000000                     _LATE	set	16318
   206   000000                     _LATD	set	16317
   207   000000                     _LATC	set	16316
   208   000000                     _LATB	set	16315
   209   000000                     _PORTAbits	set	16330
   210   000000                     _INTCON0bits	set	16338
   211   000000                     _TRISE	set	16326
   212   000000                     _TRISD	set	16325
   213   000000                     _TRISC	set	16324
   214   000000                     _TRISB	set	16323
   215   000000                     _IOCAF	set	14919
   216   000000                     _IOCAN	set	14918
   217   000000                     _IOCAP	set	14917
   218   000000                     _INLVLA	set	14916
   219   000000                     _SLRCONA	set	14915
   220   000000                     _ODCONA	set	14914
   221   000000                     _WPUA	set	14913
   222   000000                     _ANSELB	set	14928
   223   000000                     _IOCBF	set	14935
   224   000000                     _IOCBN	set	14934
   225   000000                     _IOCBP	set	14933
   226   000000                     _RB1I2C	set	14938
   227   000000                     _INLVLB	set	14932
   228   000000                     _SLRCONB	set	14931
   229   000000                     _ODCONB	set	14930
   230   000000                     _WPUB	set	14929
   231   000000                     _ANSELC	set	14944
   232   000000                     _IOCCF	set	14951
   233   000000                     _IOCCN	set	14950
   234   000000                     _IOCCP	set	14949
   235   000000                     _RC3I2C	set	14954
   236   000000                     _INLVLC	set	14948
   237   000000                     _SLRCONC	set	14947
   238   000000                     _ODCONC	set	14946
   239   000000                     _WPUC	set	14945
   240   000000                     _ANSELD	set	14960
   241   000000                     _RD0I2C	set	14970
   242   000000                     _INLVLD	set	14964
   243   000000                     _SLRCOND	set	14963
   244   000000                     _ODCOND	set	14962
   245   000000                     _WPUD	set	14961
   246   000000                     _ANSELE	set	14976
   247   000000                     _IOCEF	set	14983
   248   000000                     _IOCEN	set	14982
   249   000000                     _IOCEP	set	14981
   250   000000                     _U2RXPPS	set	15080
   251   000000                     _INLVLE	set	14980
   252   000000                     _SLRCONE	set	14979
   253   000000                     _ODCONE	set	14978
   254   000000                     _WPUE	set	14977
   255   000000                     _RB2I2C	set	14939
   256   000000                     _RC4I2C	set	14955
   257   000000                     _RD1I2C	set	14971
   258   000000                     _U2RXB	set	15824
   259   000000                     _PIR5bits	set	14757
   260   000000                     _PIR7bits	set	14759
   261   000000                     _OSCCON1	set	14809
   262   000000                     _OSCCON3	set	14811
   263   000000                     _OSCEN	set	14813
   264   000000                     _U2TXB	set	15826
   265   000000                     _U2P1L	set	15828
   266   000000                     _U2P2L	set	15830
   267   000000                     _U2P3L	set	15832
   268   000000                     _U2CON0	set	15834
   269   000000                     _U2ERRIE	set	15842
   270   000000                     _U2ERRIR	set	15841
   271   000000                     _U2UIR	set	15840
   272   000000                     _U2FIFO	set	15839
   273   000000                     _U2BRGH	set	15838
   274   000000                     _U2BRGL	set	15837
   275   000000                     _U2CON2	set	15836
   276   000000                     _U2CON1	set	15835
   277   000000                     _PORTCbits	set	16332
   278   002049                     STR_3:
   279   002049  50                 	db	80	;'P'
   280   00204A  72                 	db	114	;'r'
   281   00204B  6F                 	db	111	;'o'
   282   00204C  67                 	db	103	;'g'
   283   00204D  72                 	db	114	;'r'
   284   00204E  61                 	db	97	;'a'
   285   00204F  6D                 	db	109	;'m'
   286   002050  6D                 	db	109	;'m'
   287   002051  65                 	db	101	;'e'
   288   002052  64                 	db	100	;'d'
   289   002053  32                 	db	50	;'2'
   290   002054  00                 	db	0
   291   002055  43                 	db	67	;'C'
   292   002056  6F                 	db	111	;'o'
   293   002057  72                 	db	114	;'r'
   294   002058  72                 	db	114	;'r'
   295   002059  65                 	db	101	;'e'
   296   00205A  63                 	db	99	;'c'
   297   00205B  74                 	db	116	;'t'
   298   00205C  21                 	db	33
   299   00205D  00                 	db	0
   300   00205E  57                 	db	87	;'W'
   301   00205F  72                 	db	114	;'r'
   302   002060  6F                 	db	111	;'o'
   303   002061  6E                 	db	110	;'n'
   304   002062  67                 	db	103	;'g'
   305   002063  21                 	db	33
   306   002064  00                 	db	0
   307   002065                     STR_4:
   308   002065  25                 	db	37
   309   002066  30                 	db	48	;'0'
   310   002067  32                 	db	50	;'2'
   311   002068  58                 	db	88	;'X'
   312   002069  20                 	db	32
   313   00206A  00                 	db	0
   314   00206B  00                 	db	0	; dummy byte at the end
   315   000000                     
   316                           ; #config settings
   317                           
   318                           	psect	cinit
   319   002A08                     __pcinit:
   320                           	callstack 0
   321   002A08                     start_initialization:
   322                           	callstack 0
   323   002A08                     __initialization:
   324                           	callstack 0
   325                           
   326                           ; Clear objects allocated to BANK0 (32 bytes)
   327   002A08  EE00  F090         	lfsr	0,__pbssBANK0
   328   002A0C  0E20               	movlw	32
   329   002A0E                     clear_0:
   330   002A0E  6AEE               	clrf	postinc0,c
   331   002A10  06E8               	decf	wreg,f,c
   332   002A12  E1FD               	bnz	clear_0
   333                           
   334                           ; Clear objects allocated to COMRAM (26 bytes)
   335   002A14  EE00  F042         	lfsr	0,__pbssCOMRAM
   336   002A18  0E1A               	movlw	26
   337   002A1A                     clear_1:
   338   002A1A  6AEE               	clrf	postinc0,c
   339   002A1C  06E8               	decf	wreg,f,c
   340   002A1E  E1FD               	bnz	clear_1
   341   002A20                     end_of_initialization:
   342                           	callstack 0
   343   002A20                     __end_of__initialization:
   344                           	callstack 0
   345   002A20  0100               	movlb	0
   346   002A22  EF72  F011         	goto	_main	;jump to C main() function
   347                           
   348                           	psect	bssCOMRAM
   349   000042                     __pbssCOMRAM:
   350                           	callstack 0
   351   000042                     _UART2_ParityErrorHandler:
   352                           	callstack 0
   353   000042                     	ds	3
   354   000045                     _UART2_OverrunErrorHandler:
   355                           	callstack 0
   356   000045                     	ds	3
   357   000048                     _UART2_FramingErrorHandler:
   358                           	callstack 0
   359   000048                     	ds	3
   360   00004B                     _INT2_InterruptHandler:
   361                           	callstack 0
   362   00004B                     	ds	3
   363   00004E                     _INT1_InterruptHandler:
   364                           	callstack 0
   365   00004E                     	ds	3
   366   000051                     _INT0_InterruptHandler:
   367                           	callstack 0
   368   000051                     	ds	3
   369   000054                     _width:
   370                           	callstack 0
   371   000054                     	ds	2
   372   000056                     _prec:
   373                           	callstack 0
   374   000056                     	ds	2
   375   000058                     _uart2RxLastError:
   376                           	callstack 0
   377   000058                     	ds	2
   378   00005A                     _flags:
   379                           	callstack 0
   380   00005A                     	ds	1
   381   00005B                     _received_data:
   382                           	callstack 0
   383   00005B                     	ds	1
   384                           
   385                           	psect	bssBANK0
   386   000090                     __pbssBANK0:
   387                           	callstack 0
   388   000090                     _dbuf:
   389                           	callstack 0
   390   000090                     	ds	32
   391                           
   392                           	psect	cstackBANK0
   393   000060                     __pcstackBANK0:
   394                           	callstack 0
   395   000060                     main@hex_string:
   396                           	callstack 0
   397                           
   398                           ; 37 bytes @ 0x0
   399   000060                     	ds	37
   400   000085                     main@received_bytes:
   401                           	callstack 0
   402                           
   403                           ; 9 bytes @ 0x25
   404   000085                     	ds	9
   405   00008E                     main@byte_count:
   406                           	callstack 0
   407                           
   408                           ; 1 bytes @ 0x2E
   409   00008E                     	ds	1
   410   00008F                     main@i:
   411                           	callstack 0
   412                           
   413                           ; 1 bytes @ 0x2F
   414   00008F                     	ds	1
   415                           
   416                           	psect	cstackCOMRAM
   417   000001                     __pcstackCOMRAM:
   418                           	callstack 0
   419   000001                     ?_strlen:
   420                           	callstack 0
   421   000001                     ?___wmul:
   422                           	callstack 0
   423   000001                     _UART2_IsTxReady$832:
   424                           	callstack 0
   425   000001                     UART2_Write@txData:
   426                           	callstack 0
   427   000001                     strlen@s:
   428                           	callstack 0
   429   000001                     MSdelay@val:
   430                           	callstack 0
   431   000001                     ___wmul@multiplier:
   432                           	callstack 0
   433   000001                     INT0_SetInterruptHandler@InterruptHandler:
   434                           	callstack 0
   435   000001                     INT1_SetInterruptHandler@InterruptHandler:
   436                           	callstack 0
   437   000001                     INT2_SetInterruptHandler@InterruptHandler:
   438                           	callstack 0
   439   000001                     UART2_FramingErrorCallbackRegister@callbackHandler:
   440                           	callstack 0
   441   000001                     UART2_OverrunErrorCallbackRegister@callbackHandler:
   442                           	callstack 0
   443   000001                     UART2_ParityErrorCallbackRegister@callbackHandler:
   444                           	callstack 0
   445                           
   446                           ; 3 bytes @ 0x0
   447   000001                     	ds	1
   448   000002                     putch@txData:
   449                           	callstack 0
   450                           
   451                           ; 1 bytes @ 0x1
   452   000002                     	ds	1
   453   000003                     strlen@a:
   454                           	callstack 0
   455   000003                     MSdelay@i:
   456                           	callstack 0
   457   000003                     ___wmul@multiplicand:
   458                           	callstack 0
   459   000003                     fputc@c:
   460                           	callstack 0
   461                           
   462                           ; 2 bytes @ 0x2
   463   000003                     	ds	1
   464   000004                     
   465                           ; 1 bytes @ 0x3
   466   000004                     	ds	1
   467   000005                     fputc@fp:
   468                           	callstack 0
   469   000005                     MSdelay@j:
   470                           	callstack 0
   471   000005                     ___wmul@product:
   472                           	callstack 0
   473                           
   474                           ; 2 bytes @ 0x4
   475   000005                     	ds	1
   476   000006                     ??_fputc:
   477                           
   478                           ; 1 bytes @ 0x5
   479   000006                     	ds	1
   480   000007                     ?_read_prec_or_width:
   481                           	callstack 0
   482   000007                     LCD_Command@cmd:
   483                           	callstack 0
   484   000007                     LCD_Char@dat:
   485                           	callstack 0
   486   000007                     read_prec_or_width@fmt:
   487                           	callstack 0
   488                           
   489                           ; 1 bytes @ 0x6
   490   000007                     	ds	1
   491   000008                     read_prec_or_width@ap:
   492                           	callstack 0
   493   000008                     LCD_String@msg:
   494                           	callstack 0
   495                           
   496                           ; 2 bytes @ 0x7
   497   000008                     	ds	1
   498   000009                     read_prec_or_width@c:
   499                           	callstack 0
   500                           
   501                           ; 1 bytes @ 0x8
   502   000009                     	ds	1
   503   00000A                     LCD_String_xy@pos:
   504                           	callstack 0
   505   00000A                     read_prec_or_width@n:
   506                           	callstack 0
   507                           
   508                           ; 2 bytes @ 0x9
   509   00000A                     	ds	1
   510   00000B                     fputs@s:
   511                           	callstack 0
   512   00000B                     LCD_String_xy@msg:
   513                           	callstack 0
   514                           
   515                           ; 2 bytes @ 0xA
   516   00000B                     	ds	1
   517   00000C                     fputs@fp:
   518                           	callstack 0
   519                           
   520                           ; 1 bytes @ 0xB
   521   00000C                     	ds	1
   522   00000D                     LCD_String_xy@row:
   523                           	callstack 0
   524   00000D                     fputs@c:
   525                           	callstack 0
   526                           
   527                           ; 1 bytes @ 0xC
   528   00000D                     	ds	1
   529   00000E                     LCD_String_xy@location:
   530                           	callstack 0
   531   00000E                     fputs@i:
   532                           	callstack 0
   533                           
   534                           ; 2 bytes @ 0xD
   535   00000E                     	ds	2
   536   000010                     pad@fp:
   537                           	callstack 0
   538                           
   539                           ; 1 bytes @ 0xF
   540   000010                     	ds	1
   541   000011                     pad@buf:
   542                           	callstack 0
   543                           
   544                           ; 1 bytes @ 0x10
   545   000011                     	ds	1
   546   000012                     pad@p:
   547                           	callstack 0
   548                           
   549                           ; 2 bytes @ 0x11
   550   000012                     	ds	2
   551   000014                     ??_pad:
   552                           
   553                           ; 1 bytes @ 0x13
   554   000014                     	ds	1
   555   000015                     pad@i:
   556                           	callstack 0
   557                           
   558                           ; 2 bytes @ 0x14
   559   000015                     	ds	2
   560   000017                     xtoa@fp:
   561                           	callstack 0
   562                           
   563                           ; 1 bytes @ 0x16
   564   000017                     	ds	1
   565   000018                     xtoa@d:
   566                           	callstack 0
   567                           
   568                           ; 2 bytes @ 0x17
   569   000018                     	ds	2
   570   00001A                     ??_xtoa:
   571                           
   572                           ; 1 bytes @ 0x19
   573   00001A                     	ds	3
   574   00001D                     xtoa@p:
   575                           	callstack 0
   576                           
   577                           ; 1 bytes @ 0x1C
   578   00001D                     	ds	1
   579   00001E                     xtoa@w:
   580                           	callstack 0
   581                           
   582                           ; 2 bytes @ 0x1D
   583   00001E                     	ds	2
   584   000020                     xtoa@c:
   585                           	callstack 0
   586                           
   587                           ; 1 bytes @ 0x1F
   588   000020                     	ds	1
   589   000021                     xtoa@i:
   590                           	callstack 0
   591                           
   592                           ; 2 bytes @ 0x20
   593   000021                     	ds	2
   594   000023                     vfpfcnvrt@fp:
   595                           	callstack 0
   596                           
   597                           ; 1 bytes @ 0x22
   598   000023                     	ds	1
   599   000024                     vfpfcnvrt@fmt:
   600                           	callstack 0
   601                           
   602                           ; 1 bytes @ 0x23
   603   000024                     	ds	1
   604   000025                     vfpfcnvrt@ap:
   605                           	callstack 0
   606                           
   607                           ; 1 bytes @ 0x24
   608   000025                     	ds	1
   609   000026                     vfpfcnvrt@convarg:
   610                           	callstack 0
   611                           
   612                           ; 4 bytes @ 0x25
   613   000026                     	ds	4
   614   00002A                     vfpfcnvrt@done:
   615                           	callstack 0
   616                           
   617                           ; 1 bytes @ 0x29
   618   00002A                     	ds	1
   619   00002B                     vfpfcnvrt@cp:
   620                           	callstack 0
   621                           
   622                           ; 1 bytes @ 0x2A
   623   00002B                     	ds	1
   624   00002C                     ?_vfprintf:
   625                           	callstack 0
   626   00002C                     vfprintf@fp:
   627                           	callstack 0
   628                           
   629                           ; 1 bytes @ 0x2B
   630   00002C                     	ds	1
   631   00002D                     vfprintf@fmt:
   632                           	callstack 0
   633                           
   634                           ; 1 bytes @ 0x2C
   635   00002D                     	ds	1
   636   00002E                     vfprintf@ap:
   637                           	callstack 0
   638                           
   639                           ; 1 bytes @ 0x2D
   640   00002E                     	ds	1
   641   00002F                     vfprintf@cfmt:
   642                           	callstack 0
   643                           
   644                           ; 1 bytes @ 0x2E
   645   00002F                     	ds	1
   646   000030                     ?_sprintf:
   647                           	callstack 0
   648   000030                     sprintf@s:
   649                           	callstack 0
   650                           
   651                           ; 1 bytes @ 0x2F
   652   000030                     	ds	1
   653   000031                     sprintf@fmt:
   654                           	callstack 0
   655                           
   656                           ; 1 bytes @ 0x30
   657   000031                     	ds	3
   658   000034                     sprintf@ap:
   659                           	callstack 0
   660                           
   661                           ; 1 bytes @ 0x33
   662   000034                     	ds	1
   663   000035                     sprintf@f:
   664                           	callstack 0
   665                           
   666                           ; 12 bytes @ 0x34
   667   000035                     	ds	12
   668   000041                     ??_main:
   669                           
   670                           ; 1 bytes @ 0x40
   671   000041                     	ds	1
   672                           
   673 ;;
   674 ;;Main: autosize = 0, tempsize = 1, incstack = 0, save=0
   675 ;;
   676 ;; *************** function _main *****************
   677 ;; Defined at:
   678 ;;		line 53 in file "main.c"
   679 ;; Parameters:    Size  Location     Type
   680 ;;		None
   681 ;; Auto vars:     Size  Location     Type
   682 ;;  i               1   47[BANK0 ] unsigned char 
   683 ;;  hex_string     37    0[BANK0 ] unsigned char [37]
   684 ;;  data           20    0        unsigned char [20]
   685 ;;  received_byt    9   37[BANK0 ] unsigned char [9]
   686 ;;  byte_count      1   46[BANK0 ] unsigned char 
   687 ;;  header_recei    1    0        _Bool 
   688 ;;  temp2           1    0        unsigned char 
   689 ;;  temp1           1    0        unsigned char 
   690 ;;  header          1    0        unsigned char 
   691 ;; Return value:  Size  Location     Type
   692 ;;                  2  510[None  ] int 
   693 ;; Registers used:
   694 ;;		wreg, fsr0l, fsr0h, fsr1l, fsr1h, fsr2l, fsr2h, status,2, status,0, tblptrl, tblptrh, tblptru, prodl, prodh, cstack
   695 ;; Tracked objects:
   696 ;;		On entry : 0/0
   697 ;;		On exit  : 0/0
   698 ;;		Unchanged: 0/0
   699 ;; Data sizes:     COMRAM   BANK0   BANK1   BANK2   BANK3   BANK4   BANK5   BANK6   BANK7   BANK8   BANK9  BANK10  BANK1
      +1  BANK12  BANK13  BANK14  BANK15  BANK16  BANK17  BANK18  BANK19  BANK20  BANK21  BANK22  BANK23  BANK24  BANK25  BANK2
      +6  BANK27  BANK28  BANK29  BANK30  BANK31
   700 ;;      Params:         0       0       0       0       0       0       0       0       0       0       0       0       
      +0       0       0       0       0       0       0       0       0       0       0       0       0       0       0       
      +0       0       0       0       0       0
   701 ;;      Locals:         0      48       0       0       0       0       0       0       0       0       0       0       
      +0       0       0       0       0       0       0       0       0       0       0       0       0       0       0       
      +0       0       0       0       0       0
   702 ;;      Temps:          1       0       0       0       0       0       0       0       0       0       0       0       
      +0       0       0       0       0       0       0       0       0       0       0       0       0       0       0       
      +0       0       0       0       0       0
   703 ;;      Totals:         1      48       0       0       0       0       0       0       0       0       0       0       
      +0       0       0       0       0       0       0       0       0       0       0       0       0       0       0       
      +0       0       0       0       0       0
   704 ;;Total ram usage:       49 bytes
   705 ;; Hardware stack levels required when called: 9
   706 ;; This function calls:
   707 ;;		_LCD_Clear
   708 ;;		_LCD_Init
   709 ;;		_LCD_String_xy
   710 ;;		_SYSTEM_Initialize
   711 ;;		_UART2_Initialize
   712 ;;		_UART2_IsRxReady
   713 ;;		_UART2_Read
   714 ;;		_UART2_ReceiveEnable
   715 ;;		_sprintf
   716 ;;		_strlen
   717 ;; This function is called by:
   718 ;;		Startup code after reset
   719 ;; This function uses a non-reentrant model
   720 ;;
   721                           
   722                           	psect	text0
   723   0022E4                     __ptext0:
   724                           	callstack 0
   725   0022E4                     _main:
   726                           	callstack 22
   727   0022E4                     
   728                           ;main.c: 55:     char data[20];;main.c: 56:     SYSTEM_Initialize();
   729   0022E4  EC57  F015         	call	_SYSTEM_Initialize	;wreg free
   730                           
   731                           ;main.c: 57:     UART2_Initialize();
   732   0022E8  EC44  F013         	call	_UART2_Initialize	;wreg free
   733   0022EC                     
   734                           ;main.c: 58:     U2CON1bits.ON = 1;
   735   0022EC  013D               	movlb	61	; () banked
   736   0022EE  8FDB               	bsf	219,7,b	;volatile
   737   0022F0                     
   738                           ; BSR set to: 61
   739                           ;main.c: 59:     U2CON0bits.RXEN = 1;
   740   0022F0  89DA               	bsf	218,4,b	;volatile
   741   0022F2                     
   742                           ; BSR set to: 61
   743                           ;main.c: 60:     UART2_ReceiveEnable();
   744   0022F2  EC7E  F015         	call	_UART2_ReceiveEnable	;wreg free
   745   0022F6                     
   746                           ;main.c: 61:     LCD_Init();
   747   0022F6  EC90  F014         	call	_LCD_Init	;wreg free
   748   0022FA                     
   749                           ;main.c: 62:     LCD_String_xy(1,0,"Programmed2");
   750   0022FA  0E00               	movlw	0
   751   0022FC  6E0A               	movwf	LCD_String_xy@pos^0,c
   752   0022FE  0E49               	movlw	low STR_3
   753   002300  6E0B               	movwf	LCD_String_xy@msg^0,c
   754   002302  500B               	movf	LCD_String_xy@msg^0,w,c
   755   002304  A4D8               	btfss	status,2,c
   756   002306  0E20               	movlw	high __smallconst
   757   002308  6E0C               	movwf	(LCD_String_xy@msg+1)^0,c
   758   00230A  0E01               	movlw	1
   759   00230C  EC21  F014         	call	_LCD_String_xy
   760   002310                     
   761                           ;main.c: 105:     uint8_t received_bytes[9];;main.c: 106:     char hex_string[37];;main.
      +                          c: 108:     uint8_t byte_count = 0;
   762   002310  0E00               	movlw	0
   763   002312  0100               	movlb	0	; () banked
   764   002314  6F8E               	movwf	main@byte_count& (0+255),b
   765                           
   766                           ;main.c: 110:     while (byte_count < 9) {
   767   002316  EFDF  F011         	goto	l2349
   768   00231A                     l2323:
   769                           
   770                           ; BSR set to: 0
   771                           ;main.c: 112:         if (UART2_IsRxReady()) {
   772   00231A  EC4C  F015         	call	_UART2_IsRxReady	;wreg free
   773   00231E  0900               	iorlw	0
   774   002320  B4D8               	btfsc	status,2,c
   775   002322  EF95  F011         	goto	u1171
   776   002326  EF97  F011         	goto	u1170
   777   00232A                     u1171:
   778   00232A  EFDF  F011         	goto	l2349
   779   00232E                     u1170:
   780   00232E                     
   781                           ;main.c: 113:             received_bytes[byte_count] = UART2_Read();
   782   00232E  0100               	movlb	0	; () banked
   783   002330  518E               	movf	main@byte_count& (0+255),w,b
   784   002332  0F85               	addlw	low main@received_bytes
   785   002334  6ED9               	movwf	fsr2l,c
   786   002336  6ADA               	clrf	fsr2h,c
   787   002338  EC81  F015         	call	_UART2_Read	;wreg free
   788   00233C  6EDF               	movwf	indf2,c
   789   00233E                     
   790                           ;main.c: 114:             byte_count++;
   791   00233E  0100               	movlb	0	; () banked
   792   002340  2B8E               	incf	main@byte_count& (0+255),f,b
   793   002342                     
   794                           ; BSR set to: 0
   795                           ;main.c: 117:             if (byte_count == 9) {
   796   002342  0E09               	movlw	9
   797   002344  198E               	xorwf	main@byte_count& (0+255),w,b
   798   002346  A4D8               	btfss	status,2,c
   799   002348  EFA8  F011         	goto	u1181
   800   00234C  EFAA  F011         	goto	u1180
   801   002350                     u1181:
   802   002350  EFDF  F011         	goto	l2349
   803   002354                     u1180:
   804   002354                     
   805                           ; BSR set to: 0
   806                           ;main.c: 119:                 hex_string[0] = '\0';
   807   002354  0E00               	movlw	0
   808   002356  6F60               	movwf	main@hex_string& (0+255),b
   809                           
   810                           ;main.c: 120:                 for (uint8_t i = 0; i < 9; i++) {
   811   002358  0E00               	movlw	0
   812   00235A  6F8F               	movwf	main@i& (0+255),b
   813   00235C                     l2337:
   814                           
   815                           ; BSR set to: 0
   816                           ;main.c: 121:                     sprintf(hex_string + strlen(hex_string), "%02X ", rece
      +                          ived_bytes[i]);
   817   00235C  0E60               	movlw	low main@hex_string
   818   00235E  6E01               	movwf	strlen@s^0,c
   819   002360  EC79  F014         	call	_strlen	;wreg free
   820   002364  5001               	movf	?_strlen^0,w,c
   821   002366  0F60               	addlw	low main@hex_string
   822   002368  6E30               	movwf	sprintf@s^0,c
   823   00236A  0E65               	movlw	low STR_4
   824   00236C  6E31               	movwf	sprintf@fmt^0,c
   825   00236E  0100               	movlb	0	; () banked
   826   002370  518F               	movf	main@i& (0+255),w,b
   827   002372  0F85               	addlw	low main@received_bytes
   828   002374  6ED9               	movwf	fsr2l,c
   829   002376  6ADA               	clrf	fsr2h,c
   830   002378  50DF               	movf	indf2,w,c
   831   00237A  6E41               	movwf	??_main^0,c
   832   00237C  5041               	movf	??_main^0,w,c
   833   00237E  6E32               	movwf	(?_sprintf+2)^0,c
   834   002380  6A33               	clrf	(?_sprintf+3)^0,c
   835   002382  EC5F  F014         	call	_sprintf	;wreg free
   836   002386                     
   837                           ;main.c: 122:                 }
   838   002386  0100               	movlb	0	; () banked
   839   002388  2B8F               	incf	main@i& (0+255),f,b
   840   00238A                     
   841                           ; BSR set to: 0
   842   00238A  0E08               	movlw	8
   843   00238C  658F               	cpfsgt	main@i& (0+255),b
   844   00238E  EFCB  F011         	goto	u1191
   845   002392  EFCD  F011         	goto	u1190
   846   002396                     u1191:
   847   002396  EFAE  F011         	goto	l2337
   848   00239A                     u1190:
   849   00239A                     
   850                           ; BSR set to: 0
   851                           ;main.c: 125:                 LCD_Clear();
   852   00239A  EC7A  F015         	call	_LCD_Clear	;wreg free
   853   00239E                     
   854                           ;main.c: 129:                 LCD_String_xy(1, 0, hex_string);
   855   00239E  0E00               	movlw	0
   856   0023A0  6E0A               	movwf	LCD_String_xy@pos^0,c
   857   0023A2  0E60               	movlw	low main@hex_string
   858   0023A4  6E0B               	movwf	LCD_String_xy@msg^0,c
   859   0023A6  6A0C               	clrf	(LCD_String_xy@msg+1)^0,c
   860   0023A8  0E01               	movlw	1
   861   0023AA  EC21  F014         	call	_LCD_String_xy
   862   0023AE                     
   863                           ;main.c: 130:                 LCD_String_xy(2, 0, hex_string + 16);
   864   0023AE  0E00               	movlw	0
   865   0023B0  6E0A               	movwf	LCD_String_xy@pos^0,c
   866   0023B2  0E70               	movlw	low (main@hex_string+16)
   867   0023B4  6E0B               	movwf	LCD_String_xy@msg^0,c
   868   0023B6  6A0C               	clrf	(LCD_String_xy@msg+1)^0,c
   869   0023B8  0E02               	movlw	2
   870   0023BA  EC21  F014         	call	_LCD_String_xy
   871   0023BE                     l2349:
   872                           
   873                           ;main.c: 110:     while (byte_count < 9) {
   874   0023BE  0E08               	movlw	8
   875   0023C0  0100               	movlb	0	; () banked
   876   0023C2  658E               	cpfsgt	main@byte_count& (0+255),b
   877   0023C4  EFE6  F011         	goto	u1201
   878   0023C8  EFE8  F011         	goto	u1200
   879   0023CC                     u1201:
   880   0023CC  EF8D  F011         	goto	l2323
   881   0023D0                     u1200:
   882   0023D0                     l518:
   883   0023D0  EFE8  F011         	goto	l518
   884   0023D4  EFFE  F0FF         	goto	start
   885   0023D8                     __end_of_main:
   886                           	callstack 0
   887                           
   888 ;; *************** function _strlen *****************
   889 ;; Defined at:
   890 ;;		line 5 in file "C:\Program Files\Microchip\xc8\v2.46\pic\sources\c99\common\strlen.c"
   891 ;; Parameters:    Size  Location     Type
   892 ;;  s               1    0[COMRAM] PTR const unsigned char 
   893 ;;		 -> main@hex_string(37), 
   894 ;; Auto vars:     Size  Location     Type
   895 ;;  a               1    2[COMRAM] PTR const unsigned char 
   896 ;;		 -> main@hex_string(37), 
   897 ;; Return value:  Size  Location     Type
   898 ;;                  2    0[COMRAM] unsigned int 
   899 ;; Registers used:
   900 ;;		wreg, fsr2l, fsr2h, status,2, status,0
   901 ;; Tracked objects:
   902 ;;		On entry : 0/0
   903 ;;		On exit  : 0/0
   904 ;;		Unchanged: 0/0
   905 ;; Data sizes:     COMRAM   BANK0   BANK1   BANK2   BANK3   BANK4   BANK5   BANK6   BANK7   BANK8   BANK9  BANK10  BANK1
      +1  BANK12  BANK13  BANK14  BANK15  BANK16  BANK17  BANK18  BANK19  BANK20  BANK21  BANK22  BANK23  BANK24  BANK25  BANK2
      +6  BANK27  BANK28  BANK29  BANK30  BANK31
   906 ;;      Params:         2       0       0       0       0       0       0       0       0       0       0       0       
      +0       0       0       0       0       0       0       0       0       0       0       0       0       0       0       
      +0       0       0       0       0       0
   907 ;;      Locals:         1       0       0       0       0       0       0       0       0       0       0       0       
      +0       0       0       0       0       0       0       0       0       0       0       0       0       0       0       
      +0       0       0       0       0       0
   908 ;;      Temps:          0       0       0       0       0       0       0       0       0       0       0       0       
      +0       0       0       0       0       0       0       0       0       0       0       0       0       0       0       
      +0       0       0       0       0       0
   909 ;;      Totals:         3       0       0       0       0       0       0       0       0       0       0       0       
      +0       0       0       0       0       0       0       0       0       0       0       0       0       0       0       
      +0       0       0       0       0       0
   910 ;;Total ram usage:        3 bytes
   911 ;; Hardware stack levels used: 1
   912 ;; This function calls:
   913 ;;		Nothing
   914 ;; This function is called by:
   915 ;;		_main
   916 ;; This function uses a non-reentrant model
   917 ;;
   918                           
   919                           	psect	text1
   920   0028F2                     __ptext1:
   921                           	callstack 0
   922   0028F2                     _strlen:
   923                           	callstack 30
   924   0028F2  C001  F003         	movff	strlen@s,strlen@a
   925   0028F6  EF7E  F014         	goto	l2209
   926   0028FA                     l2207:
   927   0028FA  2A01               	incf	strlen@s^0,f,c
   928   0028FC                     l2209:
   929   0028FC  5001               	movf	strlen@s^0,w,c
   930   0028FE  6ED9               	movwf	fsr2l,c
   931   002900  6ADA               	clrf	fsr2h,c
   932   002902  50DF               	movf	indf2,w,c
   933   002904  A4D8               	btfss	status,2,c
   934   002906  EF87  F014         	goto	u1051
   935   00290A  EF89  F014         	goto	u1050
   936   00290E                     u1051:
   937   00290E  EF7D  F014         	goto	l2207
   938   002912                     u1050:
   939   002912  5003               	movf	strlen@a^0,w,c
   940   002914  5C01               	subwf	strlen@s^0,w,c
   941   002916  6E01               	movwf	?_strlen^0,c
   942   002918  6A02               	clrf	(?_strlen+1)^0,c
   943   00291A  BE01               	btfsc	?_strlen^0,7,c
   944   00291C  0602               	decf	(?_strlen+1)^0,f,c
   945   00291E  0012               	return		;funcret
   946   002920                     __end_of_strlen:
   947                           	callstack 0
   948                           
   949 ;; *************** function _sprintf *****************
   950 ;; Defined at:
   951 ;;		line 9 in file "C:\Program Files\Microchip\xc8\v2.46\pic\sources\c99\common\nf_sprintf.c"
   952 ;; Parameters:    Size  Location     Type
   953 ;;  s               1   47[COMRAM] PTR unsigned char 
   954 ;;		 -> main@hex_string(37), 
   955 ;;  fmt             1   48[COMRAM] PTR const unsigned char 
   956 ;;		 -> STR_4(6), 
   957 ;; Auto vars:     Size  Location     Type
   958 ;;  f              12   52[COMRAM] struct _IO_FILE
   959 ;;  ret             2    0        int 
   960 ;;  ap              1   51[COMRAM] PTR void [1]
   961 ;;		 -> ?_sprintf(2), 
   962 ;; Return value:  Size  Location     Type
   963 ;;                  2   47[COMRAM] int 
   964 ;; Registers used:
   965 ;;		wreg, fsr1l, fsr1h, fsr2l, fsr2h, status,2, status,0, tblptrl, tblptrh, tblptru, prodl, prodh, cstack
   966 ;; Tracked objects:
   967 ;;		On entry : 0/0
   968 ;;		On exit  : 0/0
   969 ;;		Unchanged: 0/0
   970 ;; Data sizes:     COMRAM   BANK0   BANK1   BANK2   BANK3   BANK4   BANK5   BANK6   BANK7   BANK8   BANK9  BANK10  BANK1
      +1  BANK12  BANK13  BANK14  BANK15  BANK16  BANK17  BANK18  BANK19  BANK20  BANK21  BANK22  BANK23  BANK24  BANK25  BANK2
      +6  BANK27  BANK28  BANK29  BANK30  BANK31
   971 ;;      Params:         4       0       0       0       0       0       0       0       0       0       0       0       
      +0       0       0       0       0       0       0       0       0       0       0       0       0       0       0       
      +0       0       0       0       0       0
   972 ;;      Locals:        13       0       0       0       0       0       0       0       0       0       0       0       
      +0       0       0       0       0       0       0       0       0       0       0       0       0       0       0       
      +0       0       0       0       0       0
   973 ;;      Temps:          0       0       0       0       0       0       0       0       0       0       0       0       
      +0       0       0       0       0       0       0       0       0       0       0       0       0       0       0       
      +0       0       0       0       0       0
   974 ;;      Totals:        17       0       0       0       0       0       0       0       0       0       0       0       
      +0       0       0       0       0       0       0       0       0       0       0       0       0       0       0       
      +0       0       0       0       0       0
   975 ;;Total ram usage:       17 bytes
   976 ;; Hardware stack levels used: 1
   977 ;; Hardware stack levels required when called: 8
   978 ;; This function calls:
   979 ;;		_vfprintf
   980 ;; This function is called by:
   981 ;;		_main
   982 ;; This function uses a non-reentrant model
   983 ;;
   984                           
   985                           	psect	text2
   986   0028BE                     __ptext2:
   987                           	callstack 0
   988   0028BE                     _sprintf:
   989                           	callstack 22
   990   0028BE  0E32               	movlw	low (?_sprintf+2)
   991   0028C0  6E34               	movwf	sprintf@ap^0,c
   992   0028C2  C030  F035         	movff	sprintf@s,sprintf@f
   993   0028C6  0E00               	movlw	0
   994   0028C8  6E39               	movwf	(sprintf@f+4)^0,c
   995   0028CA  0E00               	movlw	0
   996   0028CC  6E38               	movwf	(sprintf@f+3)^0,c
   997   0028CE  0E00               	movlw	0
   998   0028D0  6E40               	movwf	(sprintf@f+11)^0,c
   999   0028D2  0E00               	movlw	0
  1000   0028D4  6E3F               	movwf	(sprintf@f+10)^0,c
  1001   0028D6  0E35               	movlw	low sprintf@f
  1002   0028D8  6E2C               	movwf	vfprintf@fp^0,c
  1003   0028DA  C031  F02D         	movff	sprintf@fmt,vfprintf@fmt
  1004   0028DE  0E34               	movlw	low sprintf@ap
  1005   0028E0  6E2E               	movwf	vfprintf@ap^0,c
  1006   0028E2  ECFF  F013         	call	_vfprintf	;wreg free
  1007   0028E6  5030               	movf	sprintf@s^0,w,c
  1008   0028E8  2438               	addwf	(sprintf@f+3)^0,w,c
  1009   0028EA  6ED9               	movwf	fsr2l,c
  1010   0028EC  6ADA               	clrf	fsr2h,c
  1011   0028EE  6ADF               	clrf	indf2,c
  1012   0028F0  0012               	return		;funcret
  1013   0028F2                     __end_of_sprintf:
  1014                           	callstack 0
  1015                           
  1016 ;; *************** function _vfprintf *****************
  1017 ;; Defined at:
  1018 ;;		line 1817 in file "C:\Program Files\Microchip\xc8\v2.46\pic\sources\c99\common\doprnt.c"
  1019 ;; Parameters:    Size  Location     Type
  1020 ;;  fp              1   43[COMRAM] PTR struct _IO_FILE
  1021 ;;		 -> sprintf@f(12), 
  1022 ;;  fmt             1   44[COMRAM] PTR const unsigned char 
  1023 ;;		 -> STR_4(6), 
  1024 ;;  ap              1   45[COMRAM] PTR PTR void 
  1025 ;;		 -> sprintf@ap(1), 
  1026 ;; Auto vars:     Size  Location     Type
  1027 ;;  cfmt            1   46[COMRAM] PTR unsigned char 
  1028 ;;		 -> STR_4(6), 
  1029 ;; Return value:  Size  Location     Type
  1030 ;;                  2   43[COMRAM] int 
  1031 ;; Registers used:
  1032 ;;		wreg, fsr1l, fsr1h, fsr2l, fsr2h, status,2, status,0, tblptrl, tblptrh, tblptru, prodl, prodh, cstack
  1033 ;; Tracked objects:
  1034 ;;		On entry : 0/0
  1035 ;;		On exit  : 0/0
  1036 ;;		Unchanged: 0/0
  1037 ;; Data sizes:     COMRAM   BANK0   BANK1   BANK2   BANK3   BANK4   BANK5   BANK6   BANK7   BANK8   BANK9  BANK10  BANK1
      +1  BANK12  BANK13  BANK14  BANK15  BANK16  BANK17  BANK18  BANK19  BANK20  BANK21  BANK22  BANK23  BANK24  BANK25  BANK2
      +6  BANK27  BANK28  BANK29  BANK30  BANK31
  1038 ;;      Params:         3       0       0       0       0       0       0       0       0       0       0       0       
      +0       0       0       0       0       0       0       0       0       0       0       0       0       0       0       
      +0       0       0       0       0       0
  1039 ;;      Locals:         1       0       0       0       0       0       0       0       0       0       0       0       
      +0       0       0       0       0       0       0       0       0       0       0       0       0       0       0       
      +0       0       0       0       0       0
  1040 ;;      Temps:          0       0       0       0       0       0       0       0       0       0       0       0       
      +0       0       0       0       0       0       0       0       0       0       0       0       0       0       0       
      +0       0       0       0       0       0
  1041 ;;      Totals:         4       0       0       0       0       0       0       0       0       0       0       0       
      +0       0       0       0       0       0       0       0       0       0       0       0       0       0       0       
      +0       0       0       0       0       0
  1042 ;;Total ram usage:        4 bytes
  1043 ;; Hardware stack levels used: 1
  1044 ;; Hardware stack levels required when called: 7
  1045 ;; This function calls:
  1046 ;;		_vfpfcnvrt
  1047 ;; This function is called by:
  1048 ;;		_sprintf
  1049 ;; This function uses a non-reentrant model
  1050 ;;
  1051                           
  1052                           	psect	text3
  1053   0027FE                     __ptext3:
  1054                           	callstack 0
  1055   0027FE                     _vfprintf:
  1056                           	callstack 22
  1057   0027FE                     
  1058                           ;C:\Program Files\Microchip\xc8\v2.46\pic\sources\c99\common\doprnt.c: 1817: int vfprint
      +                          f(FILE *fp, const char *fmt, va_list ap);C:\Program Files\Microchip\xc8\v2.46\pic\source
      +                          s\c99\common\doprnt.c: 1818: {;C:\Program Files\Microchip\xc8\v2.46\pic\sources\c99\comm
      +                          on\doprnt.c: 1820:     char *cfmt;;C:\Program Files\Microchip\xc8\v2.46\pic\sources\c99\
      +                          common\doprnt.c: 1822:     cfmt = (char *)fmt;
  1059   0027FE  C02D  F02F         	movff	vfprintf@fmt,vfprintf@cfmt
  1060                           
  1061                           ;C:\Program Files\Microchip\xc8\v2.46\pic\sources\c99\common\doprnt.c: 1826:     while (
      +                          *cfmt) {
  1062   002802  EF0B  F014         	goto	l2161
  1063   002806                     l2159:
  1064                           
  1065                           ;C:\Program Files\Microchip\xc8\v2.46\pic\sources\c99\common\doprnt.c: 1830:    vfpfcnvr
      +                          t(fp, &cfmt, ap);
  1066   002806  C02C  F023         	movff	vfprintf@fp,vfpfcnvrt@fp
  1067   00280A  0E2F               	movlw	low vfprintf@cfmt
  1068   00280C  6E24               	movwf	vfpfcnvrt@fmt^0,c
  1069   00280E  C02E  F025         	movff	vfprintf@ap,vfpfcnvrt@ap
  1070   002812  EC36  F010         	call	_vfpfcnvrt	;wreg free
  1071   002816                     l2161:
  1072                           
  1073                           ;C:\Program Files\Microchip\xc8\v2.46\pic\sources\c99\common\doprnt.c: 1826:     while (
      +                          *cfmt) {
  1074   002816  0060  F0BF  FFF6   	movff	vfprintf@cfmt,tblptrl
  1075   00281C                     	if	1	;There is more than 1 active tblptr byte
  1076   00281C  0E20               	movlw	high __smallconst
  1077   00281E  6EF7               	movwf	tblptrh,c
  1078   002820                     	endif
  1079   002820                     	if	0	;tblptru may be non-zero
  1080   002820                     	endif
  1081   002820                     	if	1	;Program memory is > 0xFFFF, there are 3 active tblptr bytes
  1082   002820  0E00               	movlw	low (__smallconst shr (0+16))
  1083   002822  6EF8               	movwf	tblptru,c
  1084   002824                     	endif
  1085   002824  0008               	tblrd		*
  1086   002826  50F5               	movf	tablat,w,c
  1087   002828  0900               	iorlw	0
  1088   00282A  A4D8               	btfss	status,2,c
  1089   00282C  EF1A  F014         	goto	u1011
  1090   002830  EF1C  F014         	goto	u1010
  1091   002834                     u1011:
  1092   002834  EF03  F014         	goto	l2159
  1093   002838                     u1010:
  1094   002838                     
  1095                           ;C:\Program Files\Microchip\xc8\v2.46\pic\sources\c99\common\doprnt.c: 1835:  return 0;
  1096   002838  0E00               	movlw	0
  1097   00283A  6E2D               	movwf	(?_vfprintf+1)^0,c
  1098   00283C  0E00               	movlw	0
  1099   00283E  6E2C               	movwf	?_vfprintf^0,c
  1100   002840  0012               	return		;funcret
  1101   002842                     __end_of_vfprintf:
  1102                           	callstack 0
  1103                           
  1104 ;; *************** function _vfpfcnvrt *****************
  1105 ;; Defined at:
  1106 ;;		line 1177 in file "C:\Program Files\Microchip\xc8\v2.46\pic\sources\c99\common\doprnt.c"
  1107 ;; Parameters:    Size  Location     Type
  1108 ;;  fp              1   34[COMRAM] PTR struct _IO_FILE
  1109 ;;		 -> sprintf@f(12), 
  1110 ;;  fmt             1   35[COMRAM] PTR PTR unsigned char 
  1111 ;;		 -> vfprintf@cfmt(1), 
  1112 ;;  ap              1   36[COMRAM] PTR PTR void 
  1113 ;;		 -> sprintf@ap(1), 
  1114 ;; Auto vars:     Size  Location     Type
  1115 ;;  convarg         4   37[COMRAM] struct .
  1116 ;;  cp              1   42[COMRAM] PTR unsigned char 
  1117 ;;		 -> STR_4(6), 
  1118 ;;  done            1   41[COMRAM] _Bool 
  1119 ;;  c               1    0        unsigned char 
  1120 ;; Return value:  Size  Location     Type
  1121 ;;                  1    wreg      void 
  1122 ;; Registers used:
  1123 ;;		wreg, fsr1l, fsr1h, fsr2l, fsr2h, status,2, status,0, tblptrl, tblptrh, tblptru, prodl, prodh, cstack
  1124 ;; Tracked objects:
  1125 ;;		On entry : 0/0
  1126 ;;		On exit  : 0/0
  1127 ;;		Unchanged: 0/0
  1128 ;; Data sizes:     COMRAM   BANK0   BANK1   BANK2   BANK3   BANK4   BANK5   BANK6   BANK7   BANK8   BANK9  BANK10  BANK1
      +1  BANK12  BANK13  BANK14  BANK15  BANK16  BANK17  BANK18  BANK19  BANK20  BANK21  BANK22  BANK23  BANK24  BANK25  BANK2
      +6  BANK27  BANK28  BANK29  BANK30  BANK31
  1129 ;;      Params:         3       0       0       0       0       0       0       0       0       0       0       0       
      +0       0       0       0       0       0       0       0       0       0       0       0       0       0       0       
      +0       0       0       0       0       0
  1130 ;;      Locals:         6       0       0       0       0       0       0       0       0       0       0       0       
      +0       0       0       0       0       0       0       0       0       0       0       0       0       0       0       
      +0       0       0       0       0       0
  1131 ;;      Temps:          0       0       0       0       0       0       0       0       0       0       0       0       
      +0       0       0       0       0       0       0       0       0       0       0       0       0       0       0       
      +0       0       0       0       0       0
  1132 ;;      Totals:         9       0       0       0       0       0       0       0       0       0       0       0       
      +0       0       0       0       0       0       0       0       0       0       0       0       0       0       0       
      +0       0       0       0       0       0
  1133 ;;Total ram usage:        9 bytes
  1134 ;; Hardware stack levels used: 1
  1135 ;; Hardware stack levels required when called: 6
  1136 ;; This function calls:
  1137 ;;		_fputc
  1138 ;;		_read_prec_or_width
  1139 ;;		_xtoa
  1140 ;; This function is called by:
  1141 ;;		_vfprintf
  1142 ;; This function uses a non-reentrant model
  1143 ;;
  1144                           
  1145                           	psect	text4
  1146   00206C                     __ptext4:
  1147                           	callstack 0
  1148   00206C                     _vfpfcnvrt:
  1149                           	callstack 22
  1150   00206C                     
  1151                           ;C:\Program Files\Microchip\xc8\v2.46\pic\sources\c99\common\doprnt.c: 1177: vfpfcnvrt(F
      +                          ILE *fp, char *fmt[], va_list ap);C:\Program Files\Microchip\xc8\v2.46\pic\sources\c99\c
      +                          ommon\doprnt.c: 1178: {;C:\Program Files\Microchip\xc8\v2.46\pic\sources\c99\common\dopr
      +                          nt.c: 1179:     char c, *cp;;C:\Program Files\Microchip\xc8\v2.46\pic\sources\c99\common
      +                          \doprnt.c: 1180:     _Bool done;;C:\Program Files\Microchip\xc8\v2.46\pic\sources\c99\co
      +                          mmon\doprnt.c: 1188:  } convarg;;C:\Program Files\Microchip\xc8\v2.46\pic\sources\c99\co
      +                          mmon\doprnt.c: 1201:     if ((*fmt)[0] == '%') {
  1152   00206C  5024               	movf	vfpfcnvrt@fmt^0,w,c
  1153   00206E  6ED9               	movwf	fsr2l,c
  1154   002070  6ADA               	clrf	fsr2h,c
  1155   002072  006F FF7F FFF6     	movff	indf2,tblptrl
  1156   002078                     	if	1	;There is more than 1 active tblptr byte
  1157   002078  0E20               	movlw	high __smallconst
  1158   00207A  6EF7               	movwf	tblptrh,c
  1159   00207C                     	endif
  1160   00207C                     	if	0	;tblptru may be non-zero
  1161   00207C                     	endif
  1162   00207C                     	if	1	;Program memory is > 0xFFFF, there are 3 active tblptr bytes
  1163   00207C  0E00               	movlw	low (__smallconst shr (0+16))
  1164   00207E  6EF8               	movwf	tblptru,c
  1165   002080                     	endif
  1166   002080  0008               	tblrd		*
  1167   002082  50F5               	movf	tablat,w,c
  1168   002084  0A25               	xorlw	37
  1169   002086  A4D8               	btfss	status,2,c
  1170   002088  EF48  F010         	goto	u941
  1171   00208C  EF4A  F010         	goto	u940
  1172   002090                     u941:
  1173   002090  EFDF  F010         	goto	l2077
  1174   002094                     u940:
  1175   002094                     
  1176                           ;C:\Program Files\Microchip\xc8\v2.46\pic\sources\c99\common\doprnt.c: 1202:         ++*
      +                          fmt;
  1177   002094  5024               	movf	vfpfcnvrt@fmt^0,w,c
  1178   002096  6ED9               	movwf	fsr2l,c
  1179   002098  6ADA               	clrf	fsr2h,c
  1180   00209A  2ADF               	incf	indf2,f,c
  1181   00209C                     
  1182                           ;C:\Program Files\Microchip\xc8\v2.46\pic\sources\c99\common\doprnt.c: 1204:         fla
      +                          gs = width = 0;
  1183   00209C  0E00               	movlw	0
  1184   00209E  6E55               	movwf	(_width+1)^0,c
  1185   0020A0  0E00               	movlw	0
  1186   0020A2  6E54               	movwf	_width^0,c
  1187   0020A4  C054  F05A         	movff	_width,_flags
  1188   0020A8                     
  1189                           ;C:\Program Files\Microchip\xc8\v2.46\pic\sources\c99\common\doprnt.c: 1205:         pre
      +                          c = -1;
  1190   0020A8  6856               	setf	_prec^0,c
  1191   0020AA  6857               	setf	(_prec+1)^0,c
  1192   0020AC                     
  1193                           ;C:\Program Files\Microchip\xc8\v2.46\pic\sources\c99\common\doprnt.c: 1209:         don
      +                          e = 0;
  1194   0020AC  0E00               	movlw	0
  1195   0020AE  6E2A               	movwf	vfpfcnvrt@done^0,c
  1196                           
  1197                           ;C:\Program Files\Microchip\xc8\v2.46\pic\sources\c99\common\doprnt.c: 1210:         whi
      +                          le (!done) {
  1198   0020B0  EF77  F010         	goto	l2049
  1199   0020B4                     l2039:
  1200                           
  1201                           ;C:\Program Files\Microchip\xc8\v2.46\pic\sources\c99\common\doprnt.c: 1220:            
      +                                   flags |= (1 << 1);
  1202   0020B4  825A               	bsf	_flags^0,1,c
  1203   0020B6                     
  1204                           ;C:\Program Files\Microchip\xc8\v2.46\pic\sources\c99\common\doprnt.c: 1221:            
      +                                   ++*fmt;
  1205   0020B6  5024               	movf	vfpfcnvrt@fmt^0,w,c
  1206   0020B8  6ED9               	movwf	fsr2l,c
  1207   0020BA  6ADA               	clrf	fsr2h,c
  1208   0020BC  2ADF               	incf	indf2,f,c
  1209                           
  1210                           ;C:\Program Files\Microchip\xc8\v2.46\pic\sources\c99\common\doprnt.c: 1222:            
      +                                   break;
  1211   0020BE  EF77  F010         	goto	l2049
  1212   0020C2                     l2043:
  1213                           
  1214                           ;C:\Program Files\Microchip\xc8\v2.46\pic\sources\c99\common\doprnt.c: 1243:            
      +                                   done = 1;
  1215   0020C2  0E01               	movlw	1
  1216   0020C4  6E2A               	movwf	vfpfcnvrt@done^0,c
  1217                           
  1218                           ;C:\Program Files\Microchip\xc8\v2.46\pic\sources\c99\common\doprnt.c: 1244:            
      +                                   break;
  1219   0020C6  EF77  F010         	goto	l2049
  1220   0020CA                     l2047:
  1221   0020CA  5024               	movf	vfpfcnvrt@fmt^0,w,c
  1222   0020CC  6ED9               	movwf	fsr2l,c
  1223   0020CE  6ADA               	clrf	fsr2h,c
  1224   0020D0  006F FF7F FFF6     	movff	indf2,tblptrl
  1225   0020D6                     	if	1	;There is more than 1 active tblptr byte
  1226   0020D6  0E20               	movlw	high __smallconst
  1227   0020D8  6EF7               	movwf	tblptrh,c
  1228   0020DA                     	endif
  1229   0020DA                     	if	0	;tblptru may be non-zero
  1230   0020DA                     	endif
  1231   0020DA                     	if	1	;Program memory is > 0xFFFF, there are 3 active tblptr bytes
  1232   0020DA  0E00               	movlw	low (__smallconst shr (0+16))
  1233   0020DC  6EF8               	movwf	tblptru,c
  1234   0020DE                     	endif
  1235   0020DE  0008               	tblrd		*
  1236   0020E0  50F5               	movf	tablat,w,c
  1237                           
  1238                           ; Switch size 1, requested type "simple"
  1239                           ; Number of cases is 1, Range of values is 48 to 48
  1240                           ; switch strategies available:
  1241                           ; Name         Instructions Cycles
  1242                           ; simple_byte            4     3 (average)
  1243                           ;	Chosen strategy is simple_byte
  1244   0020E2  0A30               	xorlw	48	; case 48
  1245   0020E4  B4D8               	btfsc	status,2,c
  1246   0020E6  EF5A  F010         	goto	l2039
  1247   0020EA  EF61  F010         	goto	l2043
  1248   0020EE                     l2049:
  1249                           
  1250                           ;C:\Program Files\Microchip\xc8\v2.46\pic\sources\c99\common\doprnt.c: 1210:         whi
      +                          le (!done) {
  1251   0020EE  502A               	movf	vfpfcnvrt@done^0,w,c
  1252   0020F0  B4D8               	btfsc	status,2,c
  1253   0020F2  EF7D  F010         	goto	u951
  1254   0020F6  EF7F  F010         	goto	u950
  1255   0020FA                     u951:
  1256   0020FA  EF65  F010         	goto	l2047
  1257   0020FE                     u950:
  1258   0020FE                     
  1259                           ;C:\Program Files\Microchip\xc8\v2.46\pic\sources\c99\common\doprnt.c: 1256:   width = r
      +                          ead_prec_or_width(fmt, ap);
  1260   0020FE  C024  F007         	movff	vfpfcnvrt@fmt,read_prec_or_width@fmt
  1261   002102  C025  F008         	movff	vfpfcnvrt@ap,read_prec_or_width@ap
  1262   002106  EC4E  F012         	call	_read_prec_or_width	;wreg free
  1263   00210A  C007  F054         	movff	?_read_prec_or_width,_width
  1264   00210E  C008  F055         	movff	?_read_prec_or_width+1,_width+1
  1265   002112                     
  1266                           ;C:\Program Files\Microchip\xc8\v2.46\pic\sources\c99\common\doprnt.c: 1257:   if (width
      +                           < 0) {
  1267   002112  BE55               	btfsc	(_width+1)^0,7,c
  1268   002114  EF90  F010         	goto	u960
  1269   002118  EF8E  F010         	goto	u961
  1270   00211C                     u961:
  1271   00211C  EF95  F010         	goto	l2057
  1272   002120                     u960:
  1273   002120                     
  1274                           ;C:\Program Files\Microchip\xc8\v2.46\pic\sources\c99\common\doprnt.c: 1258:    flags |=
      +                           (1 << 0);
  1275   002120  805A               	bsf	_flags^0,0,c
  1276                           
  1277                           ;C:\Program Files\Microchip\xc8\v2.46\pic\sources\c99\common\doprnt.c: 1259:    width = 
      +                          -width;
  1278   002122  6C54               	negf	_width^0,c
  1279   002124  1E55               	comf	(_width+1)^0,f,c
  1280   002126  B0D8               	btfsc	status,0,c
  1281   002128  2A55               	incf	(_width+1)^0,f,c
  1282   00212A                     l2057:
  1283                           
  1284                           ;C:\Program Files\Microchip\xc8\v2.46\pic\sources\c99\common\doprnt.c: 1439:   if (0
  1285   00212A  5024               	movf	vfpfcnvrt@fmt^0,w,c
  1286   00212C  6ED9               	movwf	fsr2l,c
  1287   00212E  6ADA               	clrf	fsr2h,c
  1288   002130  50DF               	movf	indf2,w,c
  1289   002132  6E2B               	movwf	vfpfcnvrt@cp^0,c
  1290   002134  0060  F0AF  FFF6   	movff	vfpfcnvrt@cp,tblptrl
  1291   00213A                     	if	1	;There is more than 1 active tblptr byte
  1292   00213A  0E20               	movlw	high __smallconst
  1293   00213C  6EF7               	movwf	tblptrh,c
  1294   00213E                     	endif
  1295   00213E                     	if	0	;tblptru may be non-zero
  1296   00213E                     	endif
  1297   00213E                     	if	1	;Program memory is > 0xFFFF, there are 3 active tblptr bytes
  1298   00213E  0E00               	movlw	low (__smallconst shr (0+16))
  1299   002140  6EF8               	movwf	tblptru,c
  1300   002142                     	endif
  1301   002142  0008               	tblrd		*
  1302   002144  50F5               	movf	tablat,w,c
  1303   002146  0A58               	xorlw	88
  1304   002148  A4D8               	btfss	status,2,c
  1305   00214A  EFA9  F010         	goto	u971
  1306   00214E  EFAB  F010         	goto	u970
  1307   002152                     u971:
  1308   002152  EFD9  F010         	goto	l2073
  1309   002156                     u970:
  1310   002156                     
  1311                           ;C:\Program Files\Microchip\xc8\v2.46\pic\sources\c99\common\doprnt.c: 1452:     ) {;C:\
      +                          Program Files\Microchip\xc8\v2.46\pic\sources\c99\common\doprnt.c: 1495:    convarg.uint
      +                           = (vfpf_uint_t)(unsigned int)(*(unsigned int *)__va_arg(*(unsigned int **)ap, (unsigned
      +                           int)0));
  1312   002156  5025               	movf	vfpfcnvrt@ap^0,w,c
  1313   002158  6ED9               	movwf	fsr2l,c
  1314   00215A  6ADA               	clrf	fsr2h,c
  1315   00215C  0E02               	movlw	2
  1316   00215E  26DF               	addwf	indf2,f,c
  1317   002160  5CDF               	subwf	indf2,w,c
  1318   002162  6ED9               	movwf	fsr2l,c
  1319   002164  6ADA               	clrf	fsr2h,c
  1320   002166  006F FF78  F026    	movff	postinc2,vfpfcnvrt@convarg
  1321   00216C  006F FF78  F027    	movff	postinc2,vfpfcnvrt@convarg+1
  1322   002172                     
  1323                           ;C:\Program Files\Microchip\xc8\v2.46\pic\sources\c99\common\doprnt.c: 1497:    *fmt = c
      +                          p+1;
  1324   002172  5024               	movf	vfpfcnvrt@fmt^0,w,c
  1325   002174  6ED9               	movwf	fsr2l,c
  1326   002176  6ADA               	clrf	fsr2h,c
  1327   002178  282B               	incf	vfpfcnvrt@cp^0,w,c
  1328   00217A  6EDF               	movwf	indf2,c
  1329                           
  1330                           ;C:\Program Files\Microchip\xc8\v2.46\pic\sources\c99\common\doprnt.c: 1498:    switch (
      +                          *cp) {
  1331   00217C  EFCA  F010         	goto	l2071
  1332   002180                     l2065:
  1333                           
  1334                           ;C:\Program Files\Microchip\xc8\v2.46\pic\sources\c99\common\doprnt.c: 1586:      return
      +                           (void) xtoa(fp,convarg.uint);;	Return value of _vfpfcnvrt is never used
  1335   002180  C023  F017         	movff	vfpfcnvrt@fp,xtoa@fp
  1336   002184  C026  F018         	movff	vfpfcnvrt@convarg,xtoa@d
  1337   002188  C027  F019         	movff	vfpfcnvrt@convarg+1,xtoa@d+1
  1338   00218C  ECF4  F010         	call	_xtoa	;wreg free
  1339   002190  EFF3  F010         	goto	l1262
  1340   002194                     l2071:
  1341   002194  0060  F0AF  FFF6   	movff	vfpfcnvrt@cp,tblptrl
  1342   00219A                     	if	1	;There is more than 1 active tblptr byte
  1343   00219A  0E20               	movlw	high __smallconst
  1344   00219C  6EF7               	movwf	tblptrh,c
  1345   00219E                     	endif
  1346   00219E                     	if	0	;tblptru may be non-zero
  1347   00219E                     	endif
  1348   00219E                     	if	1	;Program memory is > 0xFFFF, there are 3 active tblptr bytes
  1349   00219E  0E00               	movlw	low (__smallconst shr (0+16))
  1350   0021A0  6EF8               	movwf	tblptru,c
  1351   0021A2                     	endif
  1352   0021A2  0008               	tblrd		*
  1353   0021A4  50F5               	movf	tablat,w,c
  1354                           
  1355                           ; Switch size 1, requested type "simple"
  1356                           ; Number of cases is 1, Range of values is 88 to 88
  1357                           ; switch strategies available:
  1358                           ; Name         Instructions Cycles
  1359                           ; simple_byte            4     3 (average)
  1360                           ;	Chosen strategy is simple_byte
  1361   0021A6  0A58               	xorlw	88	; case 88
  1362   0021A8  B4D8               	btfsc	status,2,c
  1363   0021AA  EFC0  F010         	goto	l2065
  1364   0021AE  EFD9  F010         	goto	l2073
  1365   0021B2                     l2073:
  1366                           
  1367                           ;C:\Program Files\Microchip\xc8\v2.46\pic\sources\c99\common\doprnt.c: 1806:         ++*
      +                          fmt;
  1368   0021B2  5024               	movf	vfpfcnvrt@fmt^0,w,c
  1369   0021B4  6ED9               	movwf	fsr2l,c
  1370   0021B6  6ADA               	clrf	fsr2h,c
  1371   0021B8  2ADF               	incf	indf2,f,c
  1372   0021BA  EFF3  F010         	goto	l1262
  1373   0021BE                     l2077:
  1374                           
  1375                           ;C:\Program Files\Microchip\xc8\v2.46\pic\sources\c99\common\doprnt.c: 1811:     fputc((
      +                          int)(*fmt)[0], fp);
  1376   0021BE  5024               	movf	vfpfcnvrt@fmt^0,w,c
  1377   0021C0  6ED9               	movwf	fsr2l,c
  1378   0021C2  6ADA               	clrf	fsr2h,c
  1379   0021C4  006F FF7F FFF6     	movff	indf2,tblptrl
  1380   0021CA                     	if	1	;There is more than 1 active tblptr byte
  1381   0021CA  0E20               	movlw	high __smallconst
  1382   0021CC  6EF7               	movwf	tblptrh,c
  1383   0021CE                     	endif
  1384   0021CE                     	if	0	;tblptru may be non-zero
  1385   0021CE                     	endif
  1386   0021CE                     	if	1	;Program memory is > 0xFFFF, there are 3 active tblptr bytes
  1387   0021CE  0E00               	movlw	low (__smallconst shr (0+16))
  1388   0021D0  6EF8               	movwf	tblptru,c
  1389   0021D2                     	endif
  1390   0021D2  0008               	tblrd		*
  1391   0021D4  50F5               	movf	tablat,w,c
  1392   0021D6  6E03               	movwf	fputc@c^0,c
  1393   0021D8  6A04               	clrf	(fputc@c+1)^0,c
  1394   0021DA  C023  F005         	movff	vfpfcnvrt@fp,fputc@fp
  1395   0021DE  ECA9  F012         	call	_fputc	;wreg free
  1396   0021E2  EFD9  F010         	goto	l2073
  1397   0021E6                     l1262:
  1398   0021E6  0012               	return		;funcret
  1399   0021E8                     __end_of_vfpfcnvrt:
  1400                           	callstack 0
  1401                           
  1402 ;; *************** function _xtoa *****************
  1403 ;; Defined at:
  1404 ;;		line 1055 in file "C:\Program Files\Microchip\xc8\v2.46\pic\sources\c99\common\doprnt.c"
  1405 ;; Parameters:    Size  Location     Type
  1406 ;;  fp              1   22[COMRAM] PTR struct _IO_FILE
  1407 ;;		 -> sprintf@f(12), 
  1408 ;;  d               2   23[COMRAM] unsigned int 
  1409 ;; Auto vars:     Size  Location     Type
  1410 ;;  i               2   32[COMRAM] int 
  1411 ;;  w               2   29[COMRAM] int 
  1412 ;;  c               1   31[COMRAM] unsigned char 
  1413 ;;  p               1   28[COMRAM] _Bool 
  1414 ;; Return value:  Size  Location     Type
  1415 ;;                  1    wreg      void 
  1416 ;; Registers used:
  1417 ;;		wreg, fsr1l, fsr1h, fsr2l, fsr2h, status,2, status,0, cstack
  1418 ;; Tracked objects:
  1419 ;;		On entry : 0/0
  1420 ;;		On exit  : 0/0
  1421 ;;		Unchanged: 0/0
  1422 ;; Data sizes:     COMRAM   BANK0   BANK1   BANK2   BANK3   BANK4   BANK5   BANK6   BANK7   BANK8   BANK9  BANK10  BANK1
      +1  BANK12  BANK13  BANK14  BANK15  BANK16  BANK17  BANK18  BANK19  BANK20  BANK21  BANK22  BANK23  BANK24  BANK25  BANK2
      +6  BANK27  BANK28  BANK29  BANK30  BANK31
  1423 ;;      Params:         3       0       0       0       0       0       0       0       0       0       0       0       
      +0       0       0       0       0       0       0       0       0       0       0       0       0       0       0       
      +0       0       0       0       0       0
  1424 ;;      Locals:         6       0       0       0       0       0       0       0       0       0       0       0       
      +0       0       0       0       0       0       0       0       0       0       0       0       0       0       0       
      +0       0       0       0       0       0
  1425 ;;      Temps:          3       0       0       0       0       0       0       0       0       0       0       0       
      +0       0       0       0       0       0       0       0       0       0       0       0       0       0       0       
      +0       0       0       0       0       0
  1426 ;;      Totals:        12       0       0       0       0       0       0       0       0       0       0       0       
      +0       0       0       0       0       0       0       0       0       0       0       0       0       0       0       
      +0       0       0       0       0       0
  1427 ;;Total ram usage:       12 bytes
  1428 ;; Hardware stack levels used: 1
  1429 ;; Hardware stack levels required when called: 5
  1430 ;; This function calls:
  1431 ;;		_pad
  1432 ;; This function is called by:
  1433 ;;		_vfpfcnvrt
  1434 ;; This function uses a non-reentrant model
  1435 ;;
  1436                           
  1437                           	psect	text5
  1438   0021E8                     __ptext5:
  1439                           	callstack 0
  1440   0021E8                     _xtoa:
  1441                           	callstack 22
  1442   0021E8                     
  1443                           ;C:\Program Files\Microchip\xc8\v2.46\pic\sources\c99\common\doprnt.c: 1055: static void
      +                           xtoa(FILE *fp, vfpf_uint_t d);C:\Program Files\Microchip\xc8\v2.46\pic\sources\c99\comm
      +                          on\doprnt.c: 1058: {;C:\Program Files\Microchip\xc8\v2.46\pic\sources\c99\common\doprnt.
      +                          c: 1059:  char c;;C:\Program Files\Microchip\xc8\v2.46\pic\sources\c99\common\doprnt.c: 
      +                          1063:     int i, w;;C:\Program Files\Microchip\xc8\v2.46\pic\sources\c99\common\doprnt.c
      +                          : 1067:  _Bool p = 1;
  1444   0021E8  0E01               	movlw	1
  1445   0021EA  6E1D               	movwf	xtoa@p^0,c
  1446   0021EC                     
  1447                           ;C:\Program Files\Microchip\xc8\v2.46\pic\sources\c99\common\doprnt.c: 1082:     w = wid
      +                          th;
  1448   0021EC  C054  F01E         	movff	_width,xtoa@w
  1449   0021F0  C055  F01F         	movff	_width+1,xtoa@w+1
  1450                           
  1451                           ;C:\Program Files\Microchip\xc8\v2.46\pic\sources\c99\common\doprnt.c: 1095:     i = siz
      +                          eof(dbuf) - 1;
  1452   0021F4  0E00               	movlw	0
  1453   0021F6  6E22               	movwf	(xtoa@i+1)^0,c
  1454   0021F8  0E1F               	movlw	31
  1455   0021FA  6E21               	movwf	xtoa@i^0,c
  1456   0021FC                     
  1457                           ;C:\Program Files\Microchip\xc8\v2.46\pic\sources\c99\common\doprnt.c: 1096:     dbuf[i]
      +                           = '\0';
  1458   0021FC  0E00               	movlw	0
  1459   0021FE  0100               	movlb	0	; () banked
  1460   002200  6FAF               	movwf	(_dbuf+31)& (0+255),b
  1461                           
  1462                           ;C:\Program Files\Microchip\xc8\v2.46\pic\sources\c99\common\doprnt.c: 1097:     while (
      +                          !(i < 2) && (d != 0
  1463   002202  EF33  F011         	goto	l1971
  1464   002206                     l1953:
  1465                           
  1466                           ;C:\Program Files\Microchip\xc8\v2.46\pic\sources\c99\common\doprnt.c: 1106:     )) {;C:
      +                          \Program Files\Microchip\xc8\v2.46\pic\sources\c99\common\doprnt.c: 1107:         --i;
  1467   002206  0621               	decf	xtoa@i^0,f,c
  1468   002208  A0D8               	btfss	status,0,c
  1469   00220A  0622               	decf	(xtoa@i+1)^0,f,c
  1470   00220C                     
  1471                           ;C:\Program Files\Microchip\xc8\v2.46\pic\sources\c99\common\doprnt.c: 1108:         c =
      +                           d & 0x0f;
  1472   00220C  5018               	movf	xtoa@d^0,w,c
  1473   00220E  0B0F               	andlw	15
  1474   002210  6E20               	movwf	xtoa@c^0,c
  1475   002212                     
  1476                           ;C:\Program Files\Microchip\xc8\v2.46\pic\sources\c99\common\doprnt.c: 1109:   if (c < 1
      +                          0) {
  1477   002212  0E0A               	movlw	10
  1478   002214  6020               	cpfslt	xtoa@c^0,c
  1479   002216  EF0F  F011         	goto	u821
  1480   00221A  EF11  F011         	goto	u820
  1481   00221E                     u821:
  1482   00221E  EF15  F011         	goto	l1961
  1483   002222                     u820:
  1484   002222                     
  1485                           ;C:\Program Files\Microchip\xc8\v2.46\pic\sources\c99\common\doprnt.c: 1110:    c += '0'
      +                          ;
  1486   002222  0E30               	movlw	48
  1487   002224  2620               	addwf	xtoa@c^0,f,c
  1488                           
  1489                           ;C:\Program Files\Microchip\xc8\v2.46\pic\sources\c99\common\doprnt.c: 1111:   }
  1490   002226  EF17  F011         	goto	l1963
  1491   00222A                     l1961:
  1492                           
  1493                           ;C:\Program Files\Microchip\xc8\v2.46\pic\sources\c99\common\doprnt.c: 1118:    c += 'A'
      +                           - 10;
  1494   00222A  0E37               	movlw	55
  1495   00222C  2620               	addwf	xtoa@c^0,f,c
  1496   00222E                     l1963:
  1497                           
  1498                           ;C:\Program Files\Microchip\xc8\v2.46\pic\sources\c99\common\doprnt.c: 1121:   dbuf[i] =
      +                           c;
  1499   00222E  5021               	movf	xtoa@i^0,w,c
  1500   002230  0F90               	addlw	low _dbuf
  1501   002232  6ED9               	movwf	fsr2l,c
  1502   002234  6ADA               	clrf	fsr2h,c
  1503   002236  0060  F083  FFDF   	movff	xtoa@c,indf2
  1504   00223C                     
  1505                           ;C:\Program Files\Microchip\xc8\v2.46\pic\sources\c99\common\doprnt.c: 1125:   p = 0;
  1506   00223C  0E00               	movlw	0
  1507   00223E  6E1D               	movwf	xtoa@p^0,c
  1508   002240                     
  1509                           ;C:\Program Files\Microchip\xc8\v2.46\pic\sources\c99\common\doprnt.c: 1127:         --w
      +                          ;
  1510   002240  061E               	decf	xtoa@w^0,f,c
  1511   002242  A0D8               	btfss	status,0,c
  1512   002244  061F               	decf	(xtoa@w+1)^0,f,c
  1513   002246                     
  1514                           ;C:\Program Files\Microchip\xc8\v2.46\pic\sources\c99\common\doprnt.c: 1128:         d =
      +                           d >> 4;
  1515   002246  C018  F01A         	movff	xtoa@d,??_xtoa
  1516   00224A  C019  F01B         	movff	xtoa@d+1,??_xtoa+1
  1517   00224E  0E04               	movlw	4
  1518   002250  6E1C               	movwf	(??_xtoa+2)^0,c
  1519   002252                     u835:
  1520   002252  90D8               	bcf	status,0,c
  1521   002254  321B               	rrcf	(??_xtoa+1)^0,f,c
  1522   002256  321A               	rrcf	??_xtoa^0,f,c
  1523   002258  2E1C               	decfsz	(??_xtoa+2)^0,f,c
  1524   00225A  EF29  F011         	goto	u835
  1525   00225E  C01A  F018         	movff	??_xtoa,xtoa@d
  1526   002262  C01B  F019         	movff	??_xtoa+1,xtoa@d+1
  1527   002266                     l1971:
  1528                           
  1529                           ;C:\Program Files\Microchip\xc8\v2.46\pic\sources\c99\common\doprnt.c: 1097:     while (
      +                          !(i < 2) && (d != 0
  1530   002266  BE22               	btfsc	(xtoa@i+1)^0,7,c
  1531   002268  EF3F  F011         	goto	u841
  1532   00226C  5022               	movf	(xtoa@i+1)^0,w,c
  1533   00226E  E109               	bnz	u840
  1534   002270  0E02               	movlw	2
  1535   002272  5C21               	subwf	xtoa@i^0,w,c
  1536   002274  A0D8               	btfss	status,0,c
  1537   002276  EF3F  F011         	goto	u841
  1538   00227A  EF41  F011         	goto	u840
  1539   00227E                     u841:
  1540   00227E  EF66  F011         	goto	l1981
  1541   002282                     u840:
  1542   002282  5018               	movf	xtoa@d^0,w,c
  1543   002284  1019               	iorwf	(xtoa@d+1)^0,w,c
  1544   002286  A4D8               	btfss	status,2,c
  1545   002288  EF48  F011         	goto	u851
  1546   00228C  EF4A  F011         	goto	u850
  1547   002290                     u851:
  1548   002290  EF03  F011         	goto	l1953
  1549   002294                     u850:
  1550   002294  501D               	movf	xtoa@p^0,w,c
  1551   002296  A4D8               	btfss	status,2,c
  1552   002298  EF50  F011         	goto	u861
  1553   00229C  EF52  F011         	goto	u860
  1554   0022A0                     u861:
  1555   0022A0  EF03  F011         	goto	l1953
  1556   0022A4                     u860:
  1557   0022A4  BE1F               	btfsc	(xtoa@w+1)^0,7,c
  1558   0022A6  EF5D  F011         	goto	u871
  1559   0022AA  501F               	movf	(xtoa@w+1)^0,w,c
  1560   0022AC  E108               	bnz	u870
  1561   0022AE  041E               	decf	xtoa@w^0,w,c
  1562   0022B0  A0D8               	btfss	status,0,c
  1563   0022B2  EF5D  F011         	goto	u871
  1564   0022B6  EF5F  F011         	goto	u870
  1565   0022BA                     u871:
  1566   0022BA  EF66  F011         	goto	l1981
  1567   0022BE                     u870:
  1568   0022BE  B25A               	btfsc	_flags^0,1,c
  1569   0022C0  EF64  F011         	goto	u881
  1570   0022C4  EF66  F011         	goto	u880
  1571   0022C8                     u881:
  1572   0022C8  EF03  F011         	goto	l1953
  1573   0022CC                     u880:
  1574   0022CC                     l1981:
  1575                           
  1576                           ;C:\Program Files\Microchip\xc8\v2.46\pic\sources\c99\common\doprnt.c: 1152:     return 
      +                          (void) pad(fp, &dbuf[i], w);
  1577   0022CC  C017  F010         	movff	xtoa@fp,pad@fp
  1578   0022D0  5021               	movf	xtoa@i^0,w,c
  1579   0022D2  0F90               	addlw	low _dbuf
  1580   0022D4  6E11               	movwf	pad@buf^0,c
  1581   0022D6  C01E  F012         	movff	xtoa@w,pad@p
  1582   0022DA  C01F  F013         	movff	xtoa@w+1,pad@p+1
  1583   0022DE  ECFF  F012         	call	_pad	;wreg free
  1584   0022E2  0012               	return		;funcret
  1585   0022E4                     __end_of_xtoa:
  1586                           	callstack 0
  1587                           
  1588 ;; *************** function _pad *****************
  1589 ;; Defined at:
  1590 ;;		line 193 in file "C:\Program Files\Microchip\xc8\v2.46\pic\sources\c99\common\doprnt.c"
  1591 ;; Parameters:    Size  Location     Type
  1592 ;;  fp              1   15[COMRAM] PTR struct _IO_FILE
  1593 ;;		 -> sprintf@f(12), 
  1594 ;;  buf             1   16[COMRAM] PTR unsigned char 
  1595 ;;		 -> dbuf(32), 
  1596 ;;  p               2   17[COMRAM] int 
  1597 ;; Auto vars:     Size  Location     Type
  1598 ;;  i               2   20[COMRAM] int 
  1599 ;; Return value:  Size  Location     Type
  1600 ;;                  1    wreg      void 
  1601 ;; Registers used:
  1602 ;;		wreg, fsr1l, fsr1h, fsr2l, fsr2h, status,2, status,0, cstack
  1603 ;; Tracked objects:
  1604 ;;		On entry : 0/0
  1605 ;;		On exit  : 0/0
  1606 ;;		Unchanged: 0/0
  1607 ;; Data sizes:     COMRAM   BANK0   BANK1   BANK2   BANK3   BANK4   BANK5   BANK6   BANK7   BANK8   BANK9  BANK10  BANK1
      +1  BANK12  BANK13  BANK14  BANK15  BANK16  BANK17  BANK18  BANK19  BANK20  BANK21  BANK22  BANK23  BANK24  BANK25  BANK2
      +6  BANK27  BANK28  BANK29  BANK30  BANK31
  1608 ;;      Params:         4       0       0       0       0       0       0       0       0       0       0       0       
      +0       0       0       0       0       0       0       0       0       0       0       0       0       0       0       
      +0       0       0       0       0       0
  1609 ;;      Locals:         2       0       0       0       0       0       0       0       0       0       0       0       
      +0       0       0       0       0       0       0       0       0       0       0       0       0       0       0       
      +0       0       0       0       0       0
  1610 ;;      Temps:          1       0       0       0       0       0       0       0       0       0       0       0       
      +0       0       0       0       0       0       0       0       0       0       0       0       0       0       0       
      +0       0       0       0       0       0
  1611 ;;      Totals:         7       0       0       0       0       0       0       0       0       0       0       0       
      +0       0       0       0       0       0       0       0       0       0       0       0       0       0       0       
      +0       0       0       0       0       0
  1612 ;;Total ram usage:        7 bytes
  1613 ;; Hardware stack levels used: 1
  1614 ;; Hardware stack levels required when called: 4
  1615 ;; This function calls:
  1616 ;;		_fputc
  1617 ;;		_fputs
  1618 ;; This function is called by:
  1619 ;;		_xtoa
  1620 ;; This function uses a non-reentrant model
  1621 ;;
  1622                           
  1623                           	psect	text6
  1624   0025FE                     __ptext6:
  1625                           	callstack 0
  1626   0025FE                     _pad:
  1627                           	callstack 22
  1628   0025FE                     
  1629                           ;C:\Program Files\Microchip\xc8\v2.46\pic\sources\c99\common\doprnt.c: 193: static void 
      +                          pad(FILE *fp, char *buf, int p);C:\Program Files\Microchip\xc8\v2.46\pic\sources\c99\com
      +                          mon\doprnt.c: 194: {;C:\Program Files\Microchip\xc8\v2.46\pic\sources\c99\common\doprnt.
      +                          c: 195:     int i;;C:\Program Files\Microchip\xc8\v2.46\pic\sources\c99\common\doprnt.c:
      +                           199:     if (flags & (1 << 0)) {
  1630   0025FE  A05A               	btfss	_flags^0,0,c
  1631   002600  EF04  F013         	goto	u761
  1632   002604  EF06  F013         	goto	u760
  1633   002608                     u761:
  1634   002608  EF0C  F013         	goto	l1919
  1635   00260C                     u760:
  1636   00260C                     
  1637                           ;C:\Program Files\Microchip\xc8\v2.46\pic\sources\c99\common\doprnt.c: 200:         fput
      +                          s((const char *)buf, fp);
  1638   00260C  C011  F00B         	movff	pad@buf,fputs@s
  1639   002610  C010  F00C         	movff	pad@fp,fputs@fp
  1640   002614  EC41  F014         	call	_fputs	;wreg free
  1641   002618                     l1919:
  1642                           
  1643                           ;C:\Program Files\Microchip\xc8\v2.46\pic\sources\c99\common\doprnt.c: 205:  if (p < 0) 
      +                          {
  1644   002618  BE13               	btfsc	(pad@p+1)^0,7,c
  1645   00261A  EF13  F013         	goto	u770
  1646   00261E  EF11  F013         	goto	u771
  1647   002622                     u771:
  1648   002622  EF17  F013         	goto	l1220
  1649   002626                     u770:
  1650   002626                     
  1651                           ;C:\Program Files\Microchip\xc8\v2.46\pic\sources\c99\common\doprnt.c: 206:   p = 0;
  1652   002626  0E00               	movlw	0
  1653   002628  6E13               	movwf	(pad@p+1)^0,c
  1654   00262A  0E00               	movlw	0
  1655   00262C  6E12               	movwf	pad@p^0,c
  1656   00262E                     l1220:
  1657                           
  1658                           ;C:\Program Files\Microchip\xc8\v2.46\pic\sources\c99\common\doprnt.c: 208:     i = 0;
  1659   00262E  0E00               	movlw	0
  1660   002630  6E16               	movwf	(pad@i+1)^0,c
  1661   002632  0E00               	movlw	0
  1662   002634  6E15               	movwf	pad@i^0,c
  1663                           
  1664                           ;C:\Program Files\Microchip\xc8\v2.46\pic\sources\c99\common\doprnt.c: 209:     while (i
      +                           < p) {
  1665   002636  EF27  F013         	goto	l1927
  1666   00263A                     l1923:
  1667                           
  1668                           ;C:\Program Files\Microchip\xc8\v2.46\pic\sources\c99\common\doprnt.c: 210:         fput
      +                          c(' ', fp);
  1669   00263A  0E00               	movlw	0
  1670   00263C  6E04               	movwf	(fputc@c+1)^0,c
  1671   00263E  0E20               	movlw	32
  1672   002640  6E03               	movwf	fputc@c^0,c
  1673   002642  C010  F005         	movff	pad@fp,fputc@fp
  1674   002646  ECA9  F012         	call	_fputc	;wreg free
  1675   00264A                     
  1676                           ;C:\Program Files\Microchip\xc8\v2.46\pic\sources\c99\common\doprnt.c: 211:         ++i;
  1677   00264A  4A15               	infsnz	pad@i^0,f,c
  1678   00264C  2A16               	incf	(pad@i+1)^0,f,c
  1679   00264E                     l1927:
  1680                           
  1681                           ;C:\Program Files\Microchip\xc8\v2.46\pic\sources\c99\common\doprnt.c: 209:     while (i
      +                           < p) {
  1682   00264E  5012               	movf	pad@p^0,w,c
  1683   002650  5C15               	subwf	pad@i^0,w,c
  1684   002652  5016               	movf	(pad@i+1)^0,w,c
  1685   002654  0A80               	xorlw	128
  1686   002656  6E14               	movwf	??_pad^0,c
  1687   002658  5013               	movf	(pad@p+1)^0,w,c
  1688   00265A  0A80               	xorlw	128
  1689   00265C  5814               	subwfb	??_pad^0,w,c
  1690   00265E  A0D8               	btfss	status,0,c
  1691   002660  EF34  F013         	goto	u781
  1692   002664  EF36  F013         	goto	u780
  1693   002668                     u781:
  1694   002668  EF1D  F013         	goto	l1923
  1695   00266C                     u780:
  1696   00266C                     
  1697                           ;C:\Program Files\Microchip\xc8\v2.46\pic\sources\c99\common\doprnt.c: 216:     if (!(fl
      +                          ags & (1 << 0))) {
  1698   00266C  B05A               	btfsc	_flags^0,0,c
  1699   00266E  EF3B  F013         	goto	u791
  1700   002672  EF3D  F013         	goto	u790
  1701   002676                     u791:
  1702   002676  EF43  F013         	goto	l1225
  1703   00267A                     u790:
  1704   00267A                     
  1705                           ;C:\Program Files\Microchip\xc8\v2.46\pic\sources\c99\common\doprnt.c: 218:         fput
      +                          s((const char *)buf, fp);
  1706   00267A  C011  F00B         	movff	pad@buf,fputs@s
  1707   00267E  C010  F00C         	movff	pad@fp,fputs@fp
  1708   002682  EC41  F014         	call	_fputs	;wreg free
  1709   002686                     l1225:
  1710   002686  0012               	return		;funcret
  1711   002688                     __end_of_pad:
  1712                           	callstack 0
  1713                           
  1714 ;; *************** function _fputs *****************
  1715 ;; Defined at:
  1716 ;;		line 8 in file "C:\Program Files\Microchip\xc8\v2.46\pic\sources\c99\common\nf_fputs.c"
  1717 ;; Parameters:    Size  Location     Type
  1718 ;;  s               1   10[COMRAM] PTR const unsigned char 
  1719 ;;		 -> dbuf(32), 
  1720 ;;  fp              1   11[COMRAM] PTR struct _IO_FILE
  1721 ;;		 -> sprintf@f(12), 
  1722 ;; Auto vars:     Size  Location     Type
  1723 ;;  i               2   13[COMRAM] int 
  1724 ;;  c               1   12[COMRAM] unsigned char 
  1725 ;; Return value:  Size  Location     Type
  1726 ;;                  2   10[COMRAM] int 
  1727 ;; Registers used:
  1728 ;;		wreg, fsr1l, fsr1h, fsr2l, fsr2h, status,2, status,0, cstack
  1729 ;; Tracked objects:
  1730 ;;		On entry : 0/0
  1731 ;;		On exit  : 0/0
  1732 ;;		Unchanged: 0/0
  1733 ;; Data sizes:     COMRAM   BANK0   BANK1   BANK2   BANK3   BANK4   BANK5   BANK6   BANK7   BANK8   BANK9  BANK10  BANK1
      +1  BANK12  BANK13  BANK14  BANK15  BANK16  BANK17  BANK18  BANK19  BANK20  BANK21  BANK22  BANK23  BANK24  BANK25  BANK2
      +6  BANK27  BANK28  BANK29  BANK30  BANK31
  1734 ;;      Params:         2       0       0       0       0       0       0       0       0       0       0       0       
      +0       0       0       0       0       0       0       0       0       0       0       0       0       0       0       
      +0       0       0       0       0       0
  1735 ;;      Locals:         3       0       0       0       0       0       0       0       0       0       0       0       
      +0       0       0       0       0       0       0       0       0       0       0       0       0       0       0       
      +0       0       0       0       0       0
  1736 ;;      Temps:          0       0       0       0       0       0       0       0       0       0       0       0       
      +0       0       0       0       0       0       0       0       0       0       0       0       0       0       0       
      +0       0       0       0       0       0
  1737 ;;      Totals:         5       0       0       0       0       0       0       0       0       0       0       0       
      +0       0       0       0       0       0       0       0       0       0       0       0       0       0       0       
      +0       0       0       0       0       0
  1738 ;;Total ram usage:        5 bytes
  1739 ;; Hardware stack levels used: 1
  1740 ;; Hardware stack levels required when called: 3
  1741 ;; This function calls:
  1742 ;;		_fputc
  1743 ;; This function is called by:
  1744 ;;		_pad
  1745 ;; This function uses a non-reentrant model
  1746 ;;
  1747                           
  1748                           	psect	text7
  1749   002882                     __ptext7:
  1750                           	callstack 0
  1751   002882                     _fputs:
  1752                           	callstack 22
  1753   002882  0E00               	movlw	0
  1754   002884  6E0F               	movwf	(fputs@i+1)^0,c
  1755   002886  0E00               	movlw	0
  1756   002888  6E0E               	movwf	fputs@i^0,c
  1757   00288A  EF50  F014         	goto	l1907
  1758   00288E                     l1903:
  1759   00288E  C00D  F003         	movff	fputs@c,fputc@c
  1760   002892  6A04               	clrf	(fputc@c+1)^0,c
  1761   002894  C00C  F005         	movff	fputs@fp,fputc@fp
  1762   002898  ECA9  F012         	call	_fputc	;wreg free
  1763   00289C  4A0E               	infsnz	fputs@i^0,f,c
  1764   00289E  2A0F               	incf	(fputs@i+1)^0,f,c
  1765   0028A0                     l1907:
  1766   0028A0  500B               	movf	fputs@s^0,w,c
  1767   0028A2  240E               	addwf	fputs@i^0,w,c
  1768   0028A4  6ED9               	movwf	fsr2l,c
  1769   0028A6  6ADA               	clrf	fsr2h,c
  1770   0028A8  50DF               	movf	indf2,w,c
  1771   0028AA  6E0D               	movwf	fputs@c^0,c
  1772   0028AC  500D               	movf	fputs@c^0,w,c
  1773   0028AE  A4D8               	btfss	status,2,c
  1774   0028B0  EF5C  F014         	goto	u751
  1775   0028B4  EF5E  F014         	goto	u750
  1776   0028B8                     u751:
  1777   0028B8  EF47  F014         	goto	l1903
  1778   0028BC                     u750:
  1779   0028BC  0012               	return		;funcret
  1780   0028BE                     __end_of_fputs:
  1781                           	callstack 0
  1782                           
  1783 ;; *************** function _fputc *****************
  1784 ;; Defined at:
  1785 ;;		line 8 in file "C:\Program Files\Microchip\xc8\v2.46\pic\sources\c99\common\nf_fputc.c"
  1786 ;; Parameters:    Size  Location     Type
  1787 ;;  c               2    2[COMRAM] int 
  1788 ;;  fp              1    4[COMRAM] PTR struct _IO_FILE
  1789 ;;		 -> sprintf@f(12), 
  1790 ;; Auto vars:     Size  Location     Type
  1791 ;;		None
  1792 ;; Return value:  Size  Location     Type
  1793 ;;                  2    2[COMRAM] int 
  1794 ;; Registers used:
  1795 ;;		wreg, fsr1l, fsr1h, fsr2l, fsr2h, status,2, status,0, cstack
  1796 ;; Tracked objects:
  1797 ;;		On entry : 0/0
  1798 ;;		On exit  : 0/0
  1799 ;;		Unchanged: 0/0
  1800 ;; Data sizes:     COMRAM   BANK0   BANK1   BANK2   BANK3   BANK4   BANK5   BANK6   BANK7   BANK8   BANK9  BANK10  BANK1
      +1  BANK12  BANK13  BANK14  BANK15  BANK16  BANK17  BANK18  BANK19  BANK20  BANK21  BANK22  BANK23  BANK24  BANK25  BANK2
      +6  BANK27  BANK28  BANK29  BANK30  BANK31
  1801 ;;      Params:         3       0       0       0       0       0       0       0       0       0       0       0       
      +0       0       0       0       0       0       0       0       0       0       0       0       0       0       0       
      +0       0       0       0       0       0
  1802 ;;      Locals:         0       0       0       0       0       0       0       0       0       0       0       0       
      +0       0       0       0       0       0       0       0       0       0       0       0       0       0       0       
      +0       0       0       0       0       0
  1803 ;;      Temps:          5       0       0       0       0       0       0       0       0       0       0       0       
      +0       0       0       0       0       0       0       0       0       0       0       0       0       0       0       
      +0       0       0       0       0       0
  1804 ;;      Totals:         8       0       0       0       0       0       0       0       0       0       0       0       
      +0       0       0       0       0       0       0       0       0       0       0       0       0       0       0       
      +0       0       0       0       0       0
  1805 ;;Total ram usage:        8 bytes
  1806 ;; Hardware stack levels used: 1
  1807 ;; Hardware stack levels required when called: 2
  1808 ;; This function calls:
  1809 ;;		_putch
  1810 ;; This function is called by:
  1811 ;;		_pad
  1812 ;;		_vfpfcnvrt
  1813 ;;		_fputs
  1814 ;; This function uses a non-reentrant model
  1815 ;;
  1816                           
  1817                           	psect	text8
  1818   002552                     __ptext8:
  1819                           	callstack 0
  1820   002552                     _fputc:
  1821                           	callstack 22
  1822   002552  5005               	movf	fputc@fp^0,w,c
  1823   002554  B4D8               	btfsc	status,2,c
  1824   002556  EFAF  F012         	goto	u711
  1825   00255A  EFB1  F012         	goto	u710
  1826   00255E                     u711:
  1827   00255E  EFB9  F012         	goto	l1891
  1828   002562                     u710:
  1829   002562  5005               	movf	fputc@fp^0,w,c
  1830   002564  A4D8               	btfss	status,2,c
  1831   002566  EFB7  F012         	goto	u721
  1832   00256A  EFB9  F012         	goto	u720
  1833   00256E                     u721:
  1834   00256E  EFBE  F012         	goto	l1893
  1835   002572                     u720:
  1836   002572                     l1891:
  1837   002572  5003               	movf	fputc@c^0,w,c
  1838   002574  EC13  F015         	call	_putch
  1839   002578  EFFE  F012         	goto	l1281
  1840   00257C                     l1893:
  1841   00257C  5005               	movf	fputc@fp^0,w,c
  1842   00257E  6ED9               	movwf	fsr2l,c
  1843   002580  6ADA               	clrf	fsr2h,c
  1844   002582  0E0A               	movlw	10
  1845   002584  26D9               	addwf	fsr2l,f,c
  1846   002586  50DE               	movf	postinc2,w,c
  1847   002588  10DE               	iorwf	postinc2,w,c
  1848   00258A  B4D8               	btfsc	status,2,c
  1849   00258C  EFCA  F012         	goto	u731
  1850   002590  EFCC  F012         	goto	u730
  1851   002594                     u731:
  1852   002594  EFE5  F012         	goto	l1897
  1853   002598                     u730:
  1854   002598  5005               	movf	fputc@fp^0,w,c
  1855   00259A  6ED9               	movwf	fsr2l,c
  1856   00259C  6ADA               	clrf	fsr2h,c
  1857   00259E  0E0A               	movlw	10
  1858   0025A0  26D9               	addwf	fsr2l,f,c
  1859   0025A2  5005               	movf	fputc@fp^0,w,c
  1860   0025A4  6EE1               	movwf	fsr1l,c
  1861   0025A6  6AE2               	clrf	fsr1h,c
  1862   0025A8  0E03               	movlw	3
  1863   0025AA  26E1               	addwf	fsr1l,f,c
  1864   0025AC  50DE               	movf	postinc2,w,c
  1865   0025AE  5CE6               	subwf	postinc1,w,c
  1866   0025B0  50E6               	movf	postinc1,w,c
  1867   0025B2  0A80               	xorlw	128
  1868   0025B4  6E0A               	movwf	(??_fputc+4)^0,c
  1869   0025B6  50DE               	movf	postinc2,w,c
  1870   0025B8  0A80               	xorlw	128
  1871   0025BA  580A               	subwfb	(??_fputc+4)^0,w,c
  1872   0025BC  B0D8               	btfsc	status,0,c
  1873   0025BE  EFE3  F012         	goto	u741
  1874   0025C2  EFE5  F012         	goto	u740
  1875   0025C6                     u741:
  1876   0025C6  EFFE  F012         	goto	l1281
  1877   0025CA                     u740:
  1878   0025CA                     l1897:
  1879   0025CA  5005               	movf	fputc@fp^0,w,c
  1880   0025CC  6ED9               	movwf	fsr2l,c
  1881   0025CE  6ADA               	clrf	fsr2h,c
  1882   0025D0  0E03               	movlw	3
  1883   0025D2  26D9               	addwf	fsr2l,f,c
  1884   0025D4  50DF               	movf	indf2,w,c
  1885   0025D6  6E06               	movwf	??_fputc^0,c
  1886   0025D8  5005               	movf	fputc@fp^0,w,c
  1887   0025DA  6ED9               	movwf	fsr2l,c
  1888   0025DC  6ADA               	clrf	fsr2h,c
  1889   0025DE  50DF               	movf	indf2,w,c
  1890   0025E0  2406               	addwf	??_fputc^0,w,c
  1891   0025E2  6ED9               	movwf	fsr2l,c
  1892   0025E4  6ADA               	clrf	fsr2h,c
  1893   0025E6  0060  F00F  FFDF   	movff	fputc@c,indf2
  1894   0025EC  5005               	movf	fputc@fp^0,w,c
  1895   0025EE  6ED9               	movwf	fsr2l,c
  1896   0025F0  6ADA               	clrf	fsr2h,c
  1897   0025F2  0E03               	movlw	3
  1898   0025F4  26D9               	addwf	fsr2l,f,c
  1899   0025F6  2ADE               	incf	postinc2,f,c
  1900   0025F8  0E00               	movlw	0
  1901   0025FA  22DD               	addwfc	postdec2,f,c
  1902   0025FC                     l1281:
  1903   0025FC  0012               	return		;funcret
  1904   0025FE                     __end_of_fputc:
  1905                           	callstack 0
  1906                           
  1907 ;; *************** function _putch *****************
  1908 ;; Defined at:
  1909 ;;		line 284 in file "mcc_generated_files/uart/src/uart2.c"
  1910 ;; Parameters:    Size  Location     Type
  1911 ;;  txData          1    wreg     unsigned char 
  1912 ;; Auto vars:     Size  Location     Type
  1913 ;;  txData          1    1[COMRAM] unsigned char 
  1914 ;; Return value:  Size  Location     Type
  1915 ;;                  1    wreg      void 
  1916 ;; Registers used:
  1917 ;;		wreg, status,2, cstack
  1918 ;; Tracked objects:
  1919 ;;		On entry : 0/0
  1920 ;;		On exit  : 0/0
  1921 ;;		Unchanged: 0/0
  1922 ;; Data sizes:     COMRAM   BANK0   BANK1   BANK2   BANK3   BANK4   BANK5   BANK6   BANK7   BANK8   BANK9  BANK10  BANK1
      +1  BANK12  BANK13  BANK14  BANK15  BANK16  BANK17  BANK18  BANK19  BANK20  BANK21  BANK22  BANK23  BANK24  BANK25  BANK2
      +6  BANK27  BANK28  BANK29  BANK30  BANK31
  1923 ;;      Params:         0       0       0       0       0       0       0       0       0       0       0       0       
      +0       0       0       0       0       0       0       0       0       0       0       0       0       0       0       
      +0       0       0       0       0       0
  1924 ;;      Locals:         1       0       0       0       0       0       0       0       0       0       0       0       
      +0       0       0       0       0       0       0       0       0       0       0       0       0       0       0       
      +0       0       0       0       0       0
  1925 ;;      Temps:          0       0       0       0       0       0       0       0       0       0       0       0       
      +0       0       0       0       0       0       0       0       0       0       0       0       0       0       0       
      +0       0       0       0       0       0
  1926 ;;      Totals:         1       0       0       0       0       0       0       0       0       0       0       0       
      +0       0       0       0       0       0       0       0       0       0       0       0       0       0       0       
      +0       0       0       0       0       0
  1927 ;;Total ram usage:        1 bytes
  1928 ;; Hardware stack levels used: 1
  1929 ;; Hardware stack levels required when called: 1
  1930 ;; This function calls:
  1931 ;;		_UART2_IsTxReady
  1932 ;;		_UART2_Write
  1933 ;; This function is called by:
  1934 ;;		_fputc
  1935 ;; This function uses a non-reentrant model
  1936 ;;
  1937                           
  1938                           	psect	text9
  1939   002A26                     __ptext9:
  1940                           	callstack 0
  1941   002A26                     _putch:
  1942                           	callstack 22
  1943                           
  1944                           ;incstack = 0
  1945                           ;putch@txData stored from wreg
  1946   002A26  6E02               	movwf	putch@txData^0,c
  1947   002A28                     l1881:
  1948   002A28  ECA7  F014         	call	_UART2_IsTxReady	;wreg free
  1949   002A2C  0900               	iorlw	0
  1950   002A2E  B4D8               	btfsc	status,2,c
  1951   002A30  EF1C  F015         	goto	u701
  1952   002A34  EF1E  F015         	goto	u700
  1953   002A38                     u701:
  1954   002A38  EF14  F015         	goto	l1881
  1955   002A3C                     u700:
  1956   002A3C                     
  1957                           ;mcc_generated_files/uart/src/uart2.c: 287:     return UART2_Write(txData);;	Return valu
      +                          e of _putch is never used
  1958   002A3C  5002               	movf	putch@txData^0,w,c
  1959   002A3E  EC75  F015         	call	_UART2_Write
  1960   002A42  0012               	return		;funcret
  1961   002A44                     __end_of_putch:
  1962                           	callstack 0
  1963                           
  1964 ;; *************** function _UART2_Write *****************
  1965 ;; Defined at:
  1966 ;;		line 272 in file "mcc_generated_files/uart/src/uart2.c"
  1967 ;; Parameters:    Size  Location     Type
  1968 ;;  txData          1    wreg     unsigned char 
  1969 ;; Auto vars:     Size  Location     Type
  1970 ;;  txData          1    0[COMRAM] unsigned char 
  1971 ;; Return value:  Size  Location     Type
  1972 ;;                  1    wreg      void 
  1973 ;; Registers used:
  1974 ;;		wreg
  1975 ;; Tracked objects:
  1976 ;;		On entry : 0/0
  1977 ;;		On exit  : 0/0
  1978 ;;		Unchanged: 0/0
  1979 ;; Data sizes:     COMRAM   BANK0   BANK1   BANK2   BANK3   BANK4   BANK5   BANK6   BANK7   BANK8   BANK9  BANK10  BANK1
      +1  BANK12  BANK13  BANK14  BANK15  BANK16  BANK17  BANK18  BANK19  BANK20  BANK21  BANK22  BANK23  BANK24  BANK25  BANK2
      +6  BANK27  BANK28  BANK29  BANK30  BANK31
  1980 ;;      Params:         0       0       0       0       0       0       0       0       0       0       0       0       
      +0       0       0       0       0       0       0       0       0       0       0       0       0       0       0       
      +0       0       0       0       0       0
  1981 ;;      Locals:         1       0       0       0       0       0       0       0       0       0       0       0       
      +0       0       0       0       0       0       0       0       0       0       0       0       0       0       0       
      +0       0       0       0       0       0
  1982 ;;      Temps:          0       0       0       0       0       0       0       0       0       0       0       0       
      +0       0       0       0       0       0       0       0       0       0       0       0       0       0       0       
      +0       0       0       0       0       0
  1983 ;;      Totals:         1       0       0       0       0       0       0       0       0       0       0       0       
      +0       0       0       0       0       0       0       0       0       0       0       0       0       0       0       
      +0       0       0       0       0       0
  1984 ;;Total ram usage:        1 bytes
  1985 ;; Hardware stack levels used: 1
  1986 ;; This function calls:
  1987 ;;		Nothing
  1988 ;; This function is called by:
  1989 ;;		_putch
  1990 ;; This function uses a non-reentrant model
  1991 ;;
  1992                           
  1993                           	psect	text10
  1994   002AEA                     __ptext10:
  1995                           	callstack 0
  1996   002AEA                     _UART2_Write:
  1997                           	callstack 22
  1998                           
  1999                           ;incstack = 0
  2000                           ;UART2_Write@txData stored from wreg
  2001   002AEA  6E01               	movwf	UART2_Write@txData^0,c
  2002   002AEC                     
  2003                           ;mcc_generated_files/uart/src/uart2.c: 272: void UART2_Write(uint8_t txData);mcc_generat
      +                          ed_files/uart/src/uart2.c: 273: {;mcc_generated_files/uart/src/uart2.c: 274:     U2TXB =
      +                           txData;
  2004   002AEC  0060  F007  FDD2   	movff	UART2_Write@txData,15826	;volatile
  2005   002AF2  0012               	return		;funcret
  2006   002AF4                     __end_of_UART2_Write:
  2007                           	callstack 0
  2008                           
  2009 ;; *************** function _UART2_IsTxReady *****************
  2010 ;; Defined at:
  2011 ;;		line 232 in file "mcc_generated_files/uart/src/uart2.c"
  2012 ;; Parameters:    Size  Location     Type
  2013 ;;		None
  2014 ;; Auto vars:     Size  Location     Type
  2015 ;;		None
  2016 ;; Return value:  Size  Location     Type
  2017 ;;                  1    wreg      _Bool 
  2018 ;; Registers used:
  2019 ;;		wreg, status,2
  2020 ;; Tracked objects:
  2021 ;;		On entry : 0/0
  2022 ;;		On exit  : 0/0
  2023 ;;		Unchanged: 0/0
  2024 ;; Data sizes:     COMRAM   BANK0   BANK1   BANK2   BANK3   BANK4   BANK5   BANK6   BANK7   BANK8   BANK9  BANK10  BANK1
      +1  BANK12  BANK13  BANK14  BANK15  BANK16  BANK17  BANK18  BANK19  BANK20  BANK21  BANK22  BANK23  BANK24  BANK25  BANK2
      +6  BANK27  BANK28  BANK29  BANK30  BANK31
  2025 ;;      Params:         0       0       0       0       0       0       0       0       0       0       0       0       
      +0       0       0       0       0       0       0       0       0       0       0       0       0       0       0       
      +0       0       0       0       0       0
  2026 ;;      Locals:         1       0       0       0       0       0       0       0       0       0       0       0       
      +0       0       0       0       0       0       0       0       0       0       0       0       0       0       0       
      +0       0       0       0       0       0
  2027 ;;      Temps:          0       0       0       0       0       0       0       0       0       0       0       0       
      +0       0       0       0       0       0       0       0       0       0       0       0       0       0       0       
      +0       0       0       0       0       0
  2028 ;;      Totals:         1       0       0       0       0       0       0       0       0       0       0       0       
      +0       0       0       0       0       0       0       0       0       0       0       0       0       0       0       
      +0       0       0       0       0       0
  2029 ;;Total ram usage:        1 bytes
  2030 ;; Hardware stack levels used: 1
  2031 ;; This function calls:
  2032 ;;		Nothing
  2033 ;; This function is called by:
  2034 ;;		_putch
  2035 ;; This function uses a non-reentrant model
  2036 ;;
  2037                           
  2038                           	psect	text11
  2039   00294E                     __ptext11:
  2040                           	callstack 0
  2041   00294E                     _UART2_IsTxReady:
  2042                           	callstack 22
  2043   00294E                     
  2044                           ;mcc_generated_files/uart/src/uart2.c: 234:     return (_Bool)(U2FIFObits.TXBE && U2CON0
      +                          bits.TXEN);
  2045   00294E  0E00               	movlw	0
  2046   002950  6E01               	movwf	_UART2_IsTxReady$832^0,c
  2047   002952  013D               	movlb	61	; () banked
  2048   002954  ABDF               	btfss	223,5,b	;volatile
  2049   002956  EFAF  F014         	goto	u681
  2050   00295A  EFB1  F014         	goto	u680
  2051   00295E                     u681:
  2052   00295E  EFBA  F014         	goto	l352
  2053   002962                     u680:
  2054   002962                     
  2055                           ; BSR set to: 61
  2056   002962  ABDA               	btfss	218,5,b	;volatile
  2057   002964  EFB6  F014         	goto	u691
  2058   002968  EFB8  F014         	goto	u690
  2059   00296C                     u691:
  2060   00296C  EFBA  F014         	goto	l352
  2061   002970                     u690:
  2062   002970                     
  2063                           ; BSR set to: 61
  2064   002970  0E01               	movlw	1
  2065   002972  6E01               	movwf	_UART2_IsTxReady$832^0,c
  2066   002974                     l352:
  2067                           
  2068                           ; BSR set to: 61
  2069   002974  5001               	movf	_UART2_IsTxReady$832^0,w,c
  2070   002976                     
  2071                           ; BSR set to: 61
  2072   002976  0012               	return		;funcret
  2073   002978                     __end_of_UART2_IsTxReady:
  2074                           	callstack 0
  2075                           
  2076 ;; *************** function _read_prec_or_width *****************
  2077 ;; Defined at:
  2078 ;;		line 1158 in file "C:\Program Files\Microchip\xc8\v2.46\pic\sources\c99\common\doprnt.c"
  2079 ;; Parameters:    Size  Location     Type
  2080 ;;  fmt             1    6[COMRAM] PTR PTR const unsigned c
  2081 ;;		 -> vfprintf@cfmt(1), 
  2082 ;;  ap              1    7[COMRAM] PTR PTR void [1]
  2083 ;;		 -> sprintf@ap(1), 
  2084 ;; Auto vars:     Size  Location     Type
  2085 ;;  c               1    8[COMRAM] unsigned char 
  2086 ;;  n               2    9[COMRAM] int 
  2087 ;; Return value:  Size  Location     Type
  2088 ;;                  2    6[COMRAM] int 
  2089 ;; Registers used:
  2090 ;;		wreg, fsr2l, fsr2h, status,2, status,0, tblptrl, tblptrh, tblptru, prodl, prodh, cstack
  2091 ;; Tracked objects:
  2092 ;;		On entry : 0/0
  2093 ;;		On exit  : 0/0
  2094 ;;		Unchanged: 0/0
  2095 ;; Data sizes:     COMRAM   BANK0   BANK1   BANK2   BANK3   BANK4   BANK5   BANK6   BANK7   BANK8   BANK9  BANK10  BANK1
      +1  BANK12  BANK13  BANK14  BANK15  BANK16  BANK17  BANK18  BANK19  BANK20  BANK21  BANK22  BANK23  BANK24  BANK25  BANK2
      +6  BANK27  BANK28  BANK29  BANK30  BANK31
  2096 ;;      Params:         2       0       0       0       0       0       0       0       0       0       0       0       
      +0       0       0       0       0       0       0       0       0       0       0       0       0       0       0       
      +0       0       0       0       0       0
  2097 ;;      Locals:         3       0       0       0       0       0       0       0       0       0       0       0       
      +0       0       0       0       0       0       0       0       0       0       0       0       0       0       0       
      +0       0       0       0       0       0
  2098 ;;      Temps:          0       0       0       0       0       0       0       0       0       0       0       0       
      +0       0       0       0       0       0       0       0       0       0       0       0       0       0       0       
      +0       0       0       0       0       0
  2099 ;;      Totals:         5       0       0       0       0       0       0       0       0       0       0       0       
      +0       0       0       0       0       0       0       0       0       0       0       0       0       0       0       
      +0       0       0       0       0       0
  2100 ;;Total ram usage:        5 bytes
  2101 ;; Hardware stack levels used: 1
  2102 ;; Hardware stack levels required when called: 1
  2103 ;; This function calls:
  2104 ;;		___wmul
  2105 ;; This function is called by:
  2106 ;;		_vfpfcnvrt
  2107 ;; This function uses a non-reentrant model
  2108 ;;
  2109                           
  2110                           	psect	text12
  2111   00249C                     __ptext12:
  2112                           	callstack 0
  2113   00249C                     _read_prec_or_width:
  2114                           	callstack 26
  2115   00249C                     
  2116                           ;C:\Program Files\Microchip\xc8\v2.46\pic\sources\c99\common\doprnt.c: 1159:     int n =
      +                           0;
  2117   00249C  0E00               	movlw	0
  2118   00249E  6E0B               	movwf	(read_prec_or_width@n+1)^0,c
  2119   0024A0  0E00               	movlw	0
  2120   0024A2  6E0A               	movwf	read_prec_or_width@n^0,c
  2121   0024A4                     
  2122                           ;C:\Program Files\Microchip\xc8\v2.46\pic\sources\c99\common\doprnt.c: 1160:     if ((*f
      +                          mt)[0] == '*') {
  2123   0024A4  5007               	movf	read_prec_or_width@fmt^0,w,c
  2124   0024A6  6ED9               	movwf	fsr2l,c
  2125   0024A8  6ADA               	clrf	fsr2h,c
  2126   0024AA  006F FF7F FFF6     	movff	indf2,tblptrl
  2127   0024B0                     	if	1	;There is more than 1 active tblptr byte
  2128   0024B0  0E20               	movlw	high __smallconst
  2129   0024B2  6EF7               	movwf	tblptrh,c
  2130   0024B4                     	endif
  2131   0024B4                     	if	0	;tblptru may be non-zero
  2132   0024B4                     	endif
  2133   0024B4                     	if	1	;Program memory is > 0xFFFF, there are 3 active tblptr bytes
  2134   0024B4  0E00               	movlw	low (__smallconst shr (0+16))
  2135   0024B6  6EF8               	movwf	tblptru,c
  2136   0024B8                     	endif
  2137   0024B8  0008               	tblrd		*
  2138   0024BA  50F5               	movf	tablat,w,c
  2139   0024BC  0A2A               	xorlw	42
  2140   0024BE  A4D8               	btfss	status,2,c
  2141   0024C0  EF64  F012         	goto	u891
  2142   0024C4  EF66  F012         	goto	u890
  2143   0024C8                     u891:
  2144   0024C8  EF8E  F012         	goto	l1997
  2145   0024CC                     u890:
  2146   0024CC                     
  2147                           ;C:\Program Files\Microchip\xc8\v2.46\pic\sources\c99\common\doprnt.c: 1161:         ++*
      +                          fmt;
  2148   0024CC  5007               	movf	read_prec_or_width@fmt^0,w,c
  2149   0024CE  6ED9               	movwf	fsr2l,c
  2150   0024D0  6ADA               	clrf	fsr2h,c
  2151   0024D2  2ADF               	incf	indf2,f,c
  2152   0024D4                     
  2153                           ;C:\Program Files\Microchip\xc8\v2.46\pic\sources\c99\common\doprnt.c: 1162:         n =
      +                           (*(int *)__va_arg(*(int **)*ap, (int)0));
  2154   0024D4  5008               	movf	read_prec_or_width@ap^0,w,c
  2155   0024D6  6ED9               	movwf	fsr2l,c
  2156   0024D8  6ADA               	clrf	fsr2h,c
  2157   0024DA  0E02               	movlw	2
  2158   0024DC  26DF               	addwf	indf2,f,c
  2159   0024DE  5CDF               	subwf	indf2,w,c
  2160   0024E0  6ED9               	movwf	fsr2l,c
  2161   0024E2  6ADA               	clrf	fsr2h,c
  2162   0024E4  006F FF78  F00A    	movff	postinc2,read_prec_or_width@n
  2163   0024EA  006F FF78  F00B    	movff	postinc2,read_prec_or_width@n+1
  2164                           
  2165                           ;C:\Program Files\Microchip\xc8\v2.46\pic\sources\c99\common\doprnt.c: 1163:     } else 
      +                          {
  2166   0024F0  EFA4  F012         	goto	l1241
  2167   0024F4                     l1993:
  2168                           
  2169                           ;C:\Program Files\Microchip\xc8\v2.46\pic\sources\c99\common\doprnt.c: 1166:            
      +                           n = n * 10 + c;
  2170   0024F4  C00A  F001         	movff	read_prec_or_width@n,___wmul@multiplier
  2171   0024F8  C00B  F002         	movff	read_prec_or_width@n+1,___wmul@multiplier+1
  2172   0024FC  0E00               	movlw	0
  2173   0024FE  6E04               	movwf	(___wmul@multiplicand+1)^0,c
  2174   002500  0E0A               	movlw	10
  2175   002502  6E03               	movwf	___wmul@multiplicand^0,c
  2176   002504  ECBC  F014         	call	___wmul	;wreg free
  2177   002508  5009               	movf	read_prec_or_width@c^0,w,c
  2178   00250A  2401               	addwf	?___wmul^0,w,c
  2179   00250C  6E0A               	movwf	read_prec_or_width@n^0,c
  2180   00250E  0E00               	movlw	0
  2181   002510  2002               	addwfc	(?___wmul+1)^0,w,c
  2182   002512  6E0B               	movwf	(read_prec_or_width@n+1)^0,c
  2183   002514                     
  2184                           ;C:\Program Files\Microchip\xc8\v2.46\pic\sources\c99\common\doprnt.c: 1167:            
      +                           ++*fmt;
  2185   002514  5007               	movf	read_prec_or_width@fmt^0,w,c
  2186   002516  6ED9               	movwf	fsr2l,c
  2187   002518  6ADA               	clrf	fsr2h,c
  2188   00251A  2ADF               	incf	indf2,f,c
  2189   00251C                     l1997:
  2190                           
  2191                           ;C:\Program Files\Microchip\xc8\v2.46\pic\sources\c99\common\doprnt.c: 1165:         whi
      +                          le ((c = ((unsigned)(*fmt)[0]) - '0') < 10) {
  2192   00251C  5007               	movf	read_prec_or_width@fmt^0,w,c
  2193   00251E  6ED9               	movwf	fsr2l,c
  2194   002520  6ADA               	clrf	fsr2h,c
  2195   002522  006F FF7F FFF6     	movff	indf2,tblptrl
  2196   002528                     	if	1	;There is more than 1 active tblptr byte
  2197   002528  0E20               	movlw	high __smallconst
  2198   00252A  6EF7               	movwf	tblptrh,c
  2199   00252C                     	endif
  2200   00252C                     	if	0	;tblptru may be non-zero
  2201   00252C                     	endif
  2202   00252C                     	if	1	;Program memory is > 0xFFFF, there are 3 active tblptr bytes
  2203   00252C  0E00               	movlw	low (__smallconst shr (0+16))
  2204   00252E  6EF8               	movwf	tblptru,c
  2205   002530                     	endif
  2206   002530  0008               	tblrd		*
  2207   002532  50F5               	movf	tablat,w,c
  2208   002534  0FD0               	addlw	208
  2209   002536  6E09               	movwf	read_prec_or_width@c^0,c
  2210   002538  0E09               	movlw	9
  2211   00253A  6409               	cpfsgt	read_prec_or_width@c^0,c
  2212   00253C  EFA2  F012         	goto	u901
  2213   002540  EFA4  F012         	goto	u900
  2214   002544                     u901:
  2215   002544  EF7A  F012         	goto	l1993
  2216   002548                     u900:
  2217   002548                     l1241:
  2218                           
  2219                           ;C:\Program Files\Microchip\xc8\v2.46\pic\sources\c99\common\doprnt.c: 1170:     return 
      +                          n;
  2220   002548  C00A  F007         	movff	read_prec_or_width@n,?_read_prec_or_width
  2221   00254C  C00B  F008         	movff	read_prec_or_width@n+1,?_read_prec_or_width+1
  2222   002550  0012               	return		;funcret
  2223   002552                     __end_of_read_prec_or_width:
  2224                           	callstack 0
  2225                           
  2226 ;; *************** function ___wmul *****************
  2227 ;; Defined at:
  2228 ;;		line 15 in file "C:\Program Files\Microchip\xc8\v2.46\pic\sources\c99\common\Umul16.c"
  2229 ;; Parameters:    Size  Location     Type
  2230 ;;  multiplier      2    0[COMRAM] unsigned int 
  2231 ;;  multiplicand    2    2[COMRAM] unsigned int 
  2232 ;; Auto vars:     Size  Location     Type
  2233 ;;  product         2    4[COMRAM] unsigned int 
  2234 ;; Return value:  Size  Location     Type
  2235 ;;                  2    0[COMRAM] unsigned int 
  2236 ;; Registers used:
  2237 ;;		wreg, status,2, status,0, prodl, prodh
  2238 ;; Tracked objects:
  2239 ;;		On entry : 0/0
  2240 ;;		On exit  : 0/0
  2241 ;;		Unchanged: 0/0
  2242 ;; Data sizes:     COMRAM   BANK0   BANK1   BANK2   BANK3   BANK4   BANK5   BANK6   BANK7   BANK8   BANK9  BANK10  BANK1
      +1  BANK12  BANK13  BANK14  BANK15  BANK16  BANK17  BANK18  BANK19  BANK20  BANK21  BANK22  BANK23  BANK24  BANK25  BANK2
      +6  BANK27  BANK28  BANK29  BANK30  BANK31
  2243 ;;      Params:         4       0       0       0       0       0       0       0       0       0       0       0       
      +0       0       0       0       0       0       0       0       0       0       0       0       0       0       0       
      +0       0       0       0       0       0
  2244 ;;      Locals:         2       0       0       0       0       0       0       0       0       0       0       0       
      +0       0       0       0       0       0       0       0       0       0       0       0       0       0       0       
      +0       0       0       0       0       0
  2245 ;;      Temps:          0       0       0       0       0       0       0       0       0       0       0       0       
      +0       0       0       0       0       0       0       0       0       0       0       0       0       0       0       
      +0       0       0       0       0       0
  2246 ;;      Totals:         6       0       0       0       0       0       0       0       0       0       0       0       
      +0       0       0       0       0       0       0       0       0       0       0       0       0       0       0       
      +0       0       0       0       0       0
  2247 ;;Total ram usage:        6 bytes
  2248 ;; Hardware stack levels used: 1
  2249 ;; This function calls:
  2250 ;;		Nothing
  2251 ;; This function is called by:
  2252 ;;		_read_prec_or_width
  2253 ;; This function uses a non-reentrant model
  2254 ;;
  2255                           
  2256                           	psect	text13
  2257   002978                     __ptext13:
  2258                           	callstack 0
  2259   002978                     ___wmul:
  2260                           	callstack 26
  2261   002978  5001               	movf	___wmul@multiplier^0,w,c
  2262   00297A  0203               	mulwf	___wmul@multiplicand^0,c
  2263   00297C  006F FFCC  F005    	movff	prodl,___wmul@product
  2264   002982  006F FFD0  F006    	movff	prodh,___wmul@product+1
  2265   002988  5001               	movf	___wmul@multiplier^0,w,c
  2266   00298A  0204               	mulwf	(___wmul@multiplicand+1)^0,c
  2267   00298C  50F3               	movf	243,w,c
  2268   00298E  2606               	addwf	(___wmul@product+1)^0,f,c
  2269   002990  5002               	movf	(___wmul@multiplier+1)^0,w,c
  2270   002992  0203               	mulwf	___wmul@multiplicand^0,c
  2271   002994  50F3               	movf	243,w,c
  2272   002996  2606               	addwf	(___wmul@product+1)^0,f,c
  2273   002998  C005  F001         	movff	___wmul@product,?___wmul
  2274   00299C  C006  F002         	movff	___wmul@product+1,?___wmul+1
  2275   0029A0  0012               	return		;funcret
  2276   0029A2                     __end_of___wmul:
  2277                           	callstack 0
  2278                           
  2279 ;; *************** function _UART2_ReceiveEnable *****************
  2280 ;; Defined at:
  2281 ;;		line 174 in file "mcc_generated_files/uart/src/uart2.c"
  2282 ;; Parameters:    Size  Location     Type
  2283 ;;		None
  2284 ;; Auto vars:     Size  Location     Type
  2285 ;;		None
  2286 ;; Return value:  Size  Location     Type
  2287 ;;                  1    wreg      void 
  2288 ;; Registers used:
  2289 ;;		None
  2290 ;; Tracked objects:
  2291 ;;		On entry : 0/0
  2292 ;;		On exit  : 0/0
  2293 ;;		Unchanged: 0/0
  2294 ;; Data sizes:     COMRAM   BANK0   BANK1   BANK2   BANK3   BANK4   BANK5   BANK6   BANK7   BANK8   BANK9  BANK10  BANK1
      +1  BANK12  BANK13  BANK14  BANK15  BANK16  BANK17  BANK18  BANK19  BANK20  BANK21  BANK22  BANK23  BANK24  BANK25  BANK2
      +6  BANK27  BANK28  BANK29  BANK30  BANK31
  2295 ;;      Params:         0       0       0       0       0       0       0       0       0       0       0       0       
      +0       0       0       0       0       0       0       0       0       0       0       0       0       0       0       
      +0       0       0       0       0       0
  2296 ;;      Locals:         0       0       0       0       0       0       0       0       0       0       0       0       
      +0       0       0       0       0       0       0       0       0       0       0       0       0       0       0       
      +0       0       0       0       0       0
  2297 ;;      Temps:          0       0       0       0       0       0       0       0       0       0       0       0       
      +0       0       0       0       0       0       0       0       0       0       0       0       0       0       0       
      +0       0       0       0       0       0
  2298 ;;      Totals:         0       0       0       0       0       0       0       0       0       0       0       0       
      +0       0       0       0       0       0       0       0       0       0       0       0       0       0       0       
      +0       0       0       0       0       0
  2299 ;;Total ram usage:        0 bytes
  2300 ;; Hardware stack levels used: 1
  2301 ;; This function calls:
  2302 ;;		Nothing
  2303 ;; This function is called by:
  2304 ;;		_main
  2305 ;; This function uses a non-reentrant model
  2306 ;;
  2307                           
  2308                           	psect	text14
  2309   002AFC                     __ptext14:
  2310                           	callstack 0
  2311   002AFC                     _UART2_ReceiveEnable:
  2312                           	callstack 30
  2313   002AFC                     
  2314                           ;mcc_generated_files/uart/src/uart2.c: 176:     U2CON0bits.RXEN = 1;
  2315   002AFC  013D               	movlb	61	; () banked
  2316   002AFE  89DA               	bsf	218,4,b	;volatile
  2317   002B00                     
  2318                           ; BSR set to: 61
  2319   002B00  0012               	return		;funcret
  2320   002B02                     __end_of_UART2_ReceiveEnable:
  2321                           	callstack 0
  2322                           
  2323 ;; *************** function _UART2_Read *****************
  2324 ;; Defined at:
  2325 ;;		line 266 in file "mcc_generated_files/uart/src/uart2.c"
  2326 ;; Parameters:    Size  Location     Type
  2327 ;;		None
  2328 ;; Auto vars:     Size  Location     Type
  2329 ;;		None
  2330 ;; Return value:  Size  Location     Type
  2331 ;;                  1    wreg      unsigned char 
  2332 ;; Registers used:
  2333 ;;		wreg, status,2
  2334 ;; Tracked objects:
  2335 ;;		On entry : 0/0
  2336 ;;		On exit  : 0/0
  2337 ;;		Unchanged: 0/0
  2338 ;; Data sizes:     COMRAM   BANK0   BANK1   BANK2   BANK3   BANK4   BANK5   BANK6   BANK7   BANK8   BANK9  BANK10  BANK1
      +1  BANK12  BANK13  BANK14  BANK15  BANK16  BANK17  BANK18  BANK19  BANK20  BANK21  BANK22  BANK23  BANK24  BANK25  BANK2
      +6  BANK27  BANK28  BANK29  BANK30  BANK31
  2339 ;;      Params:         0       0       0       0       0       0       0       0       0       0       0       0       
      +0       0       0       0       0       0       0       0       0       0       0       0       0       0       0       
      +0       0       0       0       0       0
  2340 ;;      Locals:         0       0       0       0       0       0       0       0       0       0       0       0       
      +0       0       0       0       0       0       0       0       0       0       0       0       0       0       0       
      +0       0       0       0       0       0
  2341 ;;      Temps:          0       0       0       0       0       0       0       0       0       0       0       0       
      +0       0       0       0       0       0       0       0       0       0       0       0       0       0       0       
      +0       0       0       0       0       0
  2342 ;;      Totals:         0       0       0       0       0       0       0       0       0       0       0       0       
      +0       0       0       0       0       0       0       0       0       0       0       0       0       0       0       
      +0       0       0       0       0       0
  2343 ;;Total ram usage:        0 bytes
  2344 ;; Hardware stack levels used: 1
  2345 ;; This function calls:
  2346 ;;		Nothing
  2347 ;; This function is called by:
  2348 ;;		_main
  2349 ;;		_getch
  2350 ;; This function uses a non-reentrant model
  2351 ;;
  2352                           
  2353                           	psect	text15
  2354   002B02                     __ptext15:
  2355                           	callstack 0
  2356   002B02                     _UART2_Read:
  2357                           	callstack 30
  2358   002B02                     
  2359                           ;mcc_generated_files/uart/src/uart2.c: 268:     return U2RXB;
  2360   002B02  013D               	movlb	61	; () banked
  2361   002B04  51D0               	movf	208,w,b	;volatile
  2362   002B06                     
  2363                           ; BSR set to: 61
  2364   002B06  0012               	return		;funcret
  2365   002B08                     __end_of_UART2_Read:
  2366                           	callstack 0
  2367                           
  2368 ;; *************** function _UART2_IsRxReady *****************
  2369 ;; Defined at:
  2370 ;;		line 227 in file "mcc_generated_files/uart/src/uart2.c"
  2371 ;; Parameters:    Size  Location     Type
  2372 ;;		None
  2373 ;; Auto vars:     Size  Location     Type
  2374 ;;		None
  2375 ;; Return value:  Size  Location     Type
  2376 ;;                  1    wreg      _Bool 
  2377 ;; Registers used:
  2378 ;;		wreg
  2379 ;; Tracked objects:
  2380 ;;		On entry : 0/0
  2381 ;;		On exit  : 0/0
  2382 ;;		Unchanged: 0/0
  2383 ;; Data sizes:     COMRAM   BANK0   BANK1   BANK2   BANK3   BANK4   BANK5   BANK6   BANK7   BANK8   BANK9  BANK10  BANK1
      +1  BANK12  BANK13  BANK14  BANK15  BANK16  BANK17  BANK18  BANK19  BANK20  BANK21  BANK22  BANK23  BANK24  BANK25  BANK2
      +6  BANK27  BANK28  BANK29  BANK30  BANK31
  2384 ;;      Params:         0       0       0       0       0       0       0       0       0       0       0       0       
      +0       0       0       0       0       0       0       0       0       0       0       0       0       0       0       
      +0       0       0       0       0       0
  2385 ;;      Locals:         0       0       0       0       0       0       0       0       0       0       0       0       
      +0       0       0       0       0       0       0       0       0       0       0       0       0       0       0       
      +0       0       0       0       0       0
  2386 ;;      Temps:          0       0       0       0       0       0       0       0       0       0       0       0       
      +0       0       0       0       0       0       0       0       0       0       0       0       0       0       0       
      +0       0       0       0       0       0
  2387 ;;      Totals:         0       0       0       0       0       0       0       0       0       0       0       0       
      +0       0       0       0       0       0       0       0       0       0       0       0       0       0       0       
      +0       0       0       0       0       0
  2388 ;;Total ram usage:        0 bytes
  2389 ;; Hardware stack levels used: 1
  2390 ;; This function calls:
  2391 ;;		Nothing
  2392 ;; This function is called by:
  2393 ;;		_main
  2394 ;;		_getch
  2395 ;; This function uses a non-reentrant model
  2396 ;;
  2397                           
  2398                           	psect	text16
  2399   002A98                     __ptext16:
  2400                           	callstack 0
  2401   002A98                     _UART2_IsRxReady:
  2402                           	callstack 30
  2403   002A98                     
  2404                           ;mcc_generated_files/uart/src/uart2.c: 229:     return (_Bool)(!U2FIFObits.RXBE);
  2405   002A98  013D               	movlb	61	; () banked
  2406   002A9A  A3DF               	btfss	223,1,b	;volatile
  2407   002A9C  EF52  F015         	goto	u1021
  2408   002AA0  EF55  F015         	goto	u1020
  2409   002AA4                     u1021:
  2410   002AA4  0E01               	movlw	1
  2411   002AA6  EF56  F015         	goto	u1030
  2412   002AAA                     u1020:
  2413   002AAA  0E00               	movlw	0
  2414   002AAC                     u1030:
  2415   002AAC                     
  2416                           ; BSR set to: 61
  2417   002AAC  0012               	return		;funcret
  2418   002AAE                     __end_of_UART2_IsRxReady:
  2419                           	callstack 0
  2420                           
  2421 ;; *************** function _SYSTEM_Initialize *****************
  2422 ;; Defined at:
  2423 ;;		line 40 in file "mcc_generated_files/system/src/system.c"
  2424 ;; Parameters:    Size  Location     Type
  2425 ;;		None
  2426 ;; Auto vars:     Size  Location     Type
  2427 ;;		None
  2428 ;; Return value:  Size  Location     Type
  2429 ;;                  1    wreg      void 
  2430 ;; Registers used:
  2431 ;;		wreg, status,2, status,0, cstack
  2432 ;; Tracked objects:
  2433 ;;		On entry : 0/0
  2434 ;;		On exit  : 0/0
  2435 ;;		Unchanged: 0/0
  2436 ;; Data sizes:     COMRAM   BANK0   BANK1   BANK2   BANK3   BANK4   BANK5   BANK6   BANK7   BANK8   BANK9  BANK10  BANK1
      +1  BANK12  BANK13  BANK14  BANK15  BANK16  BANK17  BANK18  BANK19  BANK20  BANK21  BANK22  BANK23  BANK24  BANK25  BANK2
      +6  BANK27  BANK28  BANK29  BANK30  BANK31
  2437 ;;      Params:         0       0       0       0       0       0       0       0       0       0       0       0       
      +0       0       0       0       0       0       0       0       0       0       0       0       0       0       0       
      +0       0       0       0       0       0
  2438 ;;      Locals:         0       0       0       0       0       0       0       0       0       0       0       0       
      +0       0       0       0       0       0       0       0       0       0       0       0       0       0       0       
      +0       0       0       0       0       0
  2439 ;;      Temps:          0       0       0       0       0       0       0       0       0       0       0       0       
      +0       0       0       0       0       0       0       0       0       0       0       0       0       0       0       
      +0       0       0       0       0       0
  2440 ;;      Totals:         0       0       0       0       0       0       0       0       0       0       0       0       
      +0       0       0       0       0       0       0       0       0       0       0       0       0       0       0       
      +0       0       0       0       0       0
  2441 ;;Total ram usage:        0 bytes
  2442 ;; Hardware stack levels used: 1
  2443 ;; Hardware stack levels required when called: 2
  2444 ;; This function calls:
  2445 ;;		_CLOCK_Initialize
  2446 ;;		_INTERRUPT_Initialize
  2447 ;;		_PIN_MANAGER_Initialize
  2448 ;;		_UART2_Initialize
  2449 ;; This function is called by:
  2450 ;;		_main
  2451 ;; This function uses a non-reentrant model
  2452 ;;
  2453                           
  2454                           	psect	text17
  2455   002AAE                     __ptext17:
  2456                           	callstack 0
  2457   002AAE                     _SYSTEM_Initialize:
  2458                           	callstack 28
  2459   002AAE                     
  2460                           ;mcc_generated_files/system/src/system.c: 42:     CLOCK_Initialize();
  2461   002AAE  EC40  F015         	call	_CLOCK_Initialize	;wreg free
  2462                           
  2463                           ;mcc_generated_files/system/src/system.c: 43:     PIN_MANAGER_Initialize();
  2464   002AB2  ECEC  F011         	call	_PIN_MANAGER_Initialize	;wreg free
  2465   002AB6                     
  2466                           ;mcc_generated_files/system/src/system.c: 44:     UART2_Initialize();
  2467   002AB6  EC44  F013         	call	_UART2_Initialize	;wreg free
  2468   002ABA                     
  2469                           ;mcc_generated_files/system/src/system.c: 45:     INTERRUPT_Initialize();
  2470   002ABA  ECDC  F013         	call	_INTERRUPT_Initialize	;wreg free
  2471   002ABE  0012               	return		;funcret
  2472   002AC0                     __end_of_SYSTEM_Initialize:
  2473                           	callstack 0
  2474                           
  2475 ;; *************** function _UART2_Initialize *****************
  2476 ;; Defined at:
  2477 ;;		line 95 in file "mcc_generated_files/uart/src/uart2.c"
  2478 ;; Parameters:    Size  Location     Type
  2479 ;;		None
  2480 ;; Auto vars:     Size  Location     Type
  2481 ;;		None
  2482 ;; Return value:  Size  Location     Type
  2483 ;;                  1    wreg      void 
  2484 ;; Registers used:
  2485 ;;		wreg, status,2, status,0, cstack
  2486 ;; Tracked objects:
  2487 ;;		On entry : 0/0
  2488 ;;		On exit  : 0/0
  2489 ;;		Unchanged: 0/0
  2490 ;; Data sizes:     COMRAM   BANK0   BANK1   BANK2   BANK3   BANK4   BANK5   BANK6   BANK7   BANK8   BANK9  BANK10  BANK1
      +1  BANK12  BANK13  BANK14  BANK15  BANK16  BANK17  BANK18  BANK19  BANK20  BANK21  BANK22  BANK23  BANK24  BANK25  BANK2
      +6  BANK27  BANK28  BANK29  BANK30  BANK31
  2491 ;;      Params:         0       0       0       0       0       0       0       0       0       0       0       0       
      +0       0       0       0       0       0       0       0       0       0       0       0       0       0       0       
      +0       0       0       0       0       0
  2492 ;;      Locals:         0       0       0       0       0       0       0       0       0       0       0       0       
      +0       0       0       0       0       0       0       0       0       0       0       0       0       0       0       
      +0       0       0       0       0       0
  2493 ;;      Temps:          0       0       0       0       0       0       0       0       0       0       0       0       
      +0       0       0       0       0       0       0       0       0       0       0       0       0       0       0       
      +0       0       0       0       0       0
  2494 ;;      Totals:         0       0       0       0       0       0       0       0       0       0       0       0       
      +0       0       0       0       0       0       0       0       0       0       0       0       0       0       0       
      +0       0       0       0       0       0
  2495 ;;Total ram usage:        0 bytes
  2496 ;; Hardware stack levels used: 1
  2497 ;; Hardware stack levels required when called: 1
  2498 ;; This function calls:
  2499 ;;		_UART2_FramingErrorCallbackRegister
  2500 ;;		_UART2_OverrunErrorCallbackRegister
  2501 ;;		_UART2_ParityErrorCallbackRegister
  2502 ;; This function is called by:
  2503 ;;		_SYSTEM_Initialize
  2504 ;;		_main
  2505 ;; This function uses a non-reentrant model
  2506 ;;
  2507                           
  2508                           	psect	text18
  2509   002688                     __ptext18:
  2510                           	callstack 0
  2511   002688                     _UART2_Initialize:
  2512                           	callstack 29
  2513   002688                     
  2514                           ;mcc_generated_files/uart/src/uart2.c: 101:     U2RXB = 0x0;
  2515   002688  0E00               	movlw	0
  2516   00268A  013D               	movlb	61	; () banked
  2517   00268C  6FD0               	movwf	208,b	;volatile
  2518                           
  2519                           ;mcc_generated_files/uart/src/uart2.c: 103:     U2TXB = 0x0;
  2520   00268E  0E00               	movlw	0
  2521   002690  6FD2               	movwf	210,b	;volatile
  2522                           
  2523                           ;mcc_generated_files/uart/src/uart2.c: 105:     U2P1L = 0x0;
  2524   002692  0E00               	movlw	0
  2525   002694  6FD4               	movwf	212,b	;volatile
  2526                           
  2527                           ;mcc_generated_files/uart/src/uart2.c: 107:     U2P2L = 0x0;
  2528   002696  0E00               	movlw	0
  2529   002698  6FD6               	movwf	214,b	;volatile
  2530                           
  2531                           ;mcc_generated_files/uart/src/uart2.c: 109:     U2P3L = 0x0;
  2532   00269A  0E00               	movlw	0
  2533   00269C  6FD8               	movwf	216,b	;volatile
  2534                           
  2535                           ;mcc_generated_files/uart/src/uart2.c: 111:     U2CON0 = 0xB0;
  2536   00269E  0EB0               	movlw	176
  2537   0026A0  6FDA               	movwf	218,b	;volatile
  2538                           
  2539                           ;mcc_generated_files/uart/src/uart2.c: 113:     U2CON1 = 0x80;
  2540   0026A2  0E80               	movlw	128
  2541   0026A4  6FDB               	movwf	219,b	;volatile
  2542                           
  2543                           ;mcc_generated_files/uart/src/uart2.c: 115:     U2CON2 = 0x0;
  2544   0026A6  0E00               	movlw	0
  2545   0026A8  6FDC               	movwf	220,b	;volatile
  2546                           
  2547                           ;mcc_generated_files/uart/src/uart2.c: 117:     U2BRGL = 0x10;
  2548   0026AA  0E10               	movlw	16
  2549   0026AC  6FDD               	movwf	221,b	;volatile
  2550                           
  2551                           ;mcc_generated_files/uart/src/uart2.c: 119:     U2BRGH = 0x0;
  2552   0026AE  0E00               	movlw	0
  2553   0026B0  6FDE               	movwf	222,b	;volatile
  2554                           
  2555                           ;mcc_generated_files/uart/src/uart2.c: 121:     U2FIFO = 0x2E;
  2556   0026B2  0E2E               	movlw	46
  2557   0026B4  6FDF               	movwf	223,b	;volatile
  2558                           
  2559                           ;mcc_generated_files/uart/src/uart2.c: 123:     U2UIR = 0x0;
  2560   0026B6  0E00               	movlw	0
  2561   0026B8  6FE0               	movwf	224,b	;volatile
  2562                           
  2563                           ;mcc_generated_files/uart/src/uart2.c: 125:     U2ERRIR = 0x80;
  2564   0026BA  0E80               	movlw	128
  2565   0026BC  6FE1               	movwf	225,b	;volatile
  2566                           
  2567                           ;mcc_generated_files/uart/src/uart2.c: 127:     U2ERRIE = 0x0;
  2568   0026BE  0E00               	movlw	0
  2569   0026C0  6FE2               	movwf	226,b	;volatile
  2570   0026C2                     
  2571                           ; BSR set to: 61
  2572                           ;mcc_generated_files/uart/src/uart2.c: 129:     UART2_FramingErrorCallbackRegister(UART2
      +                          _DefaultFramingErrorCallback);
  2573   0026C2  0E00               	movlw	0
  2574   0026C4  6E01               	movwf	UART2_FramingErrorCallbackRegister@callbackHandler^0,c
  2575   0026C6  0E00               	movlw	0
  2576   0026C8  6E02               	movwf	(UART2_FramingErrorCallbackRegister@callbackHandler+1)^0,c
  2577   0026CA  0E00               	movlw	0
  2578   0026CC  6E03               	movwf	(UART2_FramingErrorCallbackRegister@callbackHandler+2)^0,c
  2579   0026CE  ECF3  F014         	call	_UART2_FramingErrorCallbackRegister	;wreg free
  2580   0026D2                     
  2581                           ;mcc_generated_files/uart/src/uart2.c: 130:     UART2_OverrunErrorCallbackRegister(UART2
      +                          _DefaultOverrunErrorCallback);
  2582   0026D2  0E00               	movlw	0
  2583   0026D4  6E01               	movwf	UART2_OverrunErrorCallbackRegister@callbackHandler^0,c
  2584   0026D6  0E00               	movlw	0
  2585   0026D8  6E02               	movwf	(UART2_OverrunErrorCallbackRegister@callbackHandler+1)^0,c
  2586   0026DA  0E00               	movlw	0
  2587   0026DC  6E03               	movwf	(UART2_OverrunErrorCallbackRegister@callbackHandler+2)^0,c
  2588   0026DE  ECE2  F014         	call	_UART2_OverrunErrorCallbackRegister	;wreg free
  2589   0026E2                     
  2590                           ;mcc_generated_files/uart/src/uart2.c: 131:     UART2_ParityErrorCallbackRegister(UART2_
      +                          DefaultParityErrorCallback);
  2591   0026E2  0E00               	movlw	0
  2592   0026E4  6E01               	movwf	UART2_ParityErrorCallbackRegister@callbackHandler^0,c
  2593   0026E6  0E00               	movlw	0
  2594   0026E8  6E02               	movwf	(UART2_ParityErrorCallbackRegister@callbackHandler+1)^0,c
  2595   0026EA  0E00               	movlw	0
  2596   0026EC  6E03               	movwf	(UART2_ParityErrorCallbackRegister@callbackHandler+2)^0,c
  2597   0026EE  ECD1  F014         	call	_UART2_ParityErrorCallbackRegister	;wreg free
  2598   0026F2                     
  2599                           ;mcc_generated_files/uart/src/uart2.c: 133:     uart2RxLastError.status = 0;
  2600   0026F2  0E00               	movlw	0
  2601   0026F4  6E59               	movwf	(_uart2RxLastError+1)^0,c	;volatile
  2602   0026F6  0E00               	movlw	0
  2603   0026F8  6E58               	movwf	_uart2RxLastError^0,c	;volatile
  2604   0026FA  0012               	return		;funcret
  2605   0026FC                     __end_of_UART2_Initialize:
  2606                           	callstack 0
  2607                           
  2608 ;; *************** function _UART2_ParityErrorCallbackRegister *****************
  2609 ;; Defined at:
  2610 ;;		line 325 in file "mcc_generated_files/uart/src/uart2.c"
  2611 ;; Parameters:    Size  Location     Type
  2612 ;;  callbackHand    3    0[COMRAM] PTR FTN()void 
  2613 ;;		 -> UART2_DefaultParityErrorCallback(1), 
  2614 ;; Auto vars:     Size  Location     Type
  2615 ;;		None
  2616 ;; Return value:  Size  Location     Type
  2617 ;;                  1    wreg      void 
  2618 ;; Registers used:
  2619 ;;		wreg, status,2, status,0
  2620 ;; Tracked objects:
  2621 ;;		On entry : 0/0
  2622 ;;		On exit  : 0/0
  2623 ;;		Unchanged: 0/0
  2624 ;; Data sizes:     COMRAM   BANK0   BANK1   BANK2   BANK3   BANK4   BANK5   BANK6   BANK7   BANK8   BANK9  BANK10  BANK1
      +1  BANK12  BANK13  BANK14  BANK15  BANK16  BANK17  BANK18  BANK19  BANK20  BANK21  BANK22  BANK23  BANK24  BANK25  BANK2
      +6  BANK27  BANK28  BANK29  BANK30  BANK31
  2625 ;;      Params:         3       0       0       0       0       0       0       0       0       0       0       0       
      +0       0       0       0       0       0       0       0       0       0       0       0       0       0       0       
      +0       0       0       0       0       0
  2626 ;;      Locals:         0       0       0       0       0       0       0       0       0       0       0       0       
      +0       0       0       0       0       0       0       0       0       0       0       0       0       0       0       
      +0       0       0       0       0       0
  2627 ;;      Temps:          0       0       0       0       0       0       0       0       0       0       0       0       
      +0       0       0       0       0       0       0       0       0       0       0       0       0       0       0       
      +0       0       0       0       0       0
  2628 ;;      Totals:         3       0       0       0       0       0       0       0       0       0       0       0       
      +0       0       0       0       0       0       0       0       0       0       0       0       0       0       0       
      +0       0       0       0       0       0
  2629 ;;Total ram usage:        3 bytes
  2630 ;; Hardware stack levels used: 1
  2631 ;; This function calls:
  2632 ;;		Nothing
  2633 ;; This function is called by:
  2634 ;;		_UART2_Initialize
  2635 ;; This function uses a non-reentrant model
  2636 ;;
  2637                           
  2638                           	psect	text19
  2639   0029A2                     __ptext19:
  2640                           	callstack 0
  2641   0029A2                     _UART2_ParityErrorCallbackRegister:
  2642                           	callstack 29
  2643   0029A2                     
  2644                           ;mcc_generated_files/uart/src/uart2.c: 325: void UART2_ParityErrorCallbackRegister(void 
      +                          (* callbackHandler)(void));mcc_generated_files/uart/src/uart2.c: 326: {;mcc_generated_fi
      +                          les/uart/src/uart2.c: 327:     if(((void*)0) != callbackHandler)
  2645   0029A2  5001               	movf	UART2_ParityErrorCallbackRegister@callbackHandler^0,w,c
  2646   0029A4  1002               	iorwf	(UART2_ParityErrorCallbackRegister@callbackHandler+1)^0,w,c
  2647   0029A6  1003               	iorwf	(UART2_ParityErrorCallbackRegister@callbackHandler+2)^0,w,c
  2648   0029A8  B4D8               	btfsc	status,2,c
  2649   0029AA  EFD9  F014         	goto	u931
  2650   0029AE  EFDB  F014         	goto	u930
  2651   0029B2                     u931:
  2652   0029B2  EFE1  F014         	goto	l402
  2653   0029B6                     u930:
  2654   0029B6                     
  2655                           ;mcc_generated_files/uart/src/uart2.c: 328:     {;mcc_generated_files/uart/src/uart2.c: 
      +                          329:         UART2_ParityErrorHandler = callbackHandler;
  2656   0029B6  C001  F042         	movff	UART2_ParityErrorCallbackRegister@callbackHandler,_UART2_ParityErrorHandler
  2657   0029BA  C002  F043         	movff	UART2_ParityErrorCallbackRegister@callbackHandler+1,_UART2_ParityErrorHandler+1
  2658   0029BE  C003  F044         	movff	UART2_ParityErrorCallbackRegister@callbackHandler+2,_UART2_ParityErrorHandler+2
  2659   0029C2                     l402:
  2660   0029C2  0012               	return		;funcret
  2661   0029C4                     __end_of_UART2_ParityErrorCallbackRegister:
  2662                           	callstack 0
  2663                           
  2664 ;; *************** function _UART2_OverrunErrorCallbackRegister *****************
  2665 ;; Defined at:
  2666 ;;		line 317 in file "mcc_generated_files/uart/src/uart2.c"
  2667 ;; Parameters:    Size  Location     Type
  2668 ;;  callbackHand    3    0[COMRAM] PTR FTN()void 
  2669 ;;		 -> UART2_DefaultOverrunErrorCallback(1), 
  2670 ;; Auto vars:     Size  Location     Type
  2671 ;;		None
  2672 ;; Return value:  Size  Location     Type
  2673 ;;                  1    wreg      void 
  2674 ;; Registers used:
  2675 ;;		wreg, status,2, status,0
  2676 ;; Tracked objects:
  2677 ;;		On entry : 0/0
  2678 ;;		On exit  : 0/0
  2679 ;;		Unchanged: 0/0
  2680 ;; Data sizes:     COMRAM   BANK0   BANK1   BANK2   BANK3   BANK4   BANK5   BANK6   BANK7   BANK8   BANK9  BANK10  BANK1
      +1  BANK12  BANK13  BANK14  BANK15  BANK16  BANK17  BANK18  BANK19  BANK20  BANK21  BANK22  BANK23  BANK24  BANK25  BANK2
      +6  BANK27  BANK28  BANK29  BANK30  BANK31
  2681 ;;      Params:         3       0       0       0       0       0       0       0       0       0       0       0       
      +0       0       0       0       0       0       0       0       0       0       0       0       0       0       0       
      +0       0       0       0       0       0
  2682 ;;      Locals:         0       0       0       0       0       0       0       0       0       0       0       0       
      +0       0       0       0       0       0       0       0       0       0       0       0       0       0       0       
      +0       0       0       0       0       0
  2683 ;;      Temps:          0       0       0       0       0       0       0       0       0       0       0       0       
      +0       0       0       0       0       0       0       0       0       0       0       0       0       0       0       
      +0       0       0       0       0       0
  2684 ;;      Totals:         3       0       0       0       0       0       0       0       0       0       0       0       
      +0       0       0       0       0       0       0       0       0       0       0       0       0       0       0       
      +0       0       0       0       0       0
  2685 ;;Total ram usage:        3 bytes
  2686 ;; Hardware stack levels used: 1
  2687 ;; This function calls:
  2688 ;;		Nothing
  2689 ;; This function is called by:
  2690 ;;		_UART2_Initialize
  2691 ;; This function uses a non-reentrant model
  2692 ;;
  2693                           
  2694                           	psect	text20
  2695   0029C4                     __ptext20:
  2696                           	callstack 0
  2697   0029C4                     _UART2_OverrunErrorCallbackRegister:
  2698                           	callstack 29
  2699   0029C4                     
  2700                           ;mcc_generated_files/uart/src/uart2.c: 317: void UART2_OverrunErrorCallbackRegister(void
      +                           (* callbackHandler)(void));mcc_generated_files/uart/src/uart2.c: 318: {;mcc_generated_f
      +                          iles/uart/src/uart2.c: 319:     if(((void*)0) != callbackHandler)
  2701   0029C4  5001               	movf	UART2_OverrunErrorCallbackRegister@callbackHandler^0,w,c
  2702   0029C6  1002               	iorwf	(UART2_OverrunErrorCallbackRegister@callbackHandler+1)^0,w,c
  2703   0029C8  1003               	iorwf	(UART2_OverrunErrorCallbackRegister@callbackHandler+2)^0,w,c
  2704   0029CA  B4D8               	btfsc	status,2,c
  2705   0029CC  EFEA  F014         	goto	u921
  2706   0029D0  EFEC  F014         	goto	u920
  2707   0029D4                     u921:
  2708   0029D4  EFF2  F014         	goto	l398
  2709   0029D8                     u920:
  2710   0029D8                     
  2711                           ;mcc_generated_files/uart/src/uart2.c: 320:     {;mcc_generated_files/uart/src/uart2.c: 
      +                          321:         UART2_OverrunErrorHandler = callbackHandler;
  2712   0029D8  C001  F045         	movff	UART2_OverrunErrorCallbackRegister@callbackHandler,_UART2_OverrunErrorHandler
  2713   0029DC  C002  F046         	movff	UART2_OverrunErrorCallbackRegister@callbackHandler+1,_UART2_OverrunErrorHandler+1
  2714   0029E0  C003  F047         	movff	UART2_OverrunErrorCallbackRegister@callbackHandler+2,_UART2_OverrunErrorHandler+2
  2715   0029E4                     l398:
  2716   0029E4  0012               	return		;funcret
  2717   0029E6                     __end_of_UART2_OverrunErrorCallbackRegister:
  2718                           	callstack 0
  2719                           
  2720 ;; *************** function _UART2_FramingErrorCallbackRegister *****************
  2721 ;; Defined at:
  2722 ;;		line 309 in file "mcc_generated_files/uart/src/uart2.c"
  2723 ;; Parameters:    Size  Location     Type
  2724 ;;  callbackHand    3    0[COMRAM] PTR FTN()void 
  2725 ;;		 -> UART2_DefaultFramingErrorCallback(1), 
  2726 ;; Auto vars:     Size  Location     Type
  2727 ;;		None
  2728 ;; Return value:  Size  Location     Type
  2729 ;;                  1    wreg      void 
  2730 ;; Registers used:
  2731 ;;		wreg, status,2, status,0
  2732 ;; Tracked objects:
  2733 ;;		On entry : 0/0
  2734 ;;		On exit  : 0/0
  2735 ;;		Unchanged: 0/0
  2736 ;; Data sizes:     COMRAM   BANK0   BANK1   BANK2   BANK3   BANK4   BANK5   BANK6   BANK7   BANK8   BANK9  BANK10  BANK1
      +1  BANK12  BANK13  BANK14  BANK15  BANK16  BANK17  BANK18  BANK19  BANK20  BANK21  BANK22  BANK23  BANK24  BANK25  BANK2
      +6  BANK27  BANK28  BANK29  BANK30  BANK31
  2737 ;;      Params:         3       0       0       0       0       0       0       0       0       0       0       0       
      +0       0       0       0       0       0       0       0       0       0       0       0       0       0       0       
      +0       0       0       0       0       0
  2738 ;;      Locals:         0       0       0       0       0       0       0       0       0       0       0       0       
      +0       0       0       0       0       0       0       0       0       0       0       0       0       0       0       
      +0       0       0       0       0       0
  2739 ;;      Temps:          0       0       0       0       0       0       0       0       0       0       0       0       
      +0       0       0       0       0       0       0       0       0       0       0       0       0       0       0       
      +0       0       0       0       0       0
  2740 ;;      Totals:         3       0       0       0       0       0       0       0       0       0       0       0       
      +0       0       0       0       0       0       0       0       0       0       0       0       0       0       0       
      +0       0       0       0       0       0
  2741 ;;Total ram usage:        3 bytes
  2742 ;; Hardware stack levels used: 1
  2743 ;; This function calls:
  2744 ;;		Nothing
  2745 ;; This function is called by:
  2746 ;;		_UART2_Initialize
  2747 ;; This function uses a non-reentrant model
  2748 ;;
  2749                           
  2750                           	psect	text21
  2751   0029E6                     __ptext21:
  2752                           	callstack 0
  2753   0029E6                     _UART2_FramingErrorCallbackRegister:
  2754                           	callstack 29
  2755   0029E6                     
  2756                           ;mcc_generated_files/uart/src/uart2.c: 309: void UART2_FramingErrorCallbackRegister(void
      +                           (* callbackHandler)(void));mcc_generated_files/uart/src/uart2.c: 310: {;mcc_generated_f
      +                          iles/uart/src/uart2.c: 311:     if(((void*)0) != callbackHandler)
  2757   0029E6  5001               	movf	UART2_FramingErrorCallbackRegister@callbackHandler^0,w,c
  2758   0029E8  1002               	iorwf	(UART2_FramingErrorCallbackRegister@callbackHandler+1)^0,w,c
  2759   0029EA  1003               	iorwf	(UART2_FramingErrorCallbackRegister@callbackHandler+2)^0,w,c
  2760   0029EC  B4D8               	btfsc	status,2,c
  2761   0029EE  EFFB  F014         	goto	u911
  2762   0029F2  EFFD  F014         	goto	u910
  2763   0029F6                     u911:
  2764   0029F6  EF03  F015         	goto	l394
  2765   0029FA                     u910:
  2766   0029FA                     
  2767                           ;mcc_generated_files/uart/src/uart2.c: 312:     {;mcc_generated_files/uart/src/uart2.c: 
      +                          313:         UART2_FramingErrorHandler = callbackHandler;
  2768   0029FA  C001  F048         	movff	UART2_FramingErrorCallbackRegister@callbackHandler,_UART2_FramingErrorHandler
  2769   0029FE  C002  F049         	movff	UART2_FramingErrorCallbackRegister@callbackHandler+1,_UART2_FramingErrorHandler+1
  2770   002A02  C003  F04A         	movff	UART2_FramingErrorCallbackRegister@callbackHandler+2,_UART2_FramingErrorHandler+2
  2771   002A06                     l394:
  2772   002A06  0012               	return		;funcret
  2773   002A08                     __end_of_UART2_FramingErrorCallbackRegister:
  2774                           	callstack 0
  2775                           
  2776 ;; *************** function _PIN_MANAGER_Initialize *****************
  2777 ;; Defined at:
  2778 ;;		line 38 in file "mcc_generated_files/system/src/pins.c"
  2779 ;; Parameters:    Size  Location     Type
  2780 ;;		None
  2781 ;; Auto vars:     Size  Location     Type
  2782 ;;		None
  2783 ;; Return value:  Size  Location     Type
  2784 ;;                  1    wreg      void 
  2785 ;; Registers used:
  2786 ;;		wreg, status,2
  2787 ;; Tracked objects:
  2788 ;;		On entry : 0/0
  2789 ;;		On exit  : 0/0
  2790 ;;		Unchanged: 0/0
  2791 ;; Data sizes:     COMRAM   BANK0   BANK1   BANK2   BANK3   BANK4   BANK5   BANK6   BANK7   BANK8   BANK9  BANK10  BANK1
      +1  BANK12  BANK13  BANK14  BANK15  BANK16  BANK17  BANK18  BANK19  BANK20  BANK21  BANK22  BANK23  BANK24  BANK25  BANK2
      +6  BANK27  BANK28  BANK29  BANK30  BANK31
  2792 ;;      Params:         0       0       0       0       0       0       0       0       0       0       0       0       
      +0       0       0       0       0       0       0       0       0       0       0       0       0       0       0       
      +0       0       0       0       0       0
  2793 ;;      Locals:         0       0       0       0       0       0       0       0       0       0       0       0       
      +0       0       0       0       0       0       0       0       0       0       0       0       0       0       0       
      +0       0       0       0       0       0
  2794 ;;      Temps:          0       0       0       0       0       0       0       0       0       0       0       0       
      +0       0       0       0       0       0       0       0       0       0       0       0       0       0       0       
      +0       0       0       0       0       0
  2795 ;;      Totals:         0       0       0       0       0       0       0       0       0       0       0       0       
      +0       0       0       0       0       0       0       0       0       0       0       0       0       0       0       
      +0       0       0       0       0       0
  2796 ;;Total ram usage:        0 bytes
  2797 ;; Hardware stack levels used: 1
  2798 ;; This function calls:
  2799 ;;		Nothing
  2800 ;; This function is called by:
  2801 ;;		_SYSTEM_Initialize
  2802 ;; This function uses a non-reentrant model
  2803 ;;
  2804                           
  2805                           	psect	text22
  2806   0023D8                     __ptext22:
  2807                           	callstack 0
  2808   0023D8                     _PIN_MANAGER_Initialize:
  2809                           	callstack 29
  2810   0023D8                     
  2811                           ;mcc_generated_files/system/src/pins.c: 43:     LATA = 0x0;
  2812   0023D8  0E00               	movlw	0
  2813   0023DA  6EBA               	movwf	186,c	;volatile
  2814                           
  2815                           ;mcc_generated_files/system/src/pins.c: 44:     LATB = 0x0;
  2816   0023DC  0E00               	movlw	0
  2817   0023DE  6EBB               	movwf	187,c	;volatile
  2818                           
  2819                           ;mcc_generated_files/system/src/pins.c: 45:     LATC = 0x0;
  2820   0023E0  0E00               	movlw	0
  2821   0023E2  6EBC               	movwf	188,c	;volatile
  2822                           
  2823                           ;mcc_generated_files/system/src/pins.c: 46:     LATD = 0x0;
  2824   0023E4  0E00               	movlw	0
  2825   0023E6  6EBD               	movwf	189,c	;volatile
  2826                           
  2827                           ;mcc_generated_files/system/src/pins.c: 47:     LATE = 0x0;
  2828   0023E8  0E00               	movlw	0
  2829   0023EA  6EBE               	movwf	190,c	;volatile
  2830   0023EC                     
  2831                           ;mcc_generated_files/system/src/pins.c: 52:     TRISA = 0xFF;
  2832   0023EC  68C2               	setf	194,c	;volatile
  2833   0023EE                     
  2834                           ;mcc_generated_files/system/src/pins.c: 53:     TRISB = 0xFF;
  2835   0023EE  68C3               	setf	195,c	;volatile
  2836   0023F0                     
  2837                           ;mcc_generated_files/system/src/pins.c: 54:     TRISC = 0xFF;
  2838   0023F0  68C4               	setf	196,c	;volatile
  2839                           
  2840                           ;mcc_generated_files/system/src/pins.c: 55:     TRISD = 0xFD;
  2841   0023F2  0EFD               	movlw	253
  2842   0023F4  6EC5               	movwf	197,c	;volatile
  2843                           
  2844                           ;mcc_generated_files/system/src/pins.c: 56:     TRISE = 0x7;
  2845   0023F6  0E07               	movlw	7
  2846   0023F8  6EC6               	movwf	198,c	;volatile
  2847   0023FA                     
  2848                           ;mcc_generated_files/system/src/pins.c: 61:     ANSELA = 0xFF;
  2849   0023FA  013A               	movlb	58	; () banked
  2850   0023FC  6940               	setf	64,b	;volatile
  2851   0023FE                     
  2852                           ; BSR set to: 58
  2853                           ;mcc_generated_files/system/src/pins.c: 62:     ANSELB = 0xFF;
  2854   0023FE  6950               	setf	80,b	;volatile
  2855   002400                     
  2856                           ; BSR set to: 58
  2857                           ;mcc_generated_files/system/src/pins.c: 63:     ANSELC = 0xFF;
  2858   002400  6960               	setf	96,b	;volatile
  2859                           
  2860                           ;mcc_generated_files/system/src/pins.c: 64:     ANSELD = 0xFC;
  2861   002402  0EFC               	movlw	252
  2862   002404  6F70               	movwf	112,b	;volatile
  2863                           
  2864                           ;mcc_generated_files/system/src/pins.c: 65:     ANSELE = 0x7;
  2865   002406  0E07               	movlw	7
  2866   002408  6F80               	movwf	128,b	;volatile
  2867                           
  2868                           ;mcc_generated_files/system/src/pins.c: 70:     WPUA = 0x0;
  2869   00240A  0E00               	movlw	0
  2870   00240C  6F41               	movwf	65,b	;volatile
  2871                           
  2872                           ;mcc_generated_files/system/src/pins.c: 71:     WPUB = 0x0;
  2873   00240E  0E00               	movlw	0
  2874   002410  6F51               	movwf	81,b	;volatile
  2875                           
  2876                           ;mcc_generated_files/system/src/pins.c: 72:     WPUC = 0x0;
  2877   002412  0E00               	movlw	0
  2878   002414  6F61               	movwf	97,b	;volatile
  2879                           
  2880                           ;mcc_generated_files/system/src/pins.c: 73:     WPUD = 0x0;
  2881   002416  0E00               	movlw	0
  2882   002418  6F71               	movwf	113,b	;volatile
  2883                           
  2884                           ;mcc_generated_files/system/src/pins.c: 74:     WPUE = 0x0;
  2885   00241A  0E00               	movlw	0
  2886   00241C  6F81               	movwf	129,b	;volatile
  2887                           
  2888                           ;mcc_generated_files/system/src/pins.c: 79:     ODCONA = 0x0;
  2889   00241E  0E00               	movlw	0
  2890   002420  6F42               	movwf	66,b	;volatile
  2891                           
  2892                           ;mcc_generated_files/system/src/pins.c: 80:     ODCONB = 0x0;
  2893   002422  0E00               	movlw	0
  2894   002424  6F52               	movwf	82,b	;volatile
  2895                           
  2896                           ;mcc_generated_files/system/src/pins.c: 81:     ODCONC = 0x0;
  2897   002426  0E00               	movlw	0
  2898   002428  6F62               	movwf	98,b	;volatile
  2899                           
  2900                           ;mcc_generated_files/system/src/pins.c: 82:     ODCOND = 0x0;
  2901   00242A  0E00               	movlw	0
  2902   00242C  6F72               	movwf	114,b	;volatile
  2903                           
  2904                           ;mcc_generated_files/system/src/pins.c: 83:     ODCONE = 0x0;
  2905   00242E  0E00               	movlw	0
  2906   002430  6F82               	movwf	130,b	;volatile
  2907   002432                     
  2908                           ; BSR set to: 58
  2909                           ;mcc_generated_files/system/src/pins.c: 88:     SLRCONA = 0xFF;
  2910   002432  6943               	setf	67,b	;volatile
  2911   002434                     
  2912                           ; BSR set to: 58
  2913                           ;mcc_generated_files/system/src/pins.c: 89:     SLRCONB = 0xFF;
  2914   002434  6953               	setf	83,b	;volatile
  2915   002436                     
  2916                           ; BSR set to: 58
  2917                           ;mcc_generated_files/system/src/pins.c: 90:     SLRCONC = 0xFF;
  2918   002436  6963               	setf	99,b	;volatile
  2919   002438                     
  2920                           ; BSR set to: 58
  2921                           ;mcc_generated_files/system/src/pins.c: 91:     SLRCOND = 0xFF;
  2922   002438  6973               	setf	115,b	;volatile
  2923                           
  2924                           ;mcc_generated_files/system/src/pins.c: 92:     SLRCONE = 0x7;
  2925   00243A  0E07               	movlw	7
  2926   00243C  6F83               	movwf	131,b	;volatile
  2927   00243E                     
  2928                           ; BSR set to: 58
  2929                           ;mcc_generated_files/system/src/pins.c: 97:     INLVLA = 0xFF;
  2930   00243E  6944               	setf	68,b	;volatile
  2931   002440                     
  2932                           ; BSR set to: 58
  2933                           ;mcc_generated_files/system/src/pins.c: 98:     INLVLB = 0xFF;
  2934   002440  6954               	setf	84,b	;volatile
  2935   002442                     
  2936                           ; BSR set to: 58
  2937                           ;mcc_generated_files/system/src/pins.c: 99:     INLVLC = 0xFF;
  2938   002442  6964               	setf	100,b	;volatile
  2939   002444                     
  2940                           ; BSR set to: 58
  2941                           ;mcc_generated_files/system/src/pins.c: 100:     INLVLD = 0xFF;
  2942   002444  6974               	setf	116,b	;volatile
  2943                           
  2944                           ;mcc_generated_files/system/src/pins.c: 101:     INLVLE = 0xF;
  2945   002446  0E0F               	movlw	15
  2946   002448  6F84               	movwf	132,b	;volatile
  2947                           
  2948                           ;mcc_generated_files/system/src/pins.c: 106:     RB1I2C = 0x0;
  2949   00244A  0E00               	movlw	0
  2950   00244C  6F5A               	movwf	90,b	;volatile
  2951                           
  2952                           ;mcc_generated_files/system/src/pins.c: 107:     RB2I2C = 0x0;
  2953   00244E  0E00               	movlw	0
  2954   002450  6F5B               	movwf	91,b	;volatile
  2955                           
  2956                           ;mcc_generated_files/system/src/pins.c: 108:     RC3I2C = 0x0;
  2957   002452  0E00               	movlw	0
  2958   002454  6F6A               	movwf	106,b	;volatile
  2959                           
  2960                           ;mcc_generated_files/system/src/pins.c: 109:     RC4I2C = 0x0;
  2961   002456  0E00               	movlw	0
  2962   002458  6F6B               	movwf	107,b	;volatile
  2963                           
  2964                           ;mcc_generated_files/system/src/pins.c: 110:     RD0I2C = 0x0;
  2965   00245A  0E00               	movlw	0
  2966   00245C  6F7A               	movwf	122,b	;volatile
  2967                           
  2968                           ;mcc_generated_files/system/src/pins.c: 111:     RD1I2C = 0x0;
  2969   00245E  0E00               	movlw	0
  2970   002460  6F7B               	movwf	123,b	;volatile
  2971                           
  2972                           ;mcc_generated_files/system/src/pins.c: 115:     U2RXPPS = 0x18;
  2973   002462  0E18               	movlw	24
  2974   002464  6FE8               	movwf	232,b	;volatile
  2975                           
  2976                           ;mcc_generated_files/system/src/pins.c: 116:     RD1PPS = 0x16;
  2977   002466  0E16               	movlw	22
  2978   002468  6F19               	movwf	25,b	;volatile
  2979                           
  2980                           ;mcc_generated_files/system/src/pins.c: 121:     IOCAP = 0x0;
  2981   00246A  0E00               	movlw	0
  2982   00246C  6F45               	movwf	69,b	;volatile
  2983                           
  2984                           ;mcc_generated_files/system/src/pins.c: 122:     IOCAN = 0x0;
  2985   00246E  0E00               	movlw	0
  2986   002470  6F46               	movwf	70,b	;volatile
  2987                           
  2988                           ;mcc_generated_files/system/src/pins.c: 123:     IOCAF = 0x0;
  2989   002472  0E00               	movlw	0
  2990   002474  6F47               	movwf	71,b	;volatile
  2991                           
  2992                           ;mcc_generated_files/system/src/pins.c: 124:     IOCBP = 0x0;
  2993   002476  0E00               	movlw	0
  2994   002478  6F55               	movwf	85,b	;volatile
  2995                           
  2996                           ;mcc_generated_files/system/src/pins.c: 125:     IOCBN = 0x0;
  2997   00247A  0E00               	movlw	0
  2998   00247C  6F56               	movwf	86,b	;volatile
  2999                           
  3000                           ;mcc_generated_files/system/src/pins.c: 126:     IOCBF = 0x0;
  3001   00247E  0E00               	movlw	0
  3002   002480  6F57               	movwf	87,b	;volatile
  3003                           
  3004                           ;mcc_generated_files/system/src/pins.c: 127:     IOCCP = 0x0;
  3005   002482  0E00               	movlw	0
  3006   002484  6F65               	movwf	101,b	;volatile
  3007                           
  3008                           ;mcc_generated_files/system/src/pins.c: 128:     IOCCN = 0x0;
  3009   002486  0E00               	movlw	0
  3010   002488  6F66               	movwf	102,b	;volatile
  3011                           
  3012                           ;mcc_generated_files/system/src/pins.c: 129:     IOCCF = 0x0;
  3013   00248A  0E00               	movlw	0
  3014   00248C  6F67               	movwf	103,b	;volatile
  3015                           
  3016                           ;mcc_generated_files/system/src/pins.c: 130:     IOCEP = 0x0;
  3017   00248E  0E00               	movlw	0
  3018   002490  6F85               	movwf	133,b	;volatile
  3019                           
  3020                           ;mcc_generated_files/system/src/pins.c: 131:     IOCEN = 0x0;
  3021   002492  0E00               	movlw	0
  3022   002494  6F86               	movwf	134,b	;volatile
  3023                           
  3024                           ;mcc_generated_files/system/src/pins.c: 132:     IOCEF = 0x0;
  3025   002496  0E00               	movlw	0
  3026   002498  6F87               	movwf	135,b	;volatile
  3027   00249A                     
  3028                           ; BSR set to: 58
  3029   00249A  0012               	return		;funcret
  3030   00249C                     __end_of_PIN_MANAGER_Initialize:
  3031                           	callstack 0
  3032                           
  3033 ;; *************** function _INTERRUPT_Initialize *****************
  3034 ;; Defined at:
  3035 ;;		line 42 in file "mcc_generated_files/system/src/interrupt.c"
  3036 ;; Parameters:    Size  Location     Type
  3037 ;;		None
  3038 ;; Auto vars:     Size  Location     Type
  3039 ;;		None
  3040 ;; Return value:  Size  Location     Type
  3041 ;;                  1    wreg      void 
  3042 ;; Registers used:
  3043 ;;		wreg, status,2, status,0, cstack
  3044 ;; Tracked objects:
  3045 ;;		On entry : 0/0
  3046 ;;		On exit  : 0/0
  3047 ;;		Unchanged: 0/0
  3048 ;; Data sizes:     COMRAM   BANK0   BANK1   BANK2   BANK3   BANK4   BANK5   BANK6   BANK7   BANK8   BANK9  BANK10  BANK1
      +1  BANK12  BANK13  BANK14  BANK15  BANK16  BANK17  BANK18  BANK19  BANK20  BANK21  BANK22  BANK23  BANK24  BANK25  BANK2
      +6  BANK27  BANK28  BANK29  BANK30  BANK31
  3049 ;;      Params:         0       0       0       0       0       0       0       0       0       0       0       0       
      +0       0       0       0       0       0       0       0       0       0       0       0       0       0       0       
      +0       0       0       0       0       0
  3050 ;;      Locals:         0       0       0       0       0       0       0       0       0       0       0       0       
      +0       0       0       0       0       0       0       0       0       0       0       0       0       0       0       
      +0       0       0       0       0       0
  3051 ;;      Temps:          0       0       0       0       0       0       0       0       0       0       0       0       
      +0       0       0       0       0       0       0       0       0       0       0       0       0       0       0       
      +0       0       0       0       0       0
  3052 ;;      Totals:         0       0       0       0       0       0       0       0       0       0       0       0       
      +0       0       0       0       0       0       0       0       0       0       0       0       0       0       0       
      +0       0       0       0       0       0
  3053 ;;Total ram usage:        0 bytes
  3054 ;; Hardware stack levels used: 1
  3055 ;; Hardware stack levels required when called: 1
  3056 ;; This function calls:
  3057 ;;		_INT0_SetInterruptHandler
  3058 ;;		_INT1_SetInterruptHandler
  3059 ;;		_INT2_SetInterruptHandler
  3060 ;; This function is called by:
  3061 ;;		_SYSTEM_Initialize
  3062 ;; This function uses a non-reentrant model
  3063 ;;
  3064                           
  3065                           	psect	text23
  3066   0027B8                     __ptext23:
  3067                           	callstack 0
  3068   0027B8                     _INTERRUPT_Initialize:
  3069                           	callstack 28
  3070   0027B8                     
  3071                           ;mcc_generated_files/system/src/interrupt.c: 45:     INTCON0bits.IPEN = 0;
  3072   0027B8  9AD2               	bcf	210,5,c	;volatile
  3073                           
  3074                           ;mcc_generated_files/system/src/interrupt.c: 49:     (PIR1bits.INT0IF = 0);
  3075   0027BA  0139               	movlb	57	; () banked
  3076   0027BC  91A1               	bcf	161,0,b	;volatile
  3077                           
  3078                           ;mcc_generated_files/system/src/interrupt.c: 50:     (INTCON0bits.INT0EDG = 1);
  3079   0027BE  80D2               	bsf	210,0,c	;volatile
  3080   0027C0                     
  3081                           ; BSR set to: 57
  3082                           ;mcc_generated_files/system/src/interrupt.c: 52:     INT0_SetInterruptHandler(INT0_Defau
      +                          ltInterruptHandler);
  3083   0027C0  0E00               	movlw	0
  3084   0027C2  6E01               	movwf	INT0_SetInterruptHandler@InterruptHandler^0,c
  3085   0027C4  0E00               	movlw	0
  3086   0027C6  6E02               	movwf	(INT0_SetInterruptHandler@InterruptHandler+1)^0,c
  3087   0027C8  0E00               	movlw	0
  3088   0027CA  6E03               	movwf	(INT0_SetInterruptHandler@InterruptHandler+2)^0,c
  3089   0027CC  EC6E  F015         	call	_INT0_SetInterruptHandler	;wreg free
  3090   0027D0                     
  3091                           ;mcc_generated_files/system/src/interrupt.c: 57:     (PIR5bits.INT1IF = 0);
  3092   0027D0  0139               	movlb	57	; () banked
  3093   0027D2  91A5               	bcf	165,0,b	;volatile
  3094   0027D4                     
  3095                           ; BSR set to: 57
  3096                           ;mcc_generated_files/system/src/interrupt.c: 58:     (INTCON0bits.INT1EDG = 1);
  3097   0027D4  82D2               	bsf	210,1,c	;volatile
  3098                           
  3099                           ;mcc_generated_files/system/src/interrupt.c: 60:     INT1_SetInterruptHandler(INT1_Defau
      +                          ltInterruptHandler);
  3100   0027D6  0E00               	movlw	0
  3101   0027D8  6E01               	movwf	INT1_SetInterruptHandler@InterruptHandler^0,c
  3102   0027DA  0E00               	movlw	0
  3103   0027DC  6E02               	movwf	(INT1_SetInterruptHandler@InterruptHandler+1)^0,c
  3104   0027DE  0E00               	movlw	0
  3105   0027E0  6E03               	movwf	(INT1_SetInterruptHandler@InterruptHandler+2)^0,c
  3106   0027E2  EC67  F015         	call	_INT1_SetInterruptHandler	;wreg free
  3107   0027E6                     
  3108                           ;mcc_generated_files/system/src/interrupt.c: 65:     (PIR7bits.INT2IF = 0);
  3109   0027E6  0139               	movlb	57	; () banked
  3110   0027E8  9BA7               	bcf	167,5,b	;volatile
  3111   0027EA                     
  3112                           ; BSR set to: 57
  3113                           ;mcc_generated_files/system/src/interrupt.c: 66:     (INTCON0bits.INT2EDG = 1);
  3114   0027EA  84D2               	bsf	210,2,c	;volatile
  3115                           
  3116                           ;mcc_generated_files/system/src/interrupt.c: 68:     INT2_SetInterruptHandler(INT2_Defau
      +                          ltInterruptHandler);
  3117   0027EC  0E00               	movlw	0
  3118   0027EE  6E01               	movwf	INT2_SetInterruptHandler@InterruptHandler^0,c
  3119   0027F0  0E00               	movlw	0
  3120   0027F2  6E02               	movwf	(INT2_SetInterruptHandler@InterruptHandler+1)^0,c
  3121   0027F4  0E00               	movlw	0
  3122   0027F6  6E03               	movwf	(INT2_SetInterruptHandler@InterruptHandler+2)^0,c
  3123   0027F8  EC60  F015         	call	_INT2_SetInterruptHandler	;wreg free
  3124   0027FC  0012               	return		;funcret
  3125   0027FE                     __end_of_INTERRUPT_Initialize:
  3126                           	callstack 0
  3127                           
  3128 ;; *************** function _INT2_SetInterruptHandler *****************
  3129 ;; Defined at:
  3130 ;;		line 144 in file "mcc_generated_files/system/src/interrupt.c"
  3131 ;; Parameters:    Size  Location     Type
  3132 ;;  InterruptHan    3    0[COMRAM] PTR FTN()void 
  3133 ;;		 -> INT2_DefaultInterruptHandler(1), 
  3134 ;; Auto vars:     Size  Location     Type
  3135 ;;		None
  3136 ;; Return value:  Size  Location     Type
  3137 ;;                  1    wreg      void 
  3138 ;; Registers used:
  3139 ;;		wreg, status,2, status,0
  3140 ;; Tracked objects:
  3141 ;;		On entry : 0/0
  3142 ;;		On exit  : 0/0
  3143 ;;		Unchanged: 0/0
  3144 ;; Data sizes:     COMRAM   BANK0   BANK1   BANK2   BANK3   BANK4   BANK5   BANK6   BANK7   BANK8   BANK9  BANK10  BANK1
      +1  BANK12  BANK13  BANK14  BANK15  BANK16  BANK17  BANK18  BANK19  BANK20  BANK21  BANK22  BANK23  BANK24  BANK25  BANK2
      +6  BANK27  BANK28  BANK29  BANK30  BANK31
  3145 ;;      Params:         3       0       0       0       0       0       0       0       0       0       0       0       
      +0       0       0       0       0       0       0       0       0       0       0       0       0       0       0       
      +0       0       0       0       0       0
  3146 ;;      Locals:         0       0       0       0       0       0       0       0       0       0       0       0       
      +0       0       0       0       0       0       0       0       0       0       0       0       0       0       0       
      +0       0       0       0       0       0
  3147 ;;      Temps:          0       0       0       0       0       0       0       0       0       0       0       0       
      +0       0       0       0       0       0       0       0       0       0       0       0       0       0       0       
      +0       0       0       0       0       0
  3148 ;;      Totals:         3       0       0       0       0       0       0       0       0       0       0       0       
      +0       0       0       0       0       0       0       0       0       0       0       0       0       0       0       
      +0       0       0       0       0       0
  3149 ;;Total ram usage:        3 bytes
  3150 ;; Hardware stack levels used: 1
  3151 ;; This function calls:
  3152 ;;		Nothing
  3153 ;; This function is called by:
  3154 ;;		_INTERRUPT_Initialize
  3155 ;; This function uses a non-reentrant model
  3156 ;;
  3157                           
  3158                           	psect	text24
  3159   002AC0                     __ptext24:
  3160                           	callstack 0
  3161   002AC0                     _INT2_SetInterruptHandler:
  3162                           	callstack 28
  3163   002AC0                     
  3164                           ;mcc_generated_files/system/src/interrupt.c: 145:     INT2_InterruptHandler = InterruptH
      +                          andler;
  3165   002AC0  C001  F04B         	movff	INT2_SetInterruptHandler@InterruptHandler,_INT2_InterruptHandler
  3166   002AC4  C002  F04C         	movff	INT2_SetInterruptHandler@InterruptHandler+1,_INT2_InterruptHandler+1
  3167   002AC8  C003  F04D         	movff	INT2_SetInterruptHandler@InterruptHandler+2,_INT2_InterruptHandler+2
  3168   002ACC  0012               	return		;funcret
  3169   002ACE                     __end_of_INT2_SetInterruptHandler:
  3170                           	callstack 0
  3171                           
  3172 ;; *************** function _INT1_SetInterruptHandler *****************
  3173 ;; Defined at:
  3174 ;;		line 118 in file "mcc_generated_files/system/src/interrupt.c"
  3175 ;; Parameters:    Size  Location     Type
  3176 ;;  InterruptHan    3    0[COMRAM] PTR FTN()void 
  3177 ;;		 -> INT1_DefaultInterruptHandler(1), 
  3178 ;; Auto vars:     Size  Location     Type
  3179 ;;		None
  3180 ;; Return value:  Size  Location     Type
  3181 ;;                  1    wreg      void 
  3182 ;; Registers used:
  3183 ;;		wreg, status,2, status,0
  3184 ;; Tracked objects:
  3185 ;;		On entry : 0/0
  3186 ;;		On exit  : 0/0
  3187 ;;		Unchanged: 0/0
  3188 ;; Data sizes:     COMRAM   BANK0   BANK1   BANK2   BANK3   BANK4   BANK5   BANK6   BANK7   BANK8   BANK9  BANK10  BANK1
      +1  BANK12  BANK13  BANK14  BANK15  BANK16  BANK17  BANK18  BANK19  BANK20  BANK21  BANK22  BANK23  BANK24  BANK25  BANK2
      +6  BANK27  BANK28  BANK29  BANK30  BANK31
  3189 ;;      Params:         3       0       0       0       0       0       0       0       0       0       0       0       
      +0       0       0       0       0       0       0       0       0       0       0       0       0       0       0       
      +0       0       0       0       0       0
  3190 ;;      Locals:         0       0       0       0       0       0       0       0       0       0       0       0       
      +0       0       0       0       0       0       0       0       0       0       0       0       0       0       0       
      +0       0       0       0       0       0
  3191 ;;      Temps:          0       0       0       0       0       0       0       0       0       0       0       0       
      +0       0       0       0       0       0       0       0       0       0       0       0       0       0       0       
      +0       0       0       0       0       0
  3192 ;;      Totals:         3       0       0       0       0       0       0       0       0       0       0       0       
      +0       0       0       0       0       0       0       0       0       0       0       0       0       0       0       
      +0       0       0       0       0       0
  3193 ;;Total ram usage:        3 bytes
  3194 ;; Hardware stack levels used: 1
  3195 ;; This function calls:
  3196 ;;		Nothing
  3197 ;; This function is called by:
  3198 ;;		_INTERRUPT_Initialize
  3199 ;; This function uses a non-reentrant model
  3200 ;;
  3201                           
  3202                           	psect	text25
  3203   002ACE                     __ptext25:
  3204                           	callstack 0
  3205   002ACE                     _INT1_SetInterruptHandler:
  3206                           	callstack 28
  3207   002ACE                     
  3208                           ;mcc_generated_files/system/src/interrupt.c: 119:     INT1_InterruptHandler = InterruptH
      +                          andler;
  3209   002ACE  C001  F04E         	movff	INT1_SetInterruptHandler@InterruptHandler,_INT1_InterruptHandler
  3210   002AD2  C002  F04F         	movff	INT1_SetInterruptHandler@InterruptHandler+1,_INT1_InterruptHandler+1
  3211   002AD6  C003  F050         	movff	INT1_SetInterruptHandler@InterruptHandler+2,_INT1_InterruptHandler+2
  3212   002ADA  0012               	return		;funcret
  3213   002ADC                     __end_of_INT1_SetInterruptHandler:
  3214                           	callstack 0
  3215                           
  3216 ;; *************** function _INT0_SetInterruptHandler *****************
  3217 ;; Defined at:
  3218 ;;		line 92 in file "mcc_generated_files/system/src/interrupt.c"
  3219 ;; Parameters:    Size  Location     Type
  3220 ;;  InterruptHan    3    0[COMRAM] PTR FTN()void 
  3221 ;;		 -> INT0_DefaultInterruptHandler(1), 
  3222 ;; Auto vars:     Size  Location     Type
  3223 ;;		None
  3224 ;; Return value:  Size  Location     Type
  3225 ;;                  1    wreg      void 
  3226 ;; Registers used:
  3227 ;;		wreg, status,2, status,0
  3228 ;; Tracked objects:
  3229 ;;		On entry : 0/0
  3230 ;;		On exit  : 0/0
  3231 ;;		Unchanged: 0/0
  3232 ;; Data sizes:     COMRAM   BANK0   BANK1   BANK2   BANK3   BANK4   BANK5   BANK6   BANK7   BANK8   BANK9  BANK10  BANK1
      +1  BANK12  BANK13  BANK14  BANK15  BANK16  BANK17  BANK18  BANK19  BANK20  BANK21  BANK22  BANK23  BANK24  BANK25  BANK2
      +6  BANK27  BANK28  BANK29  BANK30  BANK31
  3233 ;;      Params:         3       0       0       0       0       0       0       0       0       0       0       0       
      +0       0       0       0       0       0       0       0       0       0       0       0       0       0       0       
      +0       0       0       0       0       0
  3234 ;;      Locals:         0       0       0       0       0       0       0       0       0       0       0       0       
      +0       0       0       0       0       0       0       0       0       0       0       0       0       0       0       
      +0       0       0       0       0       0
  3235 ;;      Temps:          0       0       0       0       0       0       0       0       0       0       0       0       
      +0       0       0       0       0       0       0       0       0       0       0       0       0       0       0       
      +0       0       0       0       0       0
  3236 ;;      Totals:         3       0       0       0       0       0       0       0       0       0       0       0       
      +0       0       0       0       0       0       0       0       0       0       0       0       0       0       0       
      +0       0       0       0       0       0
  3237 ;;Total ram usage:        3 bytes
  3238 ;; Hardware stack levels used: 1
  3239 ;; This function calls:
  3240 ;;		Nothing
  3241 ;; This function is called by:
  3242 ;;		_INTERRUPT_Initialize
  3243 ;; This function uses a non-reentrant model
  3244 ;;
  3245                           
  3246                           	psect	text26
  3247   002ADC                     __ptext26:
  3248                           	callstack 0
  3249   002ADC                     _INT0_SetInterruptHandler:
  3250                           	callstack 28
  3251   002ADC                     
  3252                           ;mcc_generated_files/system/src/interrupt.c: 93:     INT0_InterruptHandler = InterruptHa
      +                          ndler;
  3253   002ADC  C001  F051         	movff	INT0_SetInterruptHandler@InterruptHandler,_INT0_InterruptHandler
  3254   002AE0  C002  F052         	movff	INT0_SetInterruptHandler@InterruptHandler+1,_INT0_InterruptHandler+1
  3255   002AE4  C003  F053         	movff	INT0_SetInterruptHandler@InterruptHandler+2,_INT0_InterruptHandler+2
  3256   002AE8  0012               	return		;funcret
  3257   002AEA                     __end_of_INT0_SetInterruptHandler:
  3258                           	callstack 0
  3259                           
  3260 ;; *************** function _CLOCK_Initialize *****************
  3261 ;; Defined at:
  3262 ;;		line 37 in file "mcc_generated_files/system/src/clock.c"
  3263 ;; Parameters:    Size  Location     Type
  3264 ;;		None
  3265 ;; Auto vars:     Size  Location     Type
  3266 ;;		None
  3267 ;; Return value:  Size  Location     Type
  3268 ;;                  1    wreg      void 
  3269 ;; Registers used:
  3270 ;;		wreg, status,2
  3271 ;; Tracked objects:
  3272 ;;		On entry : 0/0
  3273 ;;		On exit  : 0/0
  3274 ;;		Unchanged: 0/0
  3275 ;; Data sizes:     COMRAM   BANK0   BANK1   BANK2   BANK3   BANK4   BANK5   BANK6   BANK7   BANK8   BANK9  BANK10  BANK1
      +1  BANK12  BANK13  BANK14  BANK15  BANK16  BANK17  BANK18  BANK19  BANK20  BANK21  BANK22  BANK23  BANK24  BANK25  BANK2
      +6  BANK27  BANK28  BANK29  BANK30  BANK31
  3276 ;;      Params:         0       0       0       0       0       0       0       0       0       0       0       0       
      +0       0       0       0       0       0       0       0       0       0       0       0       0       0       0       
      +0       0       0       0       0       0
  3277 ;;      Locals:         0       0       0       0       0       0       0       0       0       0       0       0       
      +0       0       0       0       0       0       0       0       0       0       0       0       0       0       0       
      +0       0       0       0       0       0
  3278 ;;      Temps:          0       0       0       0       0       0       0       0       0       0       0       0       
      +0       0       0       0       0       0       0       0       0       0       0       0       0       0       0       
      +0       0       0       0       0       0
  3279 ;;      Totals:         0       0       0       0       0       0       0       0       0       0       0       0       
      +0       0       0       0       0       0       0       0       0       0       0       0       0       0       0       
      +0       0       0       0       0       0
  3280 ;;Total ram usage:        0 bytes
  3281 ;; Hardware stack levels used: 1
  3282 ;; This function calls:
  3283 ;;		Nothing
  3284 ;; This function is called by:
  3285 ;;		_SYSTEM_Initialize
  3286 ;; This function uses a non-reentrant model
  3287 ;;
  3288                           
  3289                           	psect	text27
  3290   002A80                     __ptext27:
  3291                           	callstack 0
  3292   002A80                     _CLOCK_Initialize:
  3293                           	callstack 29
  3294   002A80                     
  3295                           ;mcc_generated_files/system/src/clock.c: 41:     OSCCON1 = 0x60;
  3296   002A80  0E60               	movlw	96
  3297   002A82  0139               	movlb	57	; () banked
  3298   002A84  6FD9               	movwf	217,b	;volatile
  3299                           
  3300                           ;mcc_generated_files/system/src/clock.c: 43:     OSCCON3 = 0x0;
  3301   002A86  0E00               	movlw	0
  3302   002A88  6FDB               	movwf	219,b	;volatile
  3303                           
  3304                           ;mcc_generated_files/system/src/clock.c: 45:     OSCEN = 0x0;
  3305   002A8A  0E00               	movlw	0
  3306   002A8C  6FDD               	movwf	221,b	;volatile
  3307                           
  3308                           ;mcc_generated_files/system/src/clock.c: 47:     OSCFRQ = 0x3;
  3309   002A8E  0E03               	movlw	3
  3310   002A90  6FDF               	movwf	223,b	;volatile
  3311                           
  3312                           ;mcc_generated_files/system/src/clock.c: 49:     OSCTUNE = 0x0;
  3313   002A92  0E00               	movlw	0
  3314   002A94  6FDE               	movwf	222,b	;volatile
  3315   002A96                     
  3316                           ; BSR set to: 57
  3317   002A96  0012               	return		;funcret
  3318   002A98                     __end_of_CLOCK_Initialize:
  3319                           	callstack 0
  3320                           
  3321 ;; *************** function _LCD_String_xy *****************
  3322 ;; Defined at:
  3323 ;;		line 84 in file "./LCD.h"
  3324 ;; Parameters:    Size  Location     Type
  3325 ;;  row             1    wreg     unsigned char 
  3326 ;;  pos             1    9[COMRAM] unsigned char 
  3327 ;;  msg             2   10[COMRAM] PTR const unsigned char 
  3328 ;;		 -> main@hex_string(37), STR_3(12), STR_2(7), STR_1(9), 
  3329 ;; Auto vars:     Size  Location     Type
  3330 ;;  row             1   12[COMRAM] unsigned char 
  3331 ;;  location        1   13[COMRAM] unsigned char 
  3332 ;; Return value:  Size  Location     Type
  3333 ;;                  1    wreg      void 
  3334 ;; Registers used:
  3335 ;;		wreg, fsr0l, fsr0h, status,2, status,0, tblptrl, tblptrh, tblptru, cstack
  3336 ;; Tracked objects:
  3337 ;;		On entry : 0/0
  3338 ;;		On exit  : 0/0
  3339 ;;		Unchanged: 0/0
  3340 ;; Data sizes:     COMRAM   BANK0   BANK1   BANK2   BANK3   BANK4   BANK5   BANK6   BANK7   BANK8   BANK9  BANK10  BANK1
      +1  BANK12  BANK13  BANK14  BANK15  BANK16  BANK17  BANK18  BANK19  BANK20  BANK21  BANK22  BANK23  BANK24  BANK25  BANK2
      +6  BANK27  BANK28  BANK29  BANK30  BANK31
  3341 ;;      Params:         3       0       0       0       0       0       0       0       0       0       0       0       
      +0       0       0       0       0       0       0       0       0       0       0       0       0       0       0       
      +0       0       0       0       0       0
  3342 ;;      Locals:         2       0       0       0       0       0       0       0       0       0       0       0       
      +0       0       0       0       0       0       0       0       0       0       0       0       0       0       0       
      +0       0       0       0       0       0
  3343 ;;      Temps:          0       0       0       0       0       0       0       0       0       0       0       0       
      +0       0       0       0       0       0       0       0       0       0       0       0       0       0       0       
      +0       0       0       0       0       0
  3344 ;;      Totals:         5       0       0       0       0       0       0       0       0       0       0       0       
      +0       0       0       0       0       0       0       0       0       0       0       0       0       0       0       
      +0       0       0       0       0       0
  3345 ;;Total ram usage:        5 bytes
  3346 ;; Hardware stack levels used: 1
  3347 ;; Hardware stack levels required when called: 3
  3348 ;; This function calls:
  3349 ;;		_LCD_Command
  3350 ;;		_LCD_String
  3351 ;; This function is called by:
  3352 ;;		_main
  3353 ;;		_Decision
  3354 ;; This function uses a non-reentrant model
  3355 ;;
  3356                           
  3357                           	psect	text28
  3358   002842                     __ptext28:
  3359                           	callstack 0
  3360   002842                     _LCD_String_xy:
  3361                           	callstack 27
  3362                           
  3363                           ; BSR set to: 57
  3364                           ;incstack = 0
  3365                           ;LCD_String_xy@row stored from wreg
  3366   002842  6E0D               	movwf	LCD_String_xy@row^0,c
  3367   002844                     
  3368                           ;./LCD.h: 87:     if(row<=1)
  3369   002844  0E02               	movlw	2
  3370   002846  600D               	cpfslt	LCD_String_xy@row^0,c
  3371   002848  EF28  F014         	goto	u1041
  3372   00284C  EF2A  F014         	goto	u1040
  3373   002850                     u1041:
  3374   002850  EF33  F014         	goto	l2199
  3375   002854                     u1040:
  3376   002854                     
  3377                           ;./LCD.h: 88:     {;./LCD.h: 89:         location=(0x80) | ((pos) & 0x0f);
  3378   002854  500A               	movf	LCD_String_xy@pos^0,w,c
  3379   002856  0B0F               	andlw	15
  3380   002858  0980               	iorlw	128
  3381   00285A  6E0E               	movwf	LCD_String_xy@location^0,c
  3382   00285C                     
  3383                           ;./LCD.h: 90:         LCD_Command(location);
  3384   00285C  500E               	movf	LCD_String_xy@location^0,w,c
  3385   00285E  EC31  F015         	call	_LCD_Command
  3386                           
  3387                           ;./LCD.h: 91:     }
  3388   002862  EF3A  F014         	goto	l2203
  3389   002866                     l2199:
  3390                           
  3391                           ;./LCD.h: 93:     {;./LCD.h: 94:         location=(0xC0) | ((pos) & 0x0f);
  3392   002866  500A               	movf	LCD_String_xy@pos^0,w,c
  3393   002868  0B0F               	andlw	15
  3394   00286A  09C0               	iorlw	192
  3395   00286C  6E0E               	movwf	LCD_String_xy@location^0,c
  3396   00286E                     
  3397                           ;./LCD.h: 95:         LCD_Command(location);
  3398   00286E  500E               	movf	LCD_String_xy@location^0,w,c
  3399   002870  EC31  F015         	call	_LCD_Command
  3400   002874                     l2203:
  3401                           
  3402                           ;./LCD.h: 97:     LCD_String(msg);
  3403   002874  C00B  F008         	movff	LCD_String_xy@msg,LCD_String@msg
  3404   002878  C00C  F009         	movff	LCD_String_xy@msg+1,LCD_String@msg+1
  3405   00287C  EC7E  F013         	call	_LCD_String	;wreg free
  3406   002880  0012               	return		;funcret
  3407   002882                     __end_of_LCD_String_xy:
  3408                           	callstack 0
  3409                           
  3410 ;; *************** function _LCD_String *****************
  3411 ;; Defined at:
  3412 ;;		line 75 in file "./LCD.h"
  3413 ;; Parameters:    Size  Location     Type
  3414 ;;  msg             2    7[COMRAM] PTR const unsigned char 
  3415 ;;		 -> main@hex_string(37), STR_3(12), STR_2(7), STR_1(9), 
  3416 ;; Auto vars:     Size  Location     Type
  3417 ;;		None
  3418 ;; Return value:  Size  Location     Type
  3419 ;;                  1    wreg      void 
  3420 ;; Registers used:
  3421 ;;		wreg, fsr0l, fsr0h, status,2, status,0, tblptrl, tblptrh, tblptru, cstack
  3422 ;; Tracked objects:
  3423 ;;		On entry : 0/0
  3424 ;;		On exit  : 0/0
  3425 ;;		Unchanged: 0/0
  3426 ;; Data sizes:     COMRAM   BANK0   BANK1   BANK2   BANK3   BANK4   BANK5   BANK6   BANK7   BANK8   BANK9  BANK10  BANK1
      +1  BANK12  BANK13  BANK14  BANK15  BANK16  BANK17  BANK18  BANK19  BANK20  BANK21  BANK22  BANK23  BANK24  BANK25  BANK2
      +6  BANK27  BANK28  BANK29  BANK30  BANK31
  3427 ;;      Params:         2       0       0       0       0       0       0       0       0       0       0       0       
      +0       0       0       0       0       0       0       0       0       0       0       0       0       0       0       
      +0       0       0       0       0       0
  3428 ;;      Locals:         0       0       0       0       0       0       0       0       0       0       0       0       
      +0       0       0       0       0       0       0       0       0       0       0       0       0       0       0       
      +0       0       0       0       0       0
  3429 ;;      Temps:          0       0       0       0       0       0       0       0       0       0       0       0       
      +0       0       0       0       0       0       0       0       0       0       0       0       0       0       0       
      +0       0       0       0       0       0
  3430 ;;      Totals:         2       0       0       0       0       0       0       0       0       0       0       0       
      +0       0       0       0       0       0       0       0       0       0       0       0       0       0       0       
      +0       0       0       0       0       0
  3431 ;;Total ram usage:        2 bytes
  3432 ;; Hardware stack levels used: 1
  3433 ;; Hardware stack levels required when called: 2
  3434 ;; This function calls:
  3435 ;;		_LCD_Char
  3436 ;; This function is called by:
  3437 ;;		_LCD_String_xy
  3438 ;; This function uses a non-reentrant model
  3439 ;;
  3440                           
  3441                           	psect	text29
  3442   0026FC                     __ptext29:
  3443                           	callstack 0
  3444   0026FC                     _LCD_String:
  3445                           	callstack 27
  3446   0026FC                     
  3447                           ;./LCD.h: 75: void LCD_String(const char *msg);./LCD.h: 76: {;./LCD.h: 77:     while((*m
      +                          sg)!=0)
  3448   0026FC  EF99  F013         	goto	l2155
  3449   002700                     l2151:
  3450                           
  3451                           ;./LCD.h: 78:     {;./LCD.h: 79:       LCD_Char(*msg);
  3452   002700  0060  F023  FFF6   	movff	LCD_String@msg,tblptrl
  3453   002706  0060  F027  FFF7   	movff	LCD_String@msg+1,tblptrh
  3454   00270C  0E00               	movlw	low (__smallconst shr (0+16))
  3455   00270E  6EF8               	movwf	tblptru,c
  3456   002710  0E1F               	movlw	(high __ramtop+-1)
  3457   002712  64F7               	cpfsgt	tblptrh,c
  3458   002714  D003               	bra	u987
  3459   002716  0008               	tblrd		*
  3460   002718  50F5               	movf	tablat,w,c
  3461   00271A  D007               	bra	u980
  3462   00271C                     u987:
  3463   00271C  006F FFDB FFE9     	movff	tblptrl,fsr0l
  3464   002722  006F FFDF FFEA     	movff	tblptrh,fsr0h
  3465   002728  50EF               	movf	indf0,w,c
  3466   00272A                     u980:
  3467   00272A  EC22  F015         	call	_LCD_Char
  3468   00272E                     
  3469                           ;./LCD.h: 80:       msg++;
  3470   00272E  4A08               	infsnz	LCD_String@msg^0,f,c
  3471   002730  2A09               	incf	(LCD_String@msg+1)^0,f,c
  3472   002732                     l2155:
  3473                           
  3474                           ;./LCD.h: 77:     while((*msg)!=0)
  3475   002732  0060  F023  FFF6   	movff	LCD_String@msg,tblptrl
  3476   002738  0060  F027  FFF7   	movff	LCD_String@msg+1,tblptrh
  3477   00273E  0E00               	movlw	low (__smallconst shr (0+16))
  3478   002740  6EF8               	movwf	tblptru,c
  3479   002742  0E1F               	movlw	(high __ramtop+-1)
  3480   002744  64F7               	cpfsgt	tblptrh,c
  3481   002746  D003               	bra	u997
  3482   002748  0008               	tblrd		*
  3483   00274A  50F5               	movf	tablat,w,c
  3484   00274C  D007               	bra	u990
  3485   00274E                     u997:
  3486   00274E  006F FFDB FFE9     	movff	tblptrl,fsr0l
  3487   002754  006F FFDF FFEA     	movff	tblptrh,fsr0h
  3488   00275A  50EF               	movf	indf0,w,c
  3489   00275C                     u990:
  3490   00275C  0900               	iorlw	0
  3491   00275E  A4D8               	btfss	status,2,c
  3492   002760  EFB4  F013         	goto	u1001
  3493   002764  EFB6  F013         	goto	u1000
  3494   002768                     u1001:
  3495   002768  EF80  F013         	goto	l2151
  3496   00276C                     u1000:
  3497   00276C  0012               	return		;funcret
  3498   00276E                     __end_of_LCD_String:
  3499                           	callstack 0
  3500                           
  3501 ;; *************** function _LCD_Char *****************
  3502 ;; Defined at:
  3503 ;;		line 64 in file "./LCD.h"
  3504 ;; Parameters:    Size  Location     Type
  3505 ;;  dat             1    wreg     unsigned char 
  3506 ;; Auto vars:     Size  Location     Type
  3507 ;;  dat             1    6[COMRAM] unsigned char 
  3508 ;; Return value:  Size  Location     Type
  3509 ;;                  1    wreg      void 
  3510 ;; Registers used:
  3511 ;;		wreg, status,2, status,0, cstack
  3512 ;; Tracked objects:
  3513 ;;		On entry : 0/0
  3514 ;;		On exit  : 0/0
  3515 ;;		Unchanged: 0/0
  3516 ;; Data sizes:     COMRAM   BANK0   BANK1   BANK2   BANK3   BANK4   BANK5   BANK6   BANK7   BANK8   BANK9  BANK10  BANK1
      +1  BANK12  BANK13  BANK14  BANK15  BANK16  BANK17  BANK18  BANK19  BANK20  BANK21  BANK22  BANK23  BANK24  BANK25  BANK2
      +6  BANK27  BANK28  BANK29  BANK30  BANK31
  3517 ;;      Params:         0       0       0       0       0       0       0       0       0       0       0       0       
      +0       0       0       0       0       0       0       0       0       0       0       0       0       0       0       
      +0       0       0       0       0       0
  3518 ;;      Locals:         1       0       0       0       0       0       0       0       0       0       0       0       
      +0       0       0       0       0       0       0       0       0       0       0       0       0       0       0       
      +0       0       0       0       0       0
  3519 ;;      Temps:          0       0       0       0       0       0       0       0       0       0       0       0       
      +0       0       0       0       0       0       0       0       0       0       0       0       0       0       0       
      +0       0       0       0       0       0
  3520 ;;      Totals:         1       0       0       0       0       0       0       0       0       0       0       0       
      +0       0       0       0       0       0       0       0       0       0       0       0       0       0       0       
      +0       0       0       0       0       0
  3521 ;;Total ram usage:        1 bytes
  3522 ;; Hardware stack levels used: 1
  3523 ;; Hardware stack levels required when called: 1
  3524 ;; This function calls:
  3525 ;;		_MSdelay
  3526 ;; This function is called by:
  3527 ;;		_LCD_String
  3528 ;; This function uses a non-reentrant model
  3529 ;;
  3530                           
  3531                           	psect	text30
  3532   002A44                     __ptext30:
  3533                           	callstack 0
  3534   002A44                     _LCD_Char:
  3535                           	callstack 27
  3536                           
  3537                           ;incstack = 0
  3538                           ;LCD_Char@dat stored from wreg
  3539   002A44  6E07               	movwf	LCD_Char@dat^0,c
  3540   002A46                     
  3541                           ;./LCD.h: 64: void LCD_Char(char dat);./LCD.h: 65: {;./LCD.h: 66:     LATB= dat;
  3542   002A46  0060  F01F  FFBB   	movff	LCD_Char@dat,16315	;volatile
  3543   002A4C                     
  3544                           ;./LCD.h: 67:     LATA0 = 1;
  3545   002A4C  80BA               	bsf	16314,0,c	;volatile
  3546   002A4E                     
  3547                           ;./LCD.h: 68:     LATA1=1;
  3548   002A4E  82BA               	bsf	16314,1,c	;volatile
  3549   002A50                     
  3550                           ;./LCD.h: 69:     __nop();
  3551   002A50  0000               	nop	
  3552   002A52                     
  3553                           ;./LCD.h: 70:     LATA1=0;
  3554   002A52  92BA               	bcf	16314,1,c	;volatile
  3555   002A54                     
  3556                           ;./LCD.h: 71:     MSdelay(1);
  3557   002A54  0E00               	movlw	0
  3558   002A56  6E02               	movwf	(MSdelay@val+1)^0,c
  3559   002A58  0E01               	movlw	1
  3560   002A5A  6E01               	movwf	MSdelay@val^0,c
  3561   002A5C  ECB7  F013         	call	_MSdelay	;wreg free
  3562   002A60  0012               	return		;funcret
  3563   002A62                     __end_of_LCD_Char:
  3564                           	callstack 0
  3565                           
  3566 ;; *************** function _LCD_Init *****************
  3567 ;; Defined at:
  3568 ;;		line 38 in file "./LCD.h"
  3569 ;; Parameters:    Size  Location     Type
  3570 ;;		None
  3571 ;; Auto vars:     Size  Location     Type
  3572 ;;		None
  3573 ;; Return value:  Size  Location     Type
  3574 ;;                  1    wreg      void 
  3575 ;; Registers used:
  3576 ;;		wreg, status,2, status,0, cstack
  3577 ;; Tracked objects:
  3578 ;;		On entry : 0/0
  3579 ;;		On exit  : 0/0
  3580 ;;		Unchanged: 0/0
  3581 ;; Data sizes:     COMRAM   BANK0   BANK1   BANK2   BANK3   BANK4   BANK5   BANK6   BANK7   BANK8   BANK9  BANK10  BANK1
      +1  BANK12  BANK13  BANK14  BANK15  BANK16  BANK17  BANK18  BANK19  BANK20  BANK21  BANK22  BANK23  BANK24  BANK25  BANK2
      +6  BANK27  BANK28  BANK29  BANK30  BANK31
  3582 ;;      Params:         0       0       0       0       0       0       0       0       0       0       0       0       
      +0       0       0       0       0       0       0       0       0       0       0       0       0       0       0       
      +0       0       0       0       0       0
  3583 ;;      Locals:         0       0       0       0       0       0       0       0       0       0       0       0       
      +0       0       0       0       0       0       0       0       0       0       0       0       0       0       0       
      +0       0       0       0       0       0
  3584 ;;      Temps:          0       0       0       0       0       0       0       0       0       0       0       0       
      +0       0       0       0       0       0       0       0       0       0       0       0       0       0       0       
      +0       0       0       0       0       0
  3585 ;;      Totals:         0       0       0       0       0       0       0       0       0       0       0       0       
      +0       0       0       0       0       0       0       0       0       0       0       0       0       0       0       
      +0       0       0       0       0       0
  3586 ;;Total ram usage:        0 bytes
  3587 ;; Hardware stack levels used: 1
  3588 ;; Hardware stack levels required when called: 2
  3589 ;; This function calls:
  3590 ;;		_LCD_Command
  3591 ;;		_MSdelay
  3592 ;; This function is called by:
  3593 ;;		_main
  3594 ;; This function uses a non-reentrant model
  3595 ;;
  3596                           
  3597                           	psect	text31
  3598   002920                     __ptext31:
  3599                           	callstack 0
  3600   002920                     _LCD_Init:
  3601                           	callstack 28
  3602   002920                     
  3603                           ;./LCD.h: 40:     MSdelay(15);
  3604   002920  0E00               	movlw	0
  3605   002922  6E02               	movwf	(MSdelay@val+1)^0,c
  3606   002924  0E0F               	movlw	15
  3607   002926  6E01               	movwf	MSdelay@val^0,c
  3608   002928  ECB7  F013         	call	_MSdelay	;wreg free
  3609   00292C                     
  3610                           ;./LCD.h: 41:     TRISB = 0x00;
  3611   00292C  0E00               	movlw	0
  3612   00292E  6EC3               	movwf	195,c	;volatile
  3613   002930                     
  3614                           ;./LCD.h: 42:     TRISA = 0x00;
  3615   002930  0E00               	movlw	0
  3616   002932  6EC2               	movwf	194,c	;volatile
  3617                           
  3618                           ;./LCD.h: 43:     LCD_Command(0x01);
  3619   002934  0E01               	movlw	1
  3620   002936  EC31  F015         	call	_LCD_Command
  3621                           
  3622                           ;./LCD.h: 44:     LCD_Command(0x38);
  3623   00293A  0E38               	movlw	56
  3624   00293C  EC31  F015         	call	_LCD_Command
  3625                           
  3626                           ;./LCD.h: 45:     LCD_Command(0x0c);
  3627   002940  0E0C               	movlw	12
  3628   002942  EC31  F015         	call	_LCD_Command
  3629                           
  3630                           ;./LCD.h: 46:     LCD_Command(0x06);
  3631   002946  0E06               	movlw	6
  3632   002948  EC31  F015         	call	_LCD_Command
  3633   00294C  0012               	return		;funcret
  3634   00294E                     __end_of_LCD_Init:
  3635                           	callstack 0
  3636                           
  3637 ;; *************** function _LCD_Clear *****************
  3638 ;; Defined at:
  3639 ;;		line 49 in file "./LCD.h"
  3640 ;; Parameters:    Size  Location     Type
  3641 ;;		None
  3642 ;; Auto vars:     Size  Location     Type
  3643 ;;		None
  3644 ;; Return value:  Size  Location     Type
  3645 ;;                  1    wreg      void 
  3646 ;; Registers used:
  3647 ;;		wreg, status,2, status,0, cstack
  3648 ;; Tracked objects:
  3649 ;;		On entry : 0/0
  3650 ;;		On exit  : 0/0
  3651 ;;		Unchanged: 0/0
  3652 ;; Data sizes:     COMRAM   BANK0   BANK1   BANK2   BANK3   BANK4   BANK5   BANK6   BANK7   BANK8   BANK9  BANK10  BANK1
      +1  BANK12  BANK13  BANK14  BANK15  BANK16  BANK17  BANK18  BANK19  BANK20  BANK21  BANK22  BANK23  BANK24  BANK25  BANK2
      +6  BANK27  BANK28  BANK29  BANK30  BANK31
  3653 ;;      Params:         0       0       0       0       0       0       0       0       0       0       0       0       
      +0       0       0       0       0       0       0       0       0       0       0       0       0       0       0       
      +0       0       0       0       0       0
  3654 ;;      Locals:         0       0       0       0       0       0       0       0       0       0       0       0       
      +0       0       0       0       0       0       0       0       0       0       0       0       0       0       0       
      +0       0       0       0       0       0
  3655 ;;      Temps:          0       0       0       0       0       0       0       0       0       0       0       0       
      +0       0       0       0       0       0       0       0       0       0       0       0       0       0       0       
      +0       0       0       0       0       0
  3656 ;;      Totals:         0       0       0       0       0       0       0       0       0       0       0       0       
      +0       0       0       0       0       0       0       0       0       0       0       0       0       0       0       
      +0       0       0       0       0       0
  3657 ;;Total ram usage:        0 bytes
  3658 ;; Hardware stack levels used: 1
  3659 ;; Hardware stack levels required when called: 2
  3660 ;; This function calls:
  3661 ;;		_LCD_Command
  3662 ;; This function is called by:
  3663 ;;		_main
  3664 ;; This function uses a non-reentrant model
  3665 ;;
  3666                           
  3667                           	psect	text32
  3668   002AF4                     __ptext32:
  3669                           	callstack 0
  3670   002AF4                     _LCD_Clear:
  3671                           	callstack 28
  3672   002AF4                     
  3673                           ;./LCD.h: 51:         LCD_Command(0x01);
  3674   002AF4  0E01               	movlw	1
  3675   002AF6  EC31  F015         	call	_LCD_Command
  3676   002AFA  0012               	return		;funcret
  3677   002AFC                     __end_of_LCD_Clear:
  3678                           	callstack 0
  3679                           
  3680 ;; *************** function _LCD_Command *****************
  3681 ;; Defined at:
  3682 ;;		line 54 in file "./LCD.h"
  3683 ;; Parameters:    Size  Location     Type
  3684 ;;  cmd             1    wreg     unsigned char 
  3685 ;; Auto vars:     Size  Location     Type
  3686 ;;  cmd             1    6[COMRAM] unsigned char 
  3687 ;; Return value:  Size  Location     Type
  3688 ;;                  1    wreg      void 
  3689 ;; Registers used:
  3690 ;;		wreg, status,2, status,0, cstack
  3691 ;; Tracked objects:
  3692 ;;		On entry : 0/0
  3693 ;;		On exit  : 0/0
  3694 ;;		Unchanged: 0/0
  3695 ;; Data sizes:     COMRAM   BANK0   BANK1   BANK2   BANK3   BANK4   BANK5   BANK6   BANK7   BANK8   BANK9  BANK10  BANK1
      +1  BANK12  BANK13  BANK14  BANK15  BANK16  BANK17  BANK18  BANK19  BANK20  BANK21  BANK22  BANK23  BANK24  BANK25  BANK2
      +6  BANK27  BANK28  BANK29  BANK30  BANK31
  3696 ;;      Params:         0       0       0       0       0       0       0       0       0       0       0       0       
      +0       0       0       0       0       0       0       0       0       0       0       0       0       0       0       
      +0       0       0       0       0       0
  3697 ;;      Locals:         1       0       0       0       0       0       0       0       0       0       0       0       
      +0       0       0       0       0       0       0       0       0       0       0       0       0       0       0       
      +0       0       0       0       0       0
  3698 ;;      Temps:          0       0       0       0       0       0       0       0       0       0       0       0       
      +0       0       0       0       0       0       0       0       0       0       0       0       0       0       0       
      +0       0       0       0       0       0
  3699 ;;      Totals:         1       0       0       0       0       0       0       0       0       0       0       0       
      +0       0       0       0       0       0       0       0       0       0       0       0       0       0       0       
      +0       0       0       0       0       0
  3700 ;;Total ram usage:        1 bytes
  3701 ;; Hardware stack levels used: 1
  3702 ;; Hardware stack levels required when called: 1
  3703 ;; This function calls:
  3704 ;;		_MSdelay
  3705 ;; This function is called by:
  3706 ;;		_LCD_Init
  3707 ;;		_LCD_Clear
  3708 ;;		_LCD_String_xy
  3709 ;; This function uses a non-reentrant model
  3710 ;;
  3711                           
  3712                           	psect	text33
  3713   002A62                     __ptext33:
  3714                           	callstack 0
  3715   002A62                     _LCD_Command:
  3716                           	callstack 28
  3717                           
  3718                           ;incstack = 0
  3719                           ;LCD_Command@cmd stored from wreg
  3720   002A62  6E07               	movwf	LCD_Command@cmd^0,c
  3721   002A64                     
  3722                           ;./LCD.h: 54: void LCD_Command(char cmd );./LCD.h: 55: {;./LCD.h: 56:     LATB= cmd;
  3723   002A64  0060  F01F  FFBB   	movff	LCD_Command@cmd,16315	;volatile
  3724   002A6A                     
  3725                           ;./LCD.h: 57:     LATA0 = 0;
  3726   002A6A  90BA               	bcf	16314,0,c	;volatile
  3727   002A6C                     
  3728                           ;./LCD.h: 58:     LATA1 = 1;
  3729   002A6C  82BA               	bsf	16314,1,c	;volatile
  3730   002A6E                     
  3731                           ;./LCD.h: 59:     __nop();
  3732   002A6E  0000               	nop	
  3733   002A70                     
  3734                           ;./LCD.h: 60:     LATA1 = 0;
  3735   002A70  92BA               	bcf	16314,1,c	;volatile
  3736   002A72                     
  3737                           ;./LCD.h: 61:     MSdelay(3);
  3738   002A72  0E00               	movlw	0
  3739   002A74  6E02               	movwf	(MSdelay@val+1)^0,c
  3740   002A76  0E03               	movlw	3
  3741   002A78  6E01               	movwf	MSdelay@val^0,c
  3742   002A7A  ECB7  F013         	call	_MSdelay	;wreg free
  3743   002A7E  0012               	return		;funcret
  3744   002A80                     __end_of_LCD_Command:
  3745                           	callstack 0
  3746                           
  3747 ;; *************** function _MSdelay *****************
  3748 ;; Defined at:
  3749 ;;		line 101 in file "./LCD.h"
  3750 ;; Parameters:    Size  Location     Type
  3751 ;;  val             2    0[COMRAM] unsigned int 
  3752 ;; Auto vars:     Size  Location     Type
  3753 ;;  j               2    4[COMRAM] unsigned int 
  3754 ;;  i               2    2[COMRAM] unsigned int 
  3755 ;; Return value:  Size  Location     Type
  3756 ;;                  1    wreg      void 
  3757 ;; Registers used:
  3758 ;;		wreg, status,2, status,0
  3759 ;; Tracked objects:
  3760 ;;		On entry : 0/0
  3761 ;;		On exit  : 0/0
  3762 ;;		Unchanged: 0/0
  3763 ;; Data sizes:     COMRAM   BANK0   BANK1   BANK2   BANK3   BANK4   BANK5   BANK6   BANK7   BANK8   BANK9  BANK10  BANK1
      +1  BANK12  BANK13  BANK14  BANK15  BANK16  BANK17  BANK18  BANK19  BANK20  BANK21  BANK22  BANK23  BANK24  BANK25  BANK2
      +6  BANK27  BANK28  BANK29  BANK30  BANK31
  3764 ;;      Params:         2       0       0       0       0       0       0       0       0       0       0       0       
      +0       0       0       0       0       0       0       0       0       0       0       0       0       0       0       
      +0       0       0       0       0       0
  3765 ;;      Locals:         4       0       0       0       0       0       0       0       0       0       0       0       
      +0       0       0       0       0       0       0       0       0       0       0       0       0       0       0       
      +0       0       0       0       0       0
  3766 ;;      Temps:          0       0       0       0       0       0       0       0       0       0       0       0       
      +0       0       0       0       0       0       0       0       0       0       0       0       0       0       0       
      +0       0       0       0       0       0
  3767 ;;      Totals:         6       0       0       0       0       0       0       0       0       0       0       0       
      +0       0       0       0       0       0       0       0       0       0       0       0       0       0       0       
      +0       0       0       0       0       0
  3768 ;;Total ram usage:        6 bytes
  3769 ;; Hardware stack levels used: 1
  3770 ;; This function calls:
  3771 ;;		Nothing
  3772 ;; This function is called by:
  3773 ;;		_LCD_Init
  3774 ;;		_LCD_Command
  3775 ;;		_LCD_Char
  3776 ;;		_LightScan
  3777 ;;		_Decision
  3778 ;; This function uses a non-reentrant model
  3779 ;;
  3780                           
  3781                           	psect	text34
  3782   00276E                     __ptext34:
  3783                           	callstack 0
  3784   00276E                     _MSdelay:
  3785                           	callstack 27
  3786   00276E                     
  3787                           ;./LCD.h: 101: void MSdelay(unsigned int val);./LCD.h: 102: {;./LCD.h: 103:      unsigne
      +                          d int i,j;;./LCD.h: 104:         for(i=0;i<val;i++)
  3788   00276E  0E00               	movlw	0
  3789   002770  6E04               	movwf	(MSdelay@i+1)^0,c
  3790   002772  0E00               	movlw	0
  3791   002774  6E03               	movwf	MSdelay@i^0,c
  3792   002776  EFD0  F013         	goto	l1945
  3793   00277A                     l1933:
  3794                           
  3795                           ;./LCD.h: 105:             for(j=0;j<165;j++);
  3796   00277A  0E00               	movlw	0
  3797   00277C  6E06               	movwf	(MSdelay@j+1)^0,c
  3798   00277E  0E00               	movlw	0
  3799   002780  6E05               	movwf	MSdelay@j^0,c
  3800   002782                     l1939:
  3801   002782  4A05               	infsnz	MSdelay@j^0,f,c
  3802   002784  2A06               	incf	(MSdelay@j+1)^0,f,c
  3803   002786  5006               	movf	(MSdelay@j+1)^0,w,c
  3804   002788  E109               	bnz	u800
  3805   00278A  0EA5               	movlw	165
  3806   00278C  5C05               	subwf	MSdelay@j^0,w,c
  3807   00278E  A0D8               	btfss	status,0,c
  3808   002790  EFCC  F013         	goto	u801
  3809   002794  EFCE  F013         	goto	u800
  3810   002798                     u801:
  3811   002798  EFC1  F013         	goto	l1939
  3812   00279C                     u800:
  3813   00279C  4A03               	infsnz	MSdelay@i^0,f,c
  3814   00279E  2A04               	incf	(MSdelay@i+1)^0,f,c
  3815   0027A0                     l1945:
  3816   0027A0  5001               	movf	MSdelay@val^0,w,c
  3817   0027A2  5C03               	subwf	MSdelay@i^0,w,c
  3818   0027A4  5002               	movf	(MSdelay@val+1)^0,w,c
  3819   0027A6  5804               	subwfb	(MSdelay@i+1)^0,w,c
  3820   0027A8  A0D8               	btfss	status,0,c
  3821   0027AA  EFD9  F013         	goto	u811
  3822   0027AE  EFDB  F013         	goto	u810
  3823   0027B2                     u811:
  3824   0027B2  EFBD  F013         	goto	l1933
  3825   0027B6                     u810:
  3826   0027B6  0012               	return		;funcret
  3827   0027B8                     __end_of_MSdelay:
  3828                           	callstack 0
  3829                           
  3830                           	psect	rparam
  3831   000000                     
  3832                           	psect	config
  3833                           
  3834                           ;Config register CONFIG1L @ 0x300000
  3835                           ;	External Oscillator Selection
  3836                           ;	FEXTOSC = ECH, EC (external clock) above 8 MHz; PFM set to high power
  3837                           ;	Reset Oscillator Selection
  3838                           ;	RSTOSC = HFINTOSC_64MHZ, HFINTOSC with HFFRQ = 64 MHz and CDIV = 1:1
  3839   300000                     	org	3145728
  3840   300000  8F                 	db	143
  3841                           
  3842                           ;Config register CONFIG1H @ 0x300001
  3843                           ;	Clock out Enable bit
  3844                           ;	CLKOUTEN = OFF, CLKOUT function is disabled
  3845                           ;	PRLOCKED One-Way Set Enable bit
  3846                           ;	PR1WAY = ON, PRLOCK bit can be cleared and set only once
  3847                           ;	Clock Switch Enable bit
  3848                           ;	CSWEN = ON, Writing to NOSC and NDIV is allowed
  3849                           ;	Fail-Safe Clock Monitor Enable bit
  3850                           ;	FCMEN = ON, Fail-Safe Clock Monitor enabled
  3851   300001                     	org	3145729
  3852   300001  FF                 	db	255
  3853                           
  3854                           ;Config register CONFIG2L @ 0x300002
  3855                           ;	MCLR Enable bit
  3856                           ;	MCLRE = EXTMCLR, If LVP = 0, MCLR pin is MCLR; If LVP = 1, RE3 pin function is MCLR
  3857                           ;	Power-up timer selection bits
  3858                           ;	PWRTS = PWRT_OFF, PWRT is disabled
  3859                           ;	Multi-vector enable bit
  3860                           ;	MVECEN = OFF, Interrupt contoller does not use vector table to prioritze interrupts
  3861                           ;	IVTLOCK bit One-way set enable bit
  3862                           ;	IVT1WAY = ON, IVTLOCK bit can be cleared and set only once
  3863                           ;	Low Power BOR Enable bit
  3864                           ;	LPBOREN = OFF, ULPBOR disabled
  3865                           ;	Brown-out Reset Enable bits
  3866                           ;	BOREN = SBORDIS, Brown-out Reset enabled , SBOREN bit is ignored
  3867   300002                     	org	3145730
  3868   300002  F7                 	db	247
  3869                           
  3870                           ;Config register CONFIG2H @ 0x300003
  3871                           ;	Brown-out Reset Voltage Selection bits
  3872                           ;	BORV = VBOR_2P45, Brown-out Reset Voltage (VBOR) set to 2.45V
  3873                           ;	ZCD Disable bit
  3874                           ;	ZCD = OFF, ZCD disabled. ZCD can be enabled by setting the ZCDSEN bit of ZCDCON
  3875                           ;	PPSLOCK bit One-Way Set Enable bit
  3876                           ;	PPS1WAY = ON, PPSLOCK bit can be cleared and set only once; PPS registers remain locke
      +                          d after one clear/set cycle
  3877                           ;	Stack Full/Underflow Reset Enable bit
  3878                           ;	STVREN = ON, Stack full/underflow will cause Reset
  3879                           ;	Debugger Enable bit
  3880                           ;	DEBUG = 0x1, unprogrammed default
  3881                           ;	Extended Instruction Set Enable bit
  3882                           ;	XINST = OFF, Extended Instruction Set and Indexed Addressing Mode disabled
  3883   300003                     	org	3145731
  3884   300003  FF                 	db	255
  3885                           
  3886                           ;Config register CONFIG3L @ 0x300004
  3887                           ;	WDT Period selection bits
  3888                           ;	WDTCPS = WDTCPS_31, Divider ratio 1:65536; software control of WDTPS
  3889                           ;	WDT operating mode
  3890                           ;	WDTE = OFF, WDT Disabled; SWDTEN is ignored
  3891   300004                     	org	3145732
  3892   300004  9F                 	db	159
  3893                           
  3894                           ;Config register CONFIG3H @ 0x300005
  3895                           ;	WDT Window Select bits
  3896                           ;	WDTCWS = WDTCWS_7, window always open (100%); software control; keyed access not requi
      +                          red
  3897                           ;	WDT input clock selector
  3898                           ;	WDTCCS = SC, Software Control
  3899   300005                     	org	3145733
  3900   300005  FF                 	db	255
  3901                           
  3902                           ;Config register CONFIG4L @ 0x300006
  3903                           ;	Boot Block Size selection bits
  3904                           ;	BBSIZE = BBSIZE_512, Boot Block size is 512 words
  3905                           ;	Boot Block enable bit
  3906                           ;	BBEN = OFF, Boot block disabled
  3907                           ;	Storage Area Flash enable bit
  3908                           ;	SAFEN = OFF, SAF disabled
  3909                           ;	Application Block write protection bit
  3910                           ;	WRTAPP = OFF, Application Block not write protected
  3911   300006                     	org	3145734
  3912   300006  FF                 	db	255
  3913                           
  3914                           ;Config register CONFIG4H @ 0x300007
  3915                           ;	Boot Block Write Protection bit
  3916                           ;	WRTB = OFF, Boot Block not write-protected
  3917                           ;	Configuration Register Write Protection bit
  3918                           ;	WRTC = OFF, Configuration registers not write-protected
  3919                           ;	Data EEPROM Write Protection bit
  3920                           ;	WRTD = OFF, Data EEPROM not write-protected
  3921                           ;	SAF Write protection bit
  3922                           ;	WRTSAF = OFF, SAF not Write Protected
  3923                           ;	Low Voltage Programming Enable bit
  3924                           ;	LVP = ON, Low voltage programming enabled. MCLR/VPP pin function is MCLR. MCLRE config
      +                          uration bit is ignored
  3925   300007                     	org	3145735
  3926   300007  FF                 	db	255
  3927                           
  3928                           ;Config register CONFIG5L @ 0x300008
  3929                           ;	PFM and Data EEPROM Code Protection bit
  3930                           ;	CP = OFF, PFM and Data EEPROM code protection disabled
  3931   300008                     	org	3145736
  3932   300008  FF                 	db	255
  3933                           
  3934                           ;Config register CONFIG5H @ 0x300009
  3935                           ;	unspecified, using default values
  3936   300009                     	org	3145737
  3937   300009  FF                 	db	255
  3938                           tosu	equ	0x3FFF
  3939                           tosh	equ	0x3FFE
  3940                           tosl	equ	0x3FFD
  3941                           stkptr	equ	0x3FFC
  3942                           pclatu	equ	0x3FFB
  3943                           pclath	equ	0x3FFA
  3944                           pcl	equ	0x3FF9
  3945                           tblptru	equ	0x3FF8
  3946                           tblptrh	equ	0x3FF7
  3947                           tblptrl	equ	0x3FF6
  3948                           tablat	equ	0x3FF5
  3949                           prodh	equ	0x3FF4
  3950                           prodl	equ	0x3FF3
  3951                           indf0	equ	0x3FEF
  3952                           postinc0	equ	0x3FEE
  3953                           postdec0	equ	0x3FED
  3954                           preinc0	equ	0x3FEC
  3955                           plusw0	equ	0x3FEB
  3956                           fsr0h	equ	0x3FEA
  3957                           fsr0l	equ	0x3FE9
  3958                           wreg	equ	0x3FE8
  3959                           indf1	equ	0x3FE7
  3960                           postinc1	equ	0x3FE6
  3961                           postdec1	equ	0x3FE5
  3962                           preinc1	equ	0x3FE4
  3963                           plusw1	equ	0x3FE3
  3964                           fsr1h	equ	0x3FE2
  3965                           fsr1l	equ	0x3FE1
  3966                           bsr	equ	0x3FE0
  3967                           indf2	equ	0x3FDF
  3968                           postinc2	equ	0x3FDE
  3969                           postdec2	equ	0x3FDD
  3970                           preinc2	equ	0x3FDC
  3971                           plusw2	equ	0x3FDB
  3972                           fsr2h	equ	0x3FDA
  3973                           fsr2l	equ	0x3FD9
  3974                           status	equ	0x3FD8

Data Sizes:
    Strings     34
    Constant    72
    Data        0
    BSS         58
    Persistent  0
    Stack       0

Auto Spaces:
    Space          Size  Autos    Used
    COMRAM           95     65      91
    BANK0           160     48      80
    BANK1           256      0       0
    BANK2           256      0       0
    BANK3           256      0       0
    BANK4           256      0       0
    BANK5           256      0       0
    BANK6           256      0       0
    BANK7           256      0       0
    BANK8           256      0       0
    BANK9           256      0       0
    BANK10          256      0       0
    BANK11          256      0       0
    BANK12          256      0       0
    BANK13          256      0       0
    BANK14          256      0       0
    BANK15          256      0       0
    BANK16          256      0       0
    BANK17          256      0       0
    BANK18          256      0       0
    BANK19          256      0       0
    BANK20          256      0       0
    BANK21          256      0       0
    BANK22          256      0       0
    BANK23          256      0       0
    BANK24          256      0       0
    BANK25          256      0       0
    BANK26          256      0       0
    BANK27          256      0       0
    BANK28          256      0       0
    BANK29          256      0       0
    BANK30          256      0       0
    BANK31          256      0       0

Pointer List with Targets:

    f$.$buffer	PTR unsigned char  size(2) Largest target is 0

    f$.$source	PTR const unsigned char  size(2) Largest target is 0

    fputc@fp	PTR struct _IO_FILE size(1) Largest target is 12
		 -> sprintf@f(COMRAM[12]), 

    fputc@fp$.$buffer	PTR unsigned char  size(2) Largest target is 0

    fputc@fp$.$source	PTR const unsigned char  size(2) Largest target is 0

    fputs@fp	PTR struct _IO_FILE size(1) Largest target is 12
		 -> sprintf@f(COMRAM[12]), 

    fputs@s	PTR const unsigned char  size(1) Largest target is 32
		 -> dbuf(BANK0[32]), 

    INT0_InterruptHandler	PTR FTN()void  size(3) Largest target is 1
		 -> INT0_DefaultInterruptHandler(), NULL(), 

    INT0_SetInterruptHandler@InterruptHandler	PTR FTN()void  size(3) Largest target is 1
		 -> INT0_DefaultInterruptHandler(), 

    INT1_InterruptHandler	PTR FTN()void  size(3) Largest target is 1
		 -> INT1_DefaultInterruptHandler(), NULL(), 

    INT1_SetInterruptHandler@InterruptHandler	PTR FTN()void  size(3) Largest target is 1
		 -> INT1_DefaultInterruptHandler(), 

    INT2_InterruptHandler	PTR FTN()void  size(3) Largest target is 1
		 -> INT2_DefaultInterruptHandler(), NULL(), 

    INT2_SetInterruptHandler@InterruptHandler	PTR FTN()void  size(3) Largest target is 1
		 -> INT2_DefaultInterruptHandler(), 

    LCD_String@msg	PTR const unsigned char  size(2) Largest target is 37
		 -> main@hex_string(BANK0[37]), STR_1(CODE[9]), STR_2(CODE[7]), STR_3(CODE[12]), 

    LCD_String_xy@msg	PTR const unsigned char  size(2) Largest target is 37
		 -> main@hex_string(BANK0[37]), STR_1(CODE[9]), STR_2(CODE[7]), STR_3(CODE[12]), 

    pad@buf	PTR unsigned char  size(1) Largest target is 32
		 -> dbuf(BANK0[32]), 

    pad@fp	PTR struct _IO_FILE size(1) Largest target is 12
		 -> sprintf@f(COMRAM[12]), 

    read_prec_or_width@ap	PTR PTR void [1] size(1) Largest target is 1
		 -> sprintf@ap(COMRAM[1]), 

    read_prec_or_width@fmt	PTR PTR const unsigned char  size(1) Largest target is 1
		 -> vfprintf@cfmt(COMRAM[1]), 

    S1495$buffer	PTR unsigned char  size(2) Largest target is 0

    S1495$source	PTR const unsigned char  size(2) Largest target is 0

    S329$20$0	PTR FTN()void  size(3) Largest target is 1
		 -> UART2_DefaultFramingErrorCallback(), 

    S329$21$0	PTR FTN()void  size(3) Largest target is 1
		 -> UART2_DefaultOverrunErrorCallback(), 

    S329$22$0	PTR FTN()void  size(3) Largest target is 1
		 -> UART2_DefaultParityErrorCallback(), 

    S329$AutoBaudEventEnableGet	PTR FTN()_Bool  size(3) Largest target is 1
		 -> NULL(), 

    S329$AutoBaudQuery	PTR FTN()_Bool  size(3) Largest target is 1
		 -> UART2_AutoBaudQuery(), 

    S329$AutoBaudSet	PTR FTN(_Bool ,)void  size(3) Largest target is 1
		 -> UART2_AutoBaudSet(), 

    S329$BaudRateGet	PTR FTN()unsigned long  size(3) Largest target is 1
		 -> NULL(), 

    S329$BaudRateSet	PTR FTN(unsigned long ,)void  size(3) Largest target is 1
		 -> NULL(), 

    S329$BRGCountGet	PTR FTN()unsigned long  size(3) Largest target is 1
		 -> NULL(), 

    S329$BRGCountSet	PTR FTN(unsigned long ,)void  size(3) Largest target is 1
		 -> NULL(), 

    S329$Deinitialize	PTR FTN()void  size(3) Largest target is 1
		 -> UART2_Deinitialize(), 

    S329$ErrorGet	PTR FTN()unsigned int  size(3) Largest target is 2
		 -> UART2_ErrorGet(), 

    S329$EventCallbackRegister	PTR FTN(PTR FTN()void ,)void  size(3) Largest target is 1
		 -> NULL(), 

    S329$FramingErrorCallbackRegister	PTR FTN(PTR FTN()void ,)void  size(3) Largest target is 1
		 -> UART2_FramingErrorCallbackRegister(), 

    S329$Initialize	PTR FTN()void  size(3) Largest target is 1
		 -> UART2_Initialize(), 

    S329$IsRxReady	PTR FTN()_Bool  size(3) Largest target is 1
		 -> UART2_IsRxReady(), 

    S329$IsTxDone	PTR FTN()_Bool  size(3) Largest target is 1
		 -> UART2_IsTxDone(), 

    S329$IsTxReady	PTR FTN()_Bool  size(3) Largest target is 1
		 -> UART2_IsTxReady(), 

    S329$OverrunErrorCallbackRegister	PTR FTN(PTR FTN()void ,)void  size(3) Largest target is 1
		 -> UART2_OverrunErrorCallbackRegister(), 

    S329$ParityErrorCallbackRegister	PTR FTN(PTR FTN()void ,)void  size(3) Largest target is 1
		 -> UART2_ParityErrorCallbackRegister(), 

    S329$Read	PTR FTN()unsigned char  size(3) Largest target is 1
		 -> UART2_Read(), 

    S329$RxCompleteCallbackRegister	PTR FTN(PTR FTN()void ,)void  size(3) Largest target is 1
		 -> NULL(), 

    S329$TransmitDisable	PTR FTN()void  size(3) Largest target is 1
		 -> UART2_TransmitDisable(), 

    S329$TransmitEnable	PTR FTN()void  size(3) Largest target is 1
		 -> UART2_TransmitEnable(), 

    S329$TxCollisionCallbackRegister	PTR FTN(PTR FTN()void ,)void  size(3) Largest target is 1
		 -> NULL(), 

    S329$TxCompleteCallbackRegister	PTR FTN(PTR FTN()void ,)void  size(3) Largest target is 1
		 -> NULL(), 

    S329$Write	PTR FTN(unsigned char ,)void  size(3) Largest target is 1
		 -> UART2_Write(), 

    sprintf@ap	PTR void [1] size(1) Largest target is 2
		 -> ?_sprintf(COMRAM[2]), 

    sprintf@fmt	PTR const unsigned char  size(1) Largest target is 6
		 -> STR_4(CODE[6]), 

    sprintf@s	PTR unsigned char  size(1) Largest target is 37
		 -> main@hex_string(BANK0[37]), 

    strlen@a	PTR const unsigned char  size(1) Largest target is 37
		 -> main@hex_string(BANK0[37]), 

    strlen@s	PTR const unsigned char  size(1) Largest target is 37
		 -> main@hex_string(BANK0[37]), 

    UART2$AutoBaudEventEnableGet	PTR FTN()_Bool  size(3) Largest target is 1
		 -> NULL(), 

    UART2$AutoBaudQuery	PTR FTN()_Bool  size(3) Largest target is 1
		 -> UART2_AutoBaudQuery(), 

    UART2$AutoBaudSet	PTR FTN(_Bool ,)void  size(3) Largest target is 1
		 -> UART2_AutoBaudSet(), 

    UART2$BaudRateGet	PTR FTN()unsigned long  size(3) Largest target is 1
		 -> NULL(), 

    UART2$BaudRateSet	PTR FTN(unsigned long ,)void  size(3) Largest target is 1
		 -> NULL(), 

    UART2$BRGCountGet	PTR FTN()unsigned long  size(3) Largest target is 1
		 -> NULL(), 

    UART2$BRGCountSet	PTR FTN(unsigned long ,)void  size(3) Largest target is 1
		 -> NULL(), 

    UART2$Deinitialize	PTR FTN()void  size(3) Largest target is 1
		 -> UART2_Deinitialize(), 

    UART2$ErrorGet	PTR FTN()unsigned int  size(3) Largest target is 2
		 -> UART2_ErrorGet(), 

    UART2$EventCallbackRegister	PTR FTN(PTR FTN()void ,)void  size(3) Largest target is 1
		 -> NULL(), 

    UART2$FramingErrorCallbackRegister	PTR FTN(PTR FTN()void ,)void  size(3) Largest target is 1
		 -> UART2_FramingErrorCallbackRegister(), 

    UART2$Initialize	PTR FTN()void  size(3) Largest target is 1
		 -> UART2_Initialize(), 

    UART2$IsRxReady	PTR FTN()_Bool  size(3) Largest target is 1
		 -> UART2_IsRxReady(), 

    UART2$IsTxDone	PTR FTN()_Bool  size(3) Largest target is 1
		 -> UART2_IsTxDone(), 

    UART2$IsTxReady	PTR FTN()_Bool  size(3) Largest target is 1
		 -> UART2_IsTxReady(), 

    UART2$OverrunErrorCallbackRegister	PTR FTN(PTR FTN()void ,)void  size(3) Largest target is 1
		 -> UART2_OverrunErrorCallbackRegister(), 

    UART2$ParityErrorCallbackRegister	PTR FTN(PTR FTN()void ,)void  size(3) Largest target is 1
		 -> UART2_ParityErrorCallbackRegister(), 

    UART2$Read	PTR FTN()unsigned char  size(3) Largest target is 1
		 -> UART2_Read(), 

    UART2$RxCompleteCallbackRegister	PTR FTN(PTR FTN()void ,)void  size(3) Largest target is 1
		 -> NULL(), 

    UART2$TransmitDisable	PTR FTN()void  size(3) Largest target is 1
		 -> UART2_TransmitDisable(), 

    UART2$TransmitEnable	PTR FTN()void  size(3) Largest target is 1
		 -> UART2_TransmitEnable(), 

    UART2$TxCollisionCallbackRegister	PTR FTN(PTR FTN()void ,)void  size(3) Largest target is 1
		 -> NULL(), 

    UART2$TxCompleteCallbackRegister	PTR FTN(PTR FTN()void ,)void  size(3) Largest target is 1
		 -> NULL(), 

    UART2$Write	PTR FTN(unsigned char ,)void  size(3) Largest target is 1
		 -> UART2_Write(), 

    UART2_FramingErrorCallbackRegister@callbackHandler	PTR FTN()void  size(3) Largest target is 1
		 -> UART2_DefaultFramingErrorCallback(), 

    UART2_FramingErrorHandler	PTR FTN()void  size(3) Largest target is 1
		 -> UART2_DefaultFramingErrorCallback(), NULL(), 

    UART2_OverrunErrorCallbackRegister@callbackHandler	PTR FTN()void  size(3) Largest target is 1
		 -> UART2_DefaultOverrunErrorCallback(), 

    UART2_OverrunErrorHandler	PTR FTN()void  size(3) Largest target is 1
		 -> UART2_DefaultOverrunErrorCallback(), NULL(), 

    UART2_ParityErrorCallbackRegister@callbackHandler	PTR FTN()void  size(3) Largest target is 1
		 -> UART2_DefaultParityErrorCallback(), 

    UART2_ParityErrorHandler	PTR FTN()void  size(3) Largest target is 1
		 -> UART2_DefaultParityErrorCallback(), NULL(), 

    vfpfcnvrt@ap	PTR PTR void  size(1) Largest target is 1
		 -> sprintf@ap(COMRAM[1]), 

    vfpfcnvrt@cp	PTR unsigned char  size(1) Largest target is 6
		 -> STR_4(CODE[6]), 

    vfpfcnvrt@fmt	PTR PTR unsigned char  size(1) Largest target is 1
		 -> vfprintf@cfmt(COMRAM[1]), 

    vfpfcnvrt@fp	PTR struct _IO_FILE size(1) Largest target is 12
		 -> sprintf@f(COMRAM[12]), 

    vfprintf@ap	PTR PTR void  size(1) Largest target is 1
		 -> sprintf@ap(COMRAM[1]), 

    vfprintf@cfmt	PTR unsigned char  size(1) Largest target is 6
		 -> STR_4(CODE[6]), 

    vfprintf@fmt	PTR const unsigned char  size(1) Largest target is 6
		 -> STR_4(CODE[6]), 

    vfprintf@fp	PTR struct _IO_FILE size(1) Largest target is 12
		 -> sprintf@f(COMRAM[12]), 

    xtoa@fp	PTR struct _IO_FILE size(1) Largest target is 12
		 -> sprintf@f(COMRAM[12]), 


Critical Paths under _main in COMRAM

    _main->_sprintf
    _sprintf->_vfprintf
    _vfprintf->_vfpfcnvrt
    _vfpfcnvrt->_xtoa
    _xtoa->_pad
    _pad->_fputs
    _fputs->_fputc
    _fputc->_putch
    _putch->_UART2_IsTxReady
    _putch->_UART2_Write
    _read_prec_or_width->___wmul
    _UART2_Initialize->_UART2_FramingErrorCallbackRegister
    _UART2_Initialize->_UART2_OverrunErrorCallbackRegister
    _UART2_Initialize->_UART2_ParityErrorCallbackRegister
    _INTERRUPT_Initialize->_INT0_SetInterruptHandler
    _INTERRUPT_Initialize->_INT1_SetInterruptHandler
    _INTERRUPT_Initialize->_INT2_SetInterruptHandler
    _LCD_String_xy->_LCD_String
    _LCD_String->_LCD_Char
    _LCD_Char->_MSdelay
    _LCD_Init->_LCD_Command
    _LCD_Clear->_LCD_Command
    _LCD_Command->_MSdelay

Critical Paths under _main in BANK0

    None.

Critical Paths under _main in BANK1

    None.

Critical Paths under _main in BANK2

    None.

Critical Paths under _main in BANK3

    None.

Critical Paths under _main in BANK4

    None.

Critical Paths under _main in BANK5

    None.

Critical Paths under _main in BANK6

    None.

Critical Paths under _main in BANK7

    None.

Critical Paths under _main in BANK8

    None.

Critical Paths under _main in BANK9

    None.

Critical Paths under _main in BANK10

    None.

Critical Paths under _main in BANK11

    None.

Critical Paths under _main in BANK12

    None.

Critical Paths under _main in BANK13

    None.

Critical Paths under _main in BANK14

    None.

Critical Paths under _main in BANK15

    None.

Critical Paths under _main in BANK16

    None.

Critical Paths under _main in BANK17

    None.

Critical Paths under _main in BANK18

    None.

Critical Paths under _main in BANK19

    None.

Critical Paths under _main in BANK20

    None.

Critical Paths under _main in BANK21

    None.

Critical Paths under _main in BANK22

    None.

Critical Paths under _main in BANK23

    None.

Critical Paths under _main in BANK24

    None.

Critical Paths under _main in BANK25

    None.

Critical Paths under _main in BANK26

    None.

Critical Paths under _main in BANK27

    None.

Critical Paths under _main in BANK28

    None.

Critical Paths under _main in BANK29

    None.

Critical Paths under _main in BANK30

    None.

Critical Paths under _main in BANK31

    None.

Call Graph Tables:

 ---------------------------------------------------------------------------------
 (Depth) Function   	        Calls       Base Space   Used Autos Params    Refs
 ---------------------------------------------------------------------------------
 (0) _main                                                73    73      0   12338
                                             64 COMRAM     1     1      0
                                              0 BANK0     48    48      0
                          _LCD_Clear
                           _LCD_Init
                      _LCD_String_xy
                  _SYSTEM_Initialize
                   _UART2_Initialize
                    _UART2_IsRxReady
                         _UART2_Read
                _UART2_ReceiveEnable
                            _sprintf
                             _strlen
 ---------------------------------------------------------------------------------
 (1) _strlen                                               3     1      2     166
                                              0 COMRAM     3     1      2
 ---------------------------------------------------------------------------------
 (1) _sprintf                                             19    15      4    5511
                                             47 COMRAM    17    13      4
                             _strlen (ARG)
                           _vfprintf
 ---------------------------------------------------------------------------------
 (2) _vfprintf                                             4     1      3    5158
                                             43 COMRAM     4     1      3
                          _vfpfcnvrt
 ---------------------------------------------------------------------------------
 (3) _vfpfcnvrt                                           10     7      3    4799
                                             34 COMRAM     9     6      3
                              _fputc
                 _read_prec_or_width
                               _xtoa
 ---------------------------------------------------------------------------------
 (4) _xtoa                                                12     9      3    2756
                                             22 COMRAM    12     9      3
                                _pad
 ---------------------------------------------------------------------------------
 (5) _pad                                                  7     3      4    2308
                                             15 COMRAM     7     3      4
                              _fputc
                              _fputs
 ---------------------------------------------------------------------------------
 (6) _fputs                                                5     3      2    1151
                                             10 COMRAM     5     3      2
                              _fputc
 ---------------------------------------------------------------------------------
 (7) _fputc                                                8     5      3     750
                                              2 COMRAM     8     5      3
                              _putch
 ---------------------------------------------------------------------------------
 (8) _putch                                                1     1      0      68
                                              1 COMRAM     1     1      0
                    _UART2_IsTxReady
                        _UART2_Write
 ---------------------------------------------------------------------------------
 (9) _UART2_Write                                          1     1      0      22
                                              0 COMRAM     1     1      0
 ---------------------------------------------------------------------------------
 (9) _UART2_IsTxReady                                      1     1      0      24
                                              0 COMRAM     1     1      0
 ---------------------------------------------------------------------------------
 (4) _read_prec_or_width                                   5     3      2     643
                                              6 COMRAM     5     3      2
                             ___wmul
 ---------------------------------------------------------------------------------
 (5) ___wmul                                               6     2      4     311
                                              0 COMRAM     6     2      4
 ---------------------------------------------------------------------------------
 (1) _UART2_ReceiveEnable                                  0     0      0       0
 ---------------------------------------------------------------------------------
 (1) _UART2_Read                                           0     0      0       0
 ---------------------------------------------------------------------------------
 (1) _UART2_IsRxReady                                      0     0      0       0
 ---------------------------------------------------------------------------------
 (1) _SYSTEM_Initialize                                    0     0      0     654
                   _CLOCK_Initialize
               _INTERRUPT_Initialize
             _PIN_MANAGER_Initialize
                   _UART2_Initialize
 ---------------------------------------------------------------------------------
 (1) _UART2_Initialize                                     0     0      0     360
 _UART2_FramingErrorCallbackRegister
 _UART2_OverrunErrorCallbackRegister
  _UART2_ParityErrorCallbackRegister
 ---------------------------------------------------------------------------------
 (2) _UART2_ParityErrorCallbackRegister                    3     0      3     120
                                              0 COMRAM     3     0      3
 ---------------------------------------------------------------------------------
 (2) _UART2_OverrunErrorCallbackRegister                   3     0      3     120
                                              0 COMRAM     3     0      3
 ---------------------------------------------------------------------------------
 (2) _UART2_FramingErrorCallbackRegister                   3     0      3     120
                                              0 COMRAM     3     0      3
 ---------------------------------------------------------------------------------
 (2) _PIN_MANAGER_Initialize                               0     0      0       0
 ---------------------------------------------------------------------------------
 (2) _INTERRUPT_Initialize                                 0     0      0     294
           _INT0_SetInterruptHandler
           _INT1_SetInterruptHandler
           _INT2_SetInterruptHandler
 ---------------------------------------------------------------------------------
 (3) _INT2_SetInterruptHandler                             3     0      3      98
                                              0 COMRAM     3     0      3
 ---------------------------------------------------------------------------------
 (3) _INT1_SetInterruptHandler                             3     0      3      98
                                              0 COMRAM     3     0      3
 ---------------------------------------------------------------------------------
 (3) _INT0_SetInterruptHandler                             3     0      3      98
                                              0 COMRAM     3     0      3
 ---------------------------------------------------------------------------------
 (2) _CLOCK_Initialize                                     0     0      0       0
 ---------------------------------------------------------------------------------
 (1) _LCD_String_xy                                        5     2      3    2764
                                              9 COMRAM     5     2      3
                        _LCD_Command
                         _LCD_String
 ---------------------------------------------------------------------------------
 (2) _LCD_String                                           2     0      2     995
                                              7 COMRAM     2     0      2
                           _LCD_Char
 ---------------------------------------------------------------------------------
 (3) _LCD_Char                                             1     1      0     874
                                              6 COMRAM     1     1      0
                            _MSdelay
 ---------------------------------------------------------------------------------
 (1) _LCD_Init                                             0     0      0    1726
                        _LCD_Command
                            _MSdelay
 ---------------------------------------------------------------------------------
 (1) _LCD_Clear                                            0     0      0     874
                        _LCD_Command
 ---------------------------------------------------------------------------------
 (2) _LCD_Command                                          1     1      0     874
                                              6 COMRAM     1     1      0
                            _MSdelay
 ---------------------------------------------------------------------------------
 (4) _MSdelay                                              6     4      2     852
                                              0 COMRAM     6     4      2
 ---------------------------------------------------------------------------------
 Estimated maximum stack depth 9
 ---------------------------------------------------------------------------------

 Call Graph Graphs:

 _main (ROOT)
   _LCD_Clear
     _LCD_Command
       _MSdelay
   _LCD_Init
     _LCD_Command
     _MSdelay
   _LCD_String_xy
     _LCD_Command
     _LCD_String
       _LCD_Char
         _MSdelay
   _SYSTEM_Initialize
     _CLOCK_Initialize
     _INTERRUPT_Initialize
       _INT0_SetInterruptHandler
       _INT1_SetInterruptHandler
       _INT2_SetInterruptHandler
     _PIN_MANAGER_Initialize
     _UART2_Initialize
       _UART2_FramingErrorCallbackRegister
       _UART2_OverrunErrorCallbackRegister
       _UART2_ParityErrorCallbackRegister
   _UART2_Initialize
   _UART2_IsRxReady
   _UART2_Read
   _UART2_ReceiveEnable
   _sprintf
     _strlen (ARG)
     _vfprintf (ARG)
       _vfpfcnvrt
         _fputc
           _putch
             _UART2_IsTxReady
             _UART2_Write
         _read_prec_or_width
           ___wmul
         _xtoa
           _pad
             _fputc
             _fputs
               _fputc
   _strlen

 Address spaces:
Name               Size   Autos  Total    Cost      Usage
BIGRAM            1FFF      0       0      97        0.0%
EEDATA             400      0       0       0        0.0%
BITBIGSFRlhhhhh    2E7      0       0      80        0.0%
BITBIGSFRlhhhhh    1D7      0       0      74        0.0%
BITBIGSFRllll      1A1      0       0      96        0.0%
BITBANK31          100      0       0      67        0.0%
BANK31             100      0       0      68        0.0%
BITBANK30          100      0       0      65        0.0%
BANK30             100      0       0      66        0.0%
BITBANK29          100      0       0      63        0.0%
BANK29             100      0       0      64        0.0%
BITBANK28          100      0       0      61        0.0%
BANK28             100      0       0      62        0.0%
BITBANK27          100      0       0      59        0.0%
BANK27             100      0       0      60        0.0%
BITBANK26          100      0       0      57        0.0%
BANK26             100      0       0      58        0.0%
BITBANK25          100      0       0      55        0.0%
BANK25             100      0       0      56        0.0%
BITBANK24          100      0       0      53        0.0%
BANK24             100      0       0      54        0.0%
BITBANK23          100      0       0      51        0.0%
BANK23             100      0       0      52        0.0%
BITBANK22          100      0       0      49        0.0%
BANK22             100      0       0      50        0.0%
BITBANK21          100      0       0      47        0.0%
BANK21             100      0       0      48        0.0%
BITBANK20          100      0       0      45        0.0%
BANK20             100      0       0      46        0.0%
BITBANK19          100      0       0      43        0.0%
BANK19             100      0       0      44        0.0%
BITBANK18          100      0       0      41        0.0%
BANK18             100      0       0      42        0.0%
BITBANK17          100      0       0      39        0.0%
BANK17             100      0       0      40        0.0%
BITBANK16          100      0       0      37        0.0%
BANK16             100      0       0      38        0.0%
BITBANK15          100      0       0      35        0.0%
BANK15             100      0       0      36        0.0%
BITBANK14          100      0       0      33        0.0%
BANK14             100      0       0      34        0.0%
BITBANK13          100      0       0      31        0.0%
BANK13             100      0       0      32        0.0%
BITBANK12          100      0       0      29        0.0%
BANK12             100      0       0      30        0.0%
BITBANK11          100      0       0      27        0.0%
BANK11             100      0       0      28        0.0%
BITBANK10          100      0       0      25        0.0%
BANK10             100      0       0      26        0.0%
BITBANK9           100      0       0      23        0.0%
BANK9              100      0       0      24        0.0%
BITBANK8           100      0       0      21        0.0%
BANK8              100      0       0      22        0.0%
BITBANK7           100      0       0      19        0.0%
BANK7              100      0       0      20        0.0%
BITBANK6           100      0       0      17        0.0%
BANK6              100      0       0      18        0.0%
BITBANK5           100      0       0      15        0.0%
BANK5              100      0       0      16        0.0%
BITBANK4           100      0       0      13        0.0%
BANK4              100      0       0      14        0.0%
BITBANK3           100      0       0      10        0.0%
BANK3              100      0       0      11        0.0%
BITBANK2           100      0       0       8        0.0%
BANK2              100      0       0       9        0.0%
BITBANK1           100      0       0       6        0.0%
BANK1              100      0       0       7        0.0%
BITBANK0            A0      0       0       4        0.0%
BANK0               A0     30      50       5       50.0%
BITBIGSFRlhhhhh     60      0       0      81        0.0%
BITCOMRAM           5F      0       0       0        0.0%
COMRAM              5F     41      5B       1       95.8%
BITBIGSFRlllhhh     39      0       0      90        0.0%
BITBIGSFRlllhhh     31      0       0      93        0.0%
BITBIGSFRhhh        2D      0       0      69        0.0%
BITBIGSFRllh        26      0       0      89        0.0%
BITBIGSFRlhl         8      0       0      88        0.0%
BITBIGSFRhhlhh       5      0       0      70        0.0%
BITBIGSFRlhhhhl      5      0       0      83        0.0%
BITBIGSFRlhhhhl      4      0       0      82        0.0%
BITBIGSFRlhhhlh      4      0       0      84        0.0%
BITBIGSFRlhhlh       4      0       0      86        0.0%
BITBIGSFRlllhl       3      0       0      95        0.0%
BITBIGSFRhhll        3      0       0      72        0.0%
BITBIGSFRhl          3      0       0      73        0.0%
BITBIGSFRlhhhll      2      0       0      85        0.0%
BITBIGSFRlhhll       2      0       0      87        0.0%
BITBIGSFRhhlhl       1      0       0      71        0.0%
BITBIGSFRlhhhhh      1      0       0      75        0.0%
BITBIGSFRlhhhhh      1      0       0      76        0.0%
BITBIGSFRlhhhhh      1      0       0      77        0.0%
BITBIGSFRlhhhhh      1      0       0      78        0.0%
BITBIGSFRlhhhhh      1      0       0      79        0.0%
BITBIGSFRlllhhh      1      0       0      91        0.0%
BITBIGSFRlllhhh      1      0       0      92        0.0%
BITBIGSFRlllhhl      1      0       0      94        0.0%
BIGSFR               0      0       0     200        0.0%
BITSFR_8             0      0       0     200        0.0%
SFR_8                0      0       0     200        0.0%
BITSFR_7             0      0       0     200        0.0%
SFR_7                0      0       0     200        0.0%
BITSFR_6             0      0       0     200        0.0%
SFR_6                0      0       0     200        0.0%
BITSFR_5             0      0       0     200        0.0%
SFR_5                0      0       0     200        0.0%
BITSFR_4             0      0       0     200        0.0%
SFR_4                0      0       0     200        0.0%
BITSFR_3             0      0       0     200        0.0%
SFR_3                0      0       0     200        0.0%
BITSFR_2             0      0       0     200        0.0%
SFR_2                0      0       0     200        0.0%
BITSFR_1             0      0       0     200        0.0%
SFR_1                0      0       0     200        0.0%
BITSFR               0      0       0     200        0.0%
SFR                  0      0       0     200        0.0%
STACK                0      0       0       2        0.0%
NULL                 0      0       0       0        0.0%
ABS                  0      0      AB      12        0.0%
DATA                 0      0      AB       3        0.0%
CODE                 0      0       0       0        0.0%


Microchip Technology PIC18 Macro Assembler V2.46 build 20240104201356 
Symbol Table                                                                                   Fri May 03 10:52:45 2024

                                     ?_LCD_Command 0001                                                 l11 2ABE  
                              ___wmul@multiplicand 0003                                        ?_LCD_String 0008  
                                              l124 249A                                                l301 26FA  
                                              l214 2A96                                                l162 27FC  
                                              l402 29C2                                                l172 2AE8  
                                              l319 2B00                                                l352 2974  
                                              l185 2ADA                                                l353 2976  
                                              l450 2AFA                                                l348 2AAC  
                                              l524 29A0                                                l453 2A7E  
                                              l381 2A42                                                l462 276C  
                                              l198 2ACC                                                l366 2B06  
                                              l518 23D0                                                l447 294C  
                                              l456 2A60                                                l369 2AF2  
                                              l394 2A06                                                l475 27B6  
                                              l467 2880                                                l398 29E4  
                                              u700 2A3C                                                u701 2A38  
                                              u710 2562                                                u711 255E  
                                              u800 279C                                                u720 2572  
                                              u801 2798                                                u721 256E  
                                              u810 27B6                                                u730 2598  
                                              u811 27B2                                                u731 2594  
                                              u900 2548                                                u740 25CA  
                                              u820 2222                                                u901 2544  
                                              u741 25C6                                                u821 221E  
                                              u910 29FA                                                u750 28BC  
                                              u911 29F6                                                u751 28B8  
                                              u920 29D8                                                u680 2962  
                                              u760 260C                                                u840 2282  
                                              u921 29D4                                                u681 295E  
                                              u761 2608                                                u841 227E  
                                              u930 29B6                                                u690 2970  
                                              u770 2626                                                u850 2294  
                                              u931 29B2                                                u691 296C  
                                              u771 2622                                                u851 2290  
                                              u835 2252                                                u780 266C  
                                              u860 22A4                                                u940 2094  
                                              u781 2668                                                u861 22A0  
                                              u941 2090                                                u790 267A  
                                              u870 22BE                                                u950 20FE  
                                              u791 2676                                                u871 22BA  
                                              u951 20FA                                                u880 22CC  
                                              u960 2120                                                u881 22C8  
                                              u961 211C                                                u890 24CC  
                                              u970 2156                                                u891 24C8  
                                              u971 2152                                                u980 272A  
                                              u990 275C                                                u987 271C  
                                              u997 274E                         ??_INT0_SetInterruptHandler 0004  
                                              _pad 25FE         __end_of_UART2_FramingErrorCallbackRegister 2A08  
             ??_UART2_FramingErrorCallbackRegister 0004                ?_UART2_FramingErrorCallbackRegister 0001  
               _UART2_FramingErrorCallbackRegister 29E6                                                wreg 3FE8  
                                      LCD_Char@dat 0007                                     _UART2_IsTxDone 0000  
                                             l2001 2ACE                                               l1202 28F0  
                                             l2003 2AC0                                               l2011 29D8  
                                             l1220 262E                                               l2021 2A4E  
                                             l2101 2434                                               l2005 29E6  
                                             l2013 29A2                                               l2023 2A50  
                                             l2111 2442                                               l2103 2436  
                                             l2007 29FA                                               l2015 29B6  
                                             l1223 266C                                               l2031 2094  
                                             l2025 2A52                                               l2017 2A46  
                                             l2201 286E                                               l2113 2444  
                                             l2105 2438                                               l2009 29C4  
                                             l2121 26E2                                               l1241 2548  
                                             l1225 2686                                               l2041 20B6  
                                             l2033 209C                                               l2027 2A54  
                                             l2019 2A4C                                               l2203 2874  
                                             l2131 27D4                                               l2107 243E  
                                             l2123 26F2                                               l2115 2688  
                                             l2051 20FE                                               l2043 20C2  
                                             l2035 20A8                                               l2211 2912  
                                             l2141 2A6C                                               l2133 27E6  
                                             l2125 27B8                                               l2109 2440  
                                             l2117 26C2                                               l1245 2550  
                                             l1237 22E2                                               l2061 2156  
                                             l2053 2112                                               l2037 20AC  
                                             l2029 206C                                               l2221 28D6  
                                             l2205 28F2                                               l2301 22E4  
                                             l1262 21E6                                               l2143 2A6E  
                                             l2151 2700                                               l2135 27EA  
                                             l2127 27C0                                               l2119 26D2  
                                             l2071 2194                                               l2063 2172  
                                             l2055 2120                                               l2047 20CA  
                                             l2039 20B4                                               l2223 28E6  
                                             l2215 28BE                                               l2207 28FA  
                                             l2311 22FA                                               l2303 22EC  
                                             l2145 2A70                                               l2137 2A64  
                                             l2153 272E                                               l2129 27D0  
                                             l1281 25FC                                               l2065 2180  
                                             l2073 21B2                                               l2057 212A  
                                             l2049 20EE                                               l2161 2816  
                                             l2217 28C6                                               l2209 28FC  
                                             l2321 2310                                               l2313 2310  
                                             l2305 22F0                                               l2147 2A72  
                                             l2139 2A6A                                               l2155 2732  
                                             l2083 2A80                                               l2091 23F0  
                                             l2171 2ABA                                               l2059 2134  
                                             l2163 2838                                               l2219 28CE  
                                             l2331 2354                                               l2323 231A  
                                             l2315 2310                                               l2307 22F2  
                                             l2149 26FC                                               l2093 23FA  
                                             l2085 23D8                                               l2173 2AFC  
                                             l2077 21BE                                               l1269 2840  
                                             l2157 27FE                                               l2341 238A  
                                             l2325 232E                                               l2317 2310  
                                             l2309 22F6                                               l2183 2920  
                                             l2191 2844                                               l2095 23FE  
                                             l2087 23EC                                               l2167 2AAE  
                                             l2175 2A98                                               l2159 2806  
                                             l1295 291E                                               l2343 239A  
                                             l2327 233E                                               l2319 2310  
                                             l2185 292C                                               l2193 2844  
                                             l2097 2400                                               l2089 23EE  
                                             l2169 2AB6                                               l1289 28BC  
                                             l2345 239E                                               l2337 235C  
                                             l2329 2342                                               l2187 2930  
                                             l2195 2854                                               l2099 2432  
                                             l2179 2B02                                               l2347 23AE  
                                             l2339 2386                                               l2189 2AF4  
                                             l2197 285C                                               l1901 2882  
                                             l2349 23BE                                               l2199 2866  
                                             l1911 2998                                               l1903 288E  
                                             l1905 289C                                               l1921 2626  
                                             l1931 276E                                               l1907 28A0  
                                             l1923 263A                                               l1915 25FE  
                                             l1941 2786                                               l1933 277A  
                                             l1909 2978                                               l1925 264A  
                                             l1917 260C                                               l1943 279C  
                                             l1871 2962                                               l1927 264E  
                                             l1919 2618                                               l1951 21FC  
                                             l1945 27A0                                               l1873 2970  
                                             l1881 2A28                                               l1929 267A  
                                             l1961 222A                                               l1953 2206  
                                             l1939 2782                                               l1867 294E  
                                             l1883 2A3C                                               l1891 2572  
                                             l1963 222E                                               l1955 220C  
                                             l1971 2266                                               l1947 21E8  
                                             l1869 2952                                               l1877 2AEC  
                                             l1893 257C                                               l1973 2282  
                                             l1981 22CC                                               l1965 223C  
                                             l1957 2212                                               l1949 21EC  
                                             ?_pad 0010                                               l1991 24D4  
                                             l1879 2A28                                               l1895 2598  
                                             l1887 2552                                               l1975 2294  
                                             l1967 2240                                               l1959 2222  
                                             l1993 24F4                                               l1985 249C  
                                             l1897 25CA                                               l1889 2562  
                                             l1977 22A4                                               l1969 2246  
                                             l1995 2514                                               l1987 24A4  
                                             l1979 22BE                                               l1989 24CC  
                                             l1997 251C                                               l1999 2ADC  
                                             STR_1 2055                                               STR_2 205E  
                                             STR_3 2049                                               STR_4 2065  
                                             u1000 276C                                               u1001 2768  
                                             u1010 2838                                               u1011 2834  
                                             u1020 2AAA                                               u1021 2AA4  
                                             u1030 2AAC                                               u1040 2854  
                                             u1200 23D0                                               u1041 2850  
                                             u1201 23CC                                               u1050 2912  
                                             u1051 290E                                               u1170 232E  
                                             u1171 232A                                               u1180 2354  
                                             u1181 2350                                               _LATA 3FBA  
                                             u1190 239A                                               _LATB 3FBB  
                                             u1191 2396                                               _LATC 3FBC  
                                             _LATD 3FBD                                               _LATE 3FBE  
                                             _WPUA 3A41                                               _WPUB 3A51  
                                             _WPUC 3A61                                               _WPUD 3A71  
                                             _WPUE 3A81                                     _UART2_ErrorGet 0000  
                                             _dbuf 0090                                               _main 22E4  
                                             _prec 0056                                               pad@i 0015  
                                             pad@p 0012                                               fsr0h 3FEA  
                                             fsr1h 3FE2                                               indf0 3FEF  
                                             fsr2h 3FDA                                               fsr0l 3FE9  
                                             indf2 3FDF                                               fsr1l 3FE1  
                                             fsr2l 3FD9                                               _xtoa 21E8  
                        ?_INT2_SetInterruptHandler 0001                                               prodh 3FF4  
                                             prodl 3FF3                                               start FFFC  
                                  __end_of_MSdelay 27B8                                      _LCD_String_xy 2842  
                                     ___param_bank 0000                                        ?_UART2_Read 0001  
                                            ??_pad 0014                                   __end_of_LCD_Char 2A62  
                                 __end_of_LCD_Init 294E                                    _UART2_IsRxReady 2A98  
                                  _UART2_IsTxReady 294E                                              ?_main 0001  
                                            ?_xtoa 0017                                              _LATA0 1FDD0  
                                            _LATA1 1FDD1                                              _U2P1L 3DD4  
                                            _U2P2L 3DD6                                              _U2P3L 3DD8  
                                            _IOCAF 3A47                                              _IOCBF 3A57  
                                            _IOCCF 3A67                                              _IOCEF 3A87  
                                            _IOCAN 3A46                                              _IOCBN 3A56  
                                            _IOCAP 3A45                                              _IOCCN 3A66  
                                            _IOCBP 3A55                                              _IOCCP 3A65  
                                            _IOCEN 3A86                                              _IOCEP 3A85  
                                            _U2UIR 3DE0                                              _U2RXB 3DD0  
                                            _U2TXB 3DD2                                              _OSCEN 39DD  
                                            _UART2 2001                                       vfpfcnvrt@fmt 0024  
                      __end_of_UART2_ReceiveEnable 2B02                                              _TRISA 3FC2  
                                            _TRISB 3FC3                                              _TRISC 3FC4  
                                            _TRISD 3FC5                                              _TRISE 3FC6  
                                            _flags 005A                                read_prec_or_width@c 0009  
                              read_prec_or_width@n 000A                                              _fputc 2552  
                                            _fputs 2882                                              pad@fp 0010  
                                            _width 0054                                              _putch 2A26  
                                            main@i 008F                           _INT1_SetInterruptHandler 2ACE  
                                            tablat 3FF5                                              status 3FD8  
                                  __end_of_sprintf 28F2                                              xtoa@c 0020  
                                            xtoa@d 0018                                              xtoa@i 0021  
                                            xtoa@p 001D                                              xtoa@w 001E  
                                   ?_LCD_String_xy 000A                                    __initialization 2A08  
                                     __end_of_main 23D8                                       __end_of_xtoa 22E4  
                                     ?_UART2_Write 0001                                             ??_main 0041  
                                           ??_xtoa 001A                                  __end_of_LCD_Clear 2AFC  
                                    __activetblptr 0003         __end_of_UART2_OverrunErrorCallbackRegister 29E6  
             ??_UART2_OverrunErrorCallbackRegister 0004                ?_UART2_OverrunErrorCallbackRegister 0001  
               _UART2_OverrunErrorCallbackRegister 29C4                         __end_of_read_prec_or_width 2552  
 UART2_ParityErrorCallbackRegister@callbackHandler 0001  UART2_OverrunErrorCallbackRegister@callbackHandler 0001  
UART2_FramingErrorCallbackRegister@callbackHandler 0001                                             ?_fputc 0003  
                                           ?_fputs 000B                                             _ANSELA 3A40  
                                           ?_putch 0001                                             _ANSELB 3A50  
                                           _ANSELC 3A60                                             _ANSELD 3A70  
                                           _ANSELE 3A80                                             _RB1I2C 3A5A  
                                           _RB2I2C 3A5B                                             _RD0I2C 3A7A  
                                           _RD1I2C 3A7B                                             _RC3I2C 3A6A  
                                           _RC4I2C 3A6B                                             _U2CON0 3DDA  
                                           _U2CON1 3DDB                                             _U2CON2 3DDC  
                                           _U2BRGH 3DDE                                             _U2FIFO 3DDF  
                                           _U2BRGL 3DDD                                   LCD_String_xy@msg 000B  
                                 LCD_String_xy@pos 000A                                   LCD_String_xy@row 000D  
                                           _RD1PPS 3A19                                             _ODCONA 3A42  
                                           _ODCONB 3A52                                             _ODCONC 3A62  
                                           _ODCOND 3A72                                             _ODCONE 3A82  
                                        ??_MSdelay 0003                                             _INLVLA 3A44  
                                           _INLVLB 3A54                                             _INLVLC 3A64  
                                           _INLVLD 3A74                                             _INLVLE 3A84  
                                           _OSCFRQ 39DF                                      vfpfcnvrt@done 002A  
                          __end_of_UART2_IsRxReady 2AAE                                   _UART2_Initialize 2688  
                          __end_of_UART2_IsTxReady 2978                          _UART2_OverrunErrorHandler 0045  
                                     vfprintf@cfmt 002F                                             ___wmul 2978  
                             read_prec_or_width@ap 0008                                             clear_0 2A0E  
                                           clear_1 2A1A                   _UART2_DefaultParityErrorCallback 0000  
                                           isa$std 0001                                             pad@buf 0011  
                                ?_CLOCK_Initialize 0001                                             _strlen 28F2  
                                           fputc@c 0003                       _INT2_DefaultInterruptHandler 0000  
                                           fputs@c 000D                                             fputs@i 000E  
                                           fputs@s 000B                                 ??_CLOCK_Initialize 0001  
                                     __mediumconst 0000                                             tblptrh 3FF7  
                                           tblptrl 3FF6                                             tblptru 3FF8  
                                 __end_of_vfprintf 2842           INT2_SetInterruptHandler@InterruptHandler 0001  
         INT1_SetInterruptHandler@InterruptHandler 0001           INT0_SetInterruptHandler@InterruptHandler 0001  
                                        ??_sprintf 0034                                             xtoa@fp 0017  
                                _SYSTEM_Initialize 2AAE                                          ?_LCD_Char 0001  
                                       __accesstop 0060                            __end_of__initialization 2A20  
                                        ?_LCD_Init 0001                                    ??_LCD_String_xy 000D  
                               ?_SYSTEM_Initialize 0001                                      ___rparam_used 0001  
                              _UART2_AutoBaudQuery 0000                                      __end_of_UART2 2049  
                                   __pcstackCOMRAM 0001                                ??_SYSTEM_Initialize 0004  
                                    __end_of_fputc 25FE                                      __end_of_fputs 28BE  
                                    __end_of_putch 2A44                                       ??_LCD_String 000A  
                _UART2_DefaultFramingErrorCallback 0000                   __end_of_INT2_SetInterruptHandler 2ACE  
                                          ??_fputc 0006                          __end_of_SYSTEM_Initialize 2AC0  
                                          ??_fputs 000D                                            ??_putch 0002  
                                       __pbssBANK0 0090                                  _UART2_AutoBaudSet 0000  
                                       ??_LCD_Char 0007                                _UART2_IsTxReady$832 0001  
                                       ??_LCD_Init 0008                              _INT0_InterruptHandler 0051  
                               __end_of_LCD_String 276E                                   ?_UART2_IsRxReady 0001  
                                 ?_UART2_IsTxReady 0001                                       ??_UART2_Read 0001  
                                          ?___wmul 0001                                 main@received_bytes 0085  
                                          ?_strlen 0001                              _UART2_TransmitDisable 0000  
                                   main@hex_string 0060                                            _U2ERRIE 3DE2  
                                          _U2ERRIR 3DE1                         ??_INT1_SetInterruptHandler 0004  
                                          _U2RXPPS 3AE8                                            _OSCCON1 39D9  
                                          _OSCCON3 39DB                                            _OSCTUNE 39DE  
                                          _SLRCONA 3A43                                            _SLRCONB 3A53  
                                          _SLRCONC 3A63                                            _SLRCOND 3A73  
                                          _SLRCONE 3A83                                     main@byte_count 008E  
                                          _MSdelay 276E                                 __end_of_UART2_Read 2B08  
                        ?_INT0_SetInterruptHandler 0001                                      LCD_String@msg 0008  
                                          __Hparam 0000                                            __Lparam 0000  
                                        ?_vfprintf 002C                                       __psmallconst 2000  
                                          __pcinit 2A08                                            __ramtop 2000  
                                          __ptext0 22E4                                            __ptext1 28F2  
                                          __ptext2 28BE                                            __ptext3 27FE  
                                          __ptext4 206C                                            __ptext5 21E8  
                                          __ptext6 25FE                                            __ptext7 2882  
                                          __ptext8 2552                                            __ptext9 2A26  
                            read_prec_or_width@fmt 0007                  _UART2_DefaultOverrunErrorCallback 0000  
                         ??_PIN_MANAGER_Initialize 0001                           __end_of_UART2_Initialize 26FC  
                                        _LCD_Clear 2AF4                                      _received_data 005B  
                                          _sprintf 28BE                               end_of_initialization 2A20  
                         _INT2_SetInterruptHandler 2AC0                                          _U2UIRbits 3DE0  
        __end_of_UART2_ParityErrorCallbackRegister 29C4                ??_UART2_ParityErrorCallbackRegister 0004  
               ?_UART2_ParityErrorCallbackRegister 0001                  _UART2_ParityErrorCallbackRegister 29A2  
                                          fputc@fp 0005                                     LCD_Command@cmd 0007  
                                          fputs@fp 000C                                 _read_prec_or_width 249C  
                               _UART2_Deinitialize 0000                                  __end_of_vfpfcnvrt 21E8  
                                          postdec2 3FDD                                ?_read_prec_or_width 0007  
                                          postinc0 3FEE                                            postinc1 3FE6  
                                          postinc2 3FDE                                   vfpfcnvrt@convarg 0026  
                                       ??_vfprintf 002F                                            strlen@a 0003  
                                          strlen@s 0001                                          _PORTAbits 3FCA  
                            _INT1_InterruptHandler 004E                                          _PORTCbits 3FCC  
                                       ?_LCD_Clear 0001                               ??_read_prec_or_width 0009  
                     __end_of_INTERRUPT_Initialize 27FE                                      ??_LCD_Command 0007  
                     _INT0_DefaultInterruptHandler 0000                                        vfpfcnvrt@ap 0025  
                                      vfpfcnvrt@cp 002B                                        vfpfcnvrt@fp 0023  
                                   __end_of___wmul 29A2                                     __end_of_strlen 2920  
                              start_initialization 2A08                                        __end_of_pad 2688  
                                      putch@txData 0002                              __end_of_LCD_String_xy 2882  
                                      vfprintf@fmt 002D                                           ??___wmul 0005  
                                UART2_Write@txData 0001                                           ??_strlen 0003  
                              __end_of_LCD_Command 2A80                                        __pbssCOMRAM 0042  
                 __end_of_INT0_SetInterruptHandler 2AEA                          _UART2_FramingErrorHandler 0048  
                                    __pcstackBANK0 0060                                        ??_LCD_Clear 0008  
                                         ?_MSdelay 0001                              _INT2_InterruptHandler 004B  
                           _PIN_MANAGER_Initialize 23D8                               _UART2_TransmitEnable 0000  
                              _UART2_ReceiveEnable 2AFC                                      ??_UART2_Write 0001  
                                      __smallconst 2000                         ??_INT2_SetInterruptHandler 0004  
                                ?_UART2_Initialize 0001                              LCD_String_xy@location 000E  
                         _UART2_ParityErrorHandler 0042                                           ?_sprintf 0030  
                             ?_UART2_ReceiveEnable 0001                                 ??_UART2_Initialize 0004  
                             _INTERRUPT_Initialize 27B8                                   _uart2RxLastError 0058  
                                         MSdelay@i 0003                                           MSdelay@j 0005  
                                 _CLOCK_Initialize 2A80                                           _LCD_Char 2A44  
                                      _U2ERRIRbits 3DE1                                           _LCD_Init 2920  
                                   ___wmul@product 0005                          ?_INT1_SetInterruptHandler 0001  
                                         _PIR1bits 39A1                                           _PIR5bits 39A5  
                                         _PIR7bits 39A7                                        _LCD_Command 2A62  
                                        _vfpfcnvrt 206C                                  ___wmul@multiplier 0001  
                              __end_of_UART2_Write 2AF4                              ??_UART2_ReceiveEnable 0001  
                                      _INTCON0bits 3FD2                              ?_INTERRUPT_Initialize 0001  
                         _INT0_SetInterruptHandler 2ADC                                           __Hrparam 0000  
                                       vfprintf@ap 002E                                           __Lrparam 0000  
                                       vfprintf@fp 002C                                         ?_vfpfcnvrt 0023  
                                       sprintf@fmt 0031                                  ??_UART2_IsRxReady 0001  
                                         __ptext10 2AEA                                           __ptext11 294E  
                                         __ptext20 29C4                                           __ptext12 249C  
                                         __ptext21 29E6                                           __ptext13 2978  
                                         __ptext30 2A44                                           __ptext22 23D8  
                                         __ptext14 2AFC                                           __ptext31 2920  
                                         __ptext23 27B8                                           __ptext15 2B02  
                                         __ptext32 2AF4                                           __ptext24 2AC0  
                                         __ptext16 2A98                                           __ptext33 2A62  
                                         __ptext25 2ACE                                           __ptext17 2AAE  
                                         __ptext34 276E                                           __ptext26 2ADC  
                                         __ptext18 2688                                           __ptext27 2A80  
                                         __ptext19 29A2                                           __ptext28 2842  
                                         __ptext29 26FC                                  ??_UART2_IsTxReady 0001  
                                       _U2CON0bits 3DDA                                         _U2CON1bits 3DDB  
                                       _U2FIFObits 3DDF                                         MSdelay@val 0001  
                                         isa$xinst 0000                                           _vfprintf 27FE  
                                       _LCD_String 26FC                       _INT1_DefaultInterruptHandler 0000  
                                      _UART2_Write 2AEA                             ??_INTERRUPT_Initialize 0004  
                                        sprintf@ap 0034                            ?_PIN_MANAGER_Initialize 0001  
                                       _UART2_Read 2B02                                        ??_vfpfcnvrt 0026  
                         __end_of_CLOCK_Initialize 2A98                                           sprintf@f 0035  
                                         sprintf@s 0030                   __end_of_INT1_SetInterruptHandler 2ADC  
                   __end_of_PIN_MANAGER_Initialize 249C  
